(dp1
S'output'
p2
S"<type 'exceptions.TypeError'> 'bool' object is not callable"
p3
sS'layer'
p4
S'/home/kira/web2py/applications/projectlibrary/controllers/default.py'
p5
sS'code'
p6
S'# -*- coding: utf-8 -*-\n# this file is released under public domain and you can use without limitations\n\n#########################################################################\n## This is a samples controller\n## - index is the default action of any application\n## - user is required for authentication and authorization\n## - download is for downloading files uploaded in the db (does streaming)\n## - call exposes all registered services (none by default)\n#########################################################################\n\n\ndef index():\n    form = db().select(db.project.ALL, orderby=~db.project.num_downloads)\n    \n    form1 = db().select(db.project.ALL, orderby=~db.project.date_added)\n    return dict(form=form,form1=form1)\n    """\n    example action using the internationalization operator T and flash\n    rendered by views/default/index.html or views/generic.html\n\n    if you need a simple wiki simple replace the two lines below with:\n    return auth.wiki()\n    """\n    session.flash = T("Welcome to Project Library")\n    return dict(message=T(\'Search - Download - Upload\'))\n\n\ndef user():\n\n\n    """\n    exposes:\n    http://..../[app]/default/user/login\n    http://..../[app]/default/user/logout\n    http://..../[app]/default/user/register\n    http://..../[app]/default/user/profile\n    http://..../[app]/default/user/retrieve_password\n    http://..../[app]/default/user/change_password\n    use @auth.requires_login()\n        @auth.requires_membership(\'group name\')\n        @auth.requires_permission(\'read\',\'table name\',record_id)\n    to decorate functions that need access control\n    """\n    return dict(form=auth())\n\n\ndef download():\n    """\n    allows downloading of uploaded files\n    http://..../[app]/default/download/[filename]\n    """\n    return response.download(request, db)\n\n\ndef call():\n    """\n    exposes services. for example:\n    http://..../[app]/default/call/jsonrpc\n    decorate with @services.jsonrpc the functions to expose\n    supports xml, json, xmlrpc, jsonrpc, amfrpc, rss, csv\n    """\n    return service()\n\n\n@auth.requires_signature()\ndef data():\n    """\n    http://..../[app]/default/data/tables\n    http://..../[app]/default/data/create/[table]\n    http://..../[app]/default/data/read/[table]/[id]\n    http://..../[app]/default/data/update/[table]/[id]\n    http://..../[app]/default/data/delete/[table]/[id]\n    http://..../[app]/default/data/select/[table]\n    http://..../[app]/default/data/search/[table]\n    but URLs must be signed, i.e. linked with\n      A(\'table\',_href=URL(\'data/tables\',user_signature=True))\n    or with the signed load operator\n      LOAD(\'default\',\'data.load\',args=\'tables\',ajax=True,user_signature=True)\n    """\n    return dict(form=crud())\n\ndef ma():\n\t\n\t\tuser=db(db.auth_user.id==request.args(0,cast=int)).select().first()\n\t\tform = SQLFORM.factory(\n\t\t\tField(\'message_subject\',type=\'string\',requires=True),\n\t\t\tField(\'message_to_staff\',type=\'text\',requires=True))\n\t\tif form.process().accepted:\n\t\t\tsession.flash=\'Files Added\'\n\t\t\tmail.send(to=\'projectlibraryiiit@gmail.com\',subject=str(request.vars.message_subject),message=\'Message to Staff : \'+str(request.vars.message_to_staff)+\'\\r\\n\'\'\\r\\n\'+\'Author Is : \'+str(auth.user.email))\n\t\t\tredirect(URL(\'allprofile\',args=auth.user.id))\n\t\n\t\treturn dict(form=form,user=user)\n\ndef clearnoti():\n\tform=db(db.flak.user_id==auth.user.id).select()\n\tfor some in form:\n\t\tsome.all_flag=False\n\t\tsome.comments_flag=False\n\t\tsome.rating_flag=False\n\t\tsome.download_flag=False\n\t\tsome.update_record()\n\tredirect(URL(\'noti\'))\n\t\n\n\ndef search_func():\n\tform = db().select(db.project.ALL, orderby=db.project.project_name)\n\tform1=db().select(db.auth_user.ALL)\n\tform2=db().select(db.files.ALL)\n\tt= request.vars.s\n\treturn dict(t=t,form=form,form1=form1,form2=form2)\n\ndef register():\n\tform = crud.create(db.auth_user)\n\treturn dict(form=form)\n\n@auth.requires_login()\ndef viewsub():\n\t\tuser=db(db.subscribe.cur_user==auth.user.id).select()\n\t\treturn dict(user=user)\n@auth.requires_login()\ndef delsub():\n\tdb((db.subscribe.cur_user==auth.user.id) & (db.subscribe.sub_user==request.args(0,cast=int))).delete()\n\tredirect(URL(\'viewsub\'))\n\n\n\n@auth.requires_login()\ndef sub():\n\tuser=db(db.auth_user.id==request.args(0,cast=int)).select().first()\n\tif auth.user.email!=user.email:\n\t\tsad=db((db.subscribe.cur_user==auth.user.id) & (db.subscribe.sub_user==user.id)).select()\n\t\tif len(sad)==0:\n\t\t\ts="You are now subscribed to  "+str(user.email)\n\t\t\tsession.flash=s\n\t\t\tdb.subscribe.insert(cur_user=auth.user.id,sub_user=user.id,is_sub=1)\n\t\telse:\n\t\t\ts="You are already subscribed to  "+str(user.email)\n\t\t\tsession.flash=s\n\telse:\n\t\ts="You cannot subscribe to yourself"\n\t\tsession.flash=s\n\t  \t\n\tredirect(URL(\'allprofile\',args=user.id))\n\treturn dict()\n\n@auth.requires_login()\ndef delkol():\n\tdb((db.kolect.cur_user==auth.user.id) & (db.kolect.project_id==request.args(0,cast=int))).delete()\n\tredirect(URL(\'viewkol\'))\n\n@auth.requires_login()\ndef viewkol():\n\t\tsad=db(db.kolect.cur_user==auth.user.id).select()\n\t\treturn dict(sad=sad)\n\t\t\t\n\n@auth.requires_login()\ndef addtokol():\n\tproject=db.project(request.args(0,cast=int)) or redirect(URL(\'index\'))\n\n\tsad=db((db.kolect.cur_user==auth.user.id) & (db.kolect.project_id==project.id)).select()\n\tif len(sad)==0:\n\t\ts=str(project.project_name) + \' is now added to your Collection\' \n\t\tsession.flash=s\n\t\tdb.kolect.insert(cur_user=auth.user.id,project_id=project.id,is_sub=1)\n\telse:\n\t\ts=str(project.project_name) + \' is already in your Collection\' \n\t\tsession.flash=s\n\tredirect(URL(\'project_page\',args=project.id))\n\treturn dict(project=project)\n\n\ndef noti():\n\tseen=db(db.flak.user_id==auth.user.id).select()\n\treturn dict(seen=seen)\n\ndef profile():\n\tredirect(URL(\'allprofile\',args=auth.user.id))\n\ndef editprojects():\n\tform = db(db.auth_user.id==auth.user.id).select()\n\trow=db(db.allowed_users.other_email==auth.user.email).select()\n\tproject=db(db.project.projectadmin_email==auth.user.email).select()\n\treturn dict(row=row,form=form,project=project)\n\n\ndef editprofile():\n\tform = db(db.auth_user.id==auth.user.id).select()\n\trow=db(db.allowed_users.other_email==auth.user.email).select()\n\tdb.auth_user.email.writable=False\n\treturn dict(form1=auth.profile(),row=row,form=form)\n\ndef allprofile():\n\tform = db(db.auth_user.id==request.args(0,cast=int)).select()\n\trow1=db(db.allowed_users.other_email==form[0].email).select()\n\n\tif auth.user:\n\t\trow=db(db.allowed_users.other_email==auth.user.email).select()\n\t\treturn dict(form=form,row=row,row1=row1)\n\telse:\n\t\treturn dict(form=form,row1=row1)\n\ndef byuploads():\n\tform = db().select(db.auth_user.ALL, orderby=~db.auth_user.upload_count)\n\treturn dict(form = form)\n\ndef most_recent():\n\tform = db().select(db.project.ALL, orderby=~db.project.date_added)\n\treturn dict(form=form)\n\t\ndef bycomments():\n\tform = db().select(db.project.ALL, orderby=~db.project.num_comments)\n\treturn dict(form=form)\n\ndef bydownloads():\n\tform = db().select(db.project.ALL, orderby=~db.project.num_downloads)\n\treturn dict(form=form)\n\ndef byrating():\n\tform = db().select(db.project.ALL, orderby=~db.project.avg_rating)\n\treturn dict(form=form)\n\ndef az():\n\tform = db().select(db.project.ALL, orderby=db.project.project_name)\n\treturn dict(form=form)\ndef za():\n\tform1 = db().select(db.project.ALL, orderby=~db.project.project_name)\n\treturn dict(form1=form1)\ndef browse():\n\tform = db().select(db.project.ALL, orderby=db.project.project_name)\n\treturn dict(form=form)\n\n@auth.requires_login()\ndef uploadpage():\n\treturn dict()\n\ndef viewfiles():\n\t\n\tproject=db.project(request.args(0,cast=int)) or redirect(URL(\'index\'))\n\tmain=db(db.files.project_id==project.id).select()\n\tver1=db((db.files.project_version==1) & (db.files.project_id==project.id)).select()\n\tver2=db((db.files.project_version==2) & (db.files.project_id==project.id)).select()\n\tver3=db((db.files.project_version==3) & (db.files.project_id==project.id)).select()\n\n\treturn dict(ver1=ver1,ver2=ver2,ver3=ver3,main=main,project=project)\n\ndef delfile3():\n\tfiles=db((db.files.file_name==request.args(0,cast=str)) & (db.files.project_version==1)).select().last()\n\tdb((db.files.file_name==request.args(0,cast=str)) & (db.files.project_version==3)).delete()\n\tsession.flash="File Deleted"\n\tredirect(URL(\'viewfiles\',args=files.project_id))\ndef delfile2():\n\tfiles=db((db.files.file_name==request.args(0,cast=str)) & (db.files.project_version==1)).select().last()\n\tdb((db.files.file_name==request.args(0,cast=str)) & (db.files.project_version==2)).delete()\n\tsession.flash="File Deleted"\n\tredirect(URL(\'viewfiles\',args=files.project_id))\ndef delfile1():\n\tfiles=db((db.files.file_name==request.args(0,cast=str)) & (db.files.project_version==1)).select().last()\n\tdb((db.files.file_name==request.args(0,cast=str)) & (db.files.project_version==1)).delete()\n\tsession.flash="File Deleted"\n\t(T(\'Most Uploads\'), False, URL(\'default\',\'most_uploaded\')),\n\tredirect(URL(\'viewfiles\',args=files.project_id))\n"""\ndef zip():\n\tproject=db.project(request.args(0,cast=int))\n\timport os\n\tos.chdir("/home/kira/web2py/applications/projectlibrary/uploads")\n\t\n#os.mkdir(str(project.id))\n\trow=db(db.files.project_id==project.id).select()\n\tfor some in row:\n\t\tos.system("tar"+" "+"-cZf"+" "+str(project.id)+".tar"+" "+some.project_file)\n\ttarget=\'/home/kira/web2py/applications/projectlibrary/uploads\'+str(project.id)\n\tmainfile=str(project.id)+".tar"\n\tredirect(URL(\'download\',args=mainfile))\n\n#\tos.system("tar \xe2\x88\x92cZf 1.tar "+target)\n#\t\tos.system("tar"+" "+"-cZf"+" "+str(project.id)+".tar"+" "+some.project_file)\n\n#\tos.system("rm -rf"+" "+str(project.id))\n\n\n#home/kira/web2py\t\n"""\ndef addfiles():\n\t\n\tform=SQLFORM(db.files)\n\tproject=db.project(request.args(0,cast=int)) or redirect(URL(\'index\'))\n\tif form.process().accepted:\n\t\tsession.flash=\'Files Added\'\n\t\tmain2=db(db.files.file_name==request.vars.file_name).select().last()\n\t\tmain2.project_id=project.id\n\t\tmain=db((db.files.file_name==request.vars.file_name) & (db.files.project_id==project.id)).select()\n\t\tv1=db((db.files.file_name==request.vars.file_name) & (db.files.project_id==project.id) &(db.files.project_version==1)).select()\n\t\tv2=db((db.files.file_name==request.vars.file_name) & (db.files.project_id==project.id) &(db.files.project_version==2)).select()\n\t\tv3=db((db.files.file_name==request.vars.file_name) & (db.files.project_id==project.id) &(db.files.project_version==3)).select()\n\t\t\n\t\tif len(main)==3:\n\t\t\tv1[0].project_file=v2[0].project_file\n\t\t\tv1[0].file_description=v2[0].file_description\n\t\t\tv2[0].file_description=v3[0].file_description\n\t\t\tv3[0].file_description=request.vars.file_description\n\t\t\tv2[0].project_file=v3[0].project_file\n\t\t\tv3[0].project_file=request.vars.project_file\n\t\t\tv1[0].update_record()\n\t\t\tv2[0].update_record()\n\t\t\tv3[0].update_record()\n\t\telif len(main)==2:\n\t\t\tif len(v1)==0:\n\t\t\t\tdb.files.insert(project_version=1,file_name=v2[0].file_name,project_file=v2[0].project_file,file_description=v2[0].file_description,project_id=project.id)\n\t\t\t\tv2[0].file_description=v3[0].file_description\n\t\t\t\tv2[0].project_file=v3[0].project_file\n\t\t\t\tv2[0].update_record()\n\t\t\t\tdb((db.files.file_name==v3[0].file_name) & (db.files.project_id==project.id) &(db.files.project_version==3)).delete()\n\t\t\t\tmain2.project_version=len(main) + 1\n\t\t\t\tmain2.update_record()\n\t\t\telif len(v2)==0:\n\t\t\t\tdb.files.insert(project_version=2,file_name=v3[0].file_name,project_file=v3[0].project_file,file_description=v3[0].file_description,project_id=project.id)\n\t\t\t\tdb((db.files.file_name==v3[0].file_name) & (db.files.project_id==project.id) &(db.files.project_version==3)).delete()\n\t\t\t\t\t\t\t\n\t\t\t\tmain2.project_version=len(main) + 1\n\t\t\t\tmain2.update_record()\n\t\t\telif len(v3)==0:\n\t\t\t\tmain2.project_version=len(main) + 1\n\t\t\t\tmain2.update_record()\n\t\telif len(main)==1:\n\t\t\tif len(v1)==0 and len(v2)==0:\n\t\t\t\tdb.files.insert(project_version=1,file_name=v3[0].file_name,project_file=v3[0].project_file,file_description=v3[0].file_description,project_id=project.id)\n\t\t\t\tdb((db.files.file_name==v3[0].file_name) & (db.files.project_id==project.id) &(db.files.project_version==3)).delete()\n\t\t\t\tmain2.project_version=len(main) + 1\n\t\t\t\tmain2.update_record()\n\t\t\telif len(v1)==0 and len(v3)==0:\n\t\t\t\tdb.files.insert(project_version=1,file_name=v2[0].file_name,project_file=v2[0].project_file,file_description=v2[0].file_description,project_id=project.id)\n\t\t\t\tdb((db.files.file_name==v2[0].file_name) & (db.files.project_id==project.id) &(db.files.project_version==2)).delete()\n\t\t\t\tmain2.project_version=len(main) + 1\n\t\t\t\tmain2.update_record()\n\t\t\t\t\n\t\t\telif len(v2)==0 and len(v3)==0:\n\t\t\t\tmain2.project_version=len(main) + 1\n\t\t\t\tmain2.update_record()\n\t\t\t\t\n\t\telse:\n\t\t\tmain2.project_version=len(main) + 1\n\t\t\tmain2.update_record()\n\t\trow1=db(db.auth_user.email==auth.user.email).select()\n\t\trow1[0].upload_count = row1[0].upload_count + 1\n\t\trow1[0].update_record()\n\t\tdb(db.files.project_version==0).delete()\n\t\tredirect(URL(\'viewfiles\',args=project.id))\n\treturn dict(project=project,form=form)\n\ndef oldproject():\n\trow=db(db.allowed_users.other_email==auth.user.email).select()\n\t\t\n\treturn dict(row=row)\n\n\t\ndef newproject():\n\tform = SQLFORM(db.project)\n\n\tif form.process().accepted:\n\t\tsome=db(db.project.project_name==request.vars.project_name).select()\n\t\trow=db(db.project.project_name==request.vars.project_name).validate_and_update(projectadmin_email=auth.user.email)\n\t\trow1=db(db.auth_user.email==auth.user.email).select()\n\t\trow1[0].upload_count = row1[0].upload_count + 1\n\t\trow1[0].update_record()\n\t\tdb.flak.insert(user_id=auth.user.id,project_id=db().select(db.project.id).last())\n\t\tredirect(URL(\'project_page\',args=some[0].id))\n\treturn dict(form=form)\n\ndef category():\n\tform = db().select(db.project.ALL, orderby=db.project.project_name)\n\treturn dict(form=form)\n\ndef listofprojects():\n\tform =db(db.project.category==request.args(0,cast=str)).select()\n\treturn dict(form=form)\n\ndef most_uploaded():\n\tform = db().select(db.auth_user.ALL)\n\treturn dict(form=form)\n\n\ndef most_rated():\n\tform = db().select(db.project.ALL)\n\treturn dict(form=form)\n\ndef most_commented():\n\tform = db().select(db.project.ALL)\n\treturn dict(form=form)\n\ndef userprojects():\n\tprojects=db(db.project.projectadmin_email==auth.user.email).select()\n\treturn dict(projects=projects)\ndef download_func3():\n\t\n\tmain=db((db.files.project_id==request.args(0,cast=int)) & (db.files.project_version==3)).select()\n\t\n\tproject = db.project(request.args(0,cast=int)) or redirect(URL(\'index\'))\n\tproject.num_downloads=project.num_downloads + 1\n\tproject.update_record()\n\tcan=db(db.flak.project_id==project.id).select()\n\tif len(can)!=0:\n\t\n\t\tcan[0].download_flag=True\n\t\tcan[0].all_flag=True\n\t\tcan[0].update_record()\n\n\tredirect(URL(\'download\',args=main[0].project_file))\ndef download_func2():\n\t\n\tmain=db((db.files.project_id==request.args(0,cast=int)) & (db.files.project_version==2)).select()\n\t\n\tproject = db.project(request.args(0,cast=int)) or redirect(URL(\'index\'))\n\tproject.num_downloads=project.num_downloads + 1\n\tproject.update_record()\n\tcan=db(db.flak.project_id==project.id).select()\n\tif len(can)!=0:\n\t\tcan[0].download_flag=True\n\t\tcan[0].all_flag=True\n\t\tcan[0].update_record()\n\n\tredirect(URL(\'download\',args=main[0].project_file))\ndef download_func1():\n\t\n\tmain=db((db.files.project_id==request.args(0,cast=int)) & (db.files.project_version==1)).select()\n\t\n\tproject = db.project(request.args(0,cast=int)) or redirect(URL(\'index\'))\n\tproject.num_downloads=project.num_downloads + 1\n\tproject.update_record()\n\tcan=db(db.flak.project_id==project.id).select()\n\tif len(can)!=0:\n\t\tcan[0].download_flag=True\n\t\tcan[0].all_flag=True\n\t\tcan[0].update_record()\n\n\tredirect(URL(\'download\',args=main[0].project_file))\n\n\ndef mostdownload():\n\tform=db().select(db.project.ALL)\n\treturn dict(form=form)\n"""\ndef clear():\n\tdb.project.truncate()\n\tdb.auth_user.truncate()\n\tdb.comments.truncate()\n\tdb.flak.truncate()\n\tdb.subscribe.truncate()\n\tdb.allowed_users.truncate()\n\tdb.files.truncate()\n\tdb.kolect.truncate()\n\n\treturn dict()\n"""\n\n@auth.requires_login()\ndef delproject():\n\t\n\tproject = db.project(request.args(0,cast=int)) or redirect(URL(\'index\'))\n\n\tdb(db.allowed_users.project_name==project.project_name).delete()\n\tdb(request.args(0,cast=int)==db.project.id).delete()\n\tsession.flash = \'Project deleted\'\n\tredirect(URL(\'editprojects\'))\n\n\n@auth.requires_login()\ndef change_project():\n\tproject = db.project(request.args(0,cast=int))\n\t\n\tform = SQLFORM.factory(\n\t\t\tField(\'description\',type=\'text\',default=project.description),\n\t\t\tField(\'projectadmin_email\',writable=False,readable=False,default=auth.user.email),\n\t\t\tField(\'project_pic\',type=\'upload\',uploadfolder=\'uploads\'),\n\t\t\tField(\'type_of_project\',requires=IS_IN_SET([\'Course\',\'Thesis\',\'Research Paper\',\'MSIT\',\'Other\']),default=project.type_of_project),\n\t\t\tField(\'category\',requires=IS_IN_SET([\'Audio & Video\',\'Business & Enterprise\',\'Communications\',\'Development\',\'Home & Education\',\'Games\',\'Graphics\',\'Science & Engineering\',\'Websites\',\'Others\']),default=project.category),\n\t\t\tField(\'project_admin_year\',requires=IS_IN_SET([\'BTECH\',\'MS\',\'MTECH\',\'PHD\']),default=project.project_admin_year)\n\t\t\n\t\t\t)\n\tif form.process().accepted:\n\t\tsession.flash=\'Project Details Updated\'\n\t\tdb(db.project.id==request.args(0,cast=int)).update(project_pic=form.vars.project_pic,description=form.vars.description,type_of_project=form.vars.type_of_project,category=form.vars.category,project_admin_year=form.vars.project_admin_year)\n\t\tredirect(URL(\'change_project\',args=project.id))\n\treturn dict(form=form,project=project)\n\ndef project_page():\n\tproject = db.project(request.args(0,cast=int)) or redirect(URL(\'index\'))\n\tdb.comments.project_id.default = project.id\n\tform = SQLFORM(db.comments)\n\tcomments = db(db.comments.project_id==project.id).select()\n\treturn dict(project=project, comments=comments, form=form)\n\n@auth.requires_login()\ndef commentandrate():\n\tproject = db.project(request.args(0,cast=int)) or redirect(URL(\'index\'))\n\tdb.comments.project_id.default = project.id\n\tform = SQLFORM(db.comments)\n\tform1= SQLFORM.factory(\n\t\tField(\'rating\',type=\'integer\',requires=IS_IN_SET([1,2,3,4,5])))\n\t\n\tif form.process().accepted:\n\t\trow=db(db.comments.comment_c==request.vars.comment_c).select().last()\n\t\trow.commenter_c=auth.user.email\n\t\trow.update_record()\n\t\t\n\t\tcan=db(db.flak.project_id==project.id).select()\n\t\tif len(can)!=0:\n\t\t\tcan[0].comments_flag=True\n\t\t\tcan[0].all_flag=True\n\t\t\tcan[0].update_record()\n\t\tresponse.flash = \'your comment is posted\'\n\t\n\tif form1.process().accepted:\n\t\tresponse.flash = \'your rating has been added\'\n\t\tproject.num_rating = project.num_rating + 1\n\t\tproject.total_rating = int(project.total_rating) + int(request.vars.rating)\n\t\tcan=db(db.flak.project_id==project.id).select()\n\t\tif len(can)!=0:\n\t\t\tcan[0].rating_flag=True\n\t\t\tcan[0].all_flag=True\n\t\t\tcan[0].update_record()\n\t\tproject.update_record()\n\t\n\tcomments = db(db.comments.project_id==project.id).select()\n\t\n\treturn dict(project=project, comments=comments, form=form,form1=form1)\n\ndef collo_error():\n\treturn dict()\n\ndef confirm_delcollo():\n\t\n\tuser = db.allowed_users(request.args(0,cast=int)) or redirect(URL(\'index\'))\n\tproject=db(db.allowed_users.project_name==user.project_name).select()\n\tdb(request.args(0,cast=int)==db.allowed_users.id).delete()\n\tredirect(URL(\'project_page\',args=project[0].id))\n\n\n\ndef delcollo():\n\n\tproject = db.project(request.args(0,cast=int))\n\trow=db(db.allowed_users.project_name==project.project_name).select()\n\n\tif auth.user:\n\t\tif auth.user.email==project.projectadmin_email:\n\t\t\treturn dict(row=row,project=project)\n\telse:\n\t\tredirect(URL(\'collo_error\',args=project.id))\n\n\n@auth.requires_login()\ndef addcollo():\n\t\n\tproject = db.project(request.args(0,cast=int)) or redirect(URL(\'index\'))\n\t\n\n\tform1 = SQLFORM.factory(\n\t\tField(\'add_collaborator\',type=\'string\',requires=IS_EMAIL())\n\t\t)\n \n\trow1=db(db.allowed_users.project_name==project.project_name).select()\n\t\n\tif form1.process().accepted:\n\t\tdb.allowed_users.insert(other_email=request.vars.add_collaborator)\n\t\trow=db(db.allowed_users.other_email==request.vars.add_collaborator).select().last()\n\t\trow.project_name=project.project_name\n\t\trow.projectadmin_email=auth.user.email\n\t\trow.update_record()\n\t\tredirect(URL(\'project_page\',args=project.id))\n\t\t\n\n\tif auth.user.email==project.projectadmin_email:\n\t\t\treturn dict(form1=form1,project=project,row1=row1)\n\telse:\n\t\t\tredirect(URL(\'collo_error\',args=project.id))\n\t\n\n\n\n\n\t\n"""\ndef login():\n\tform=SQLFORM.factory(\n\t\t\tField(\'user\',type=\'string\',requires=IS_NOT_EMPTY()),\n\t\t\tField(\'password\',type=\'password\'),\n\t\t\tField(\'dateofbirth\',type=\'date\')\n\t)\n\tif form.process().accepted:\n\t\trow=db(db.register.Username==request.vars.user).select()\n\t\tif request.vars.password==row[0][\'Password\']:\n\t\t\tredirect(URL(\'upload\'))\n\t\telse:\n\t\t\tresponse.flash=\'Invalid username or password\'\n\telse:\n\t \tresponse.flash=\'Error\'\n\n\treturn dict(form=form)\n\n"""\n\nresponse._vars=response._caller(ma)\n'
p7
sS'snapshot'
p8
(dp9
S'exception'
p10
(dp11
S'__hash__'
p12
S"<method-wrapper '__hash__' of exceptions.TypeError object>"
p13
sS'__setattr__'
p14
S"<method-wrapper '__setattr__' of exceptions.TypeError object>"
p15
sS'__reduce_ex__'
p16
S'<built-in method __reduce_ex__ of exceptions.TypeError object>'
p17
sS'__getslice__'
p18
S"<method-wrapper '__getslice__' of exceptions.TypeError object>"
p19
sS'__getitem__'
p20
S"<method-wrapper '__getitem__' of exceptions.TypeError object>"
p21
sS'__setstate__'
p22
S'<built-in method __setstate__ of exceptions.TypeError object>'
p23
sS'__reduce__'
p24
S'<built-in method __reduce__ of exceptions.TypeError object>'
p25
sS'__str__'
p26
S"<method-wrapper '__str__' of exceptions.TypeError object>"
p27
sS'__format__'
p28
S'<built-in method __format__ of exceptions.TypeError object>'
p29
sS'__getattribute__'
p30
S"<method-wrapper '__getattribute__' of exceptions.TypeError object>"
p31
sS'__class__'
p32
S"<type 'exceptions.TypeError'>"
p33
sS'__unicode__'
p34
S'<built-in method __unicode__ of exceptions.TypeError object>'
p35
sS'__delattr__'
p36
S"<method-wrapper '__delattr__' of exceptions.TypeError object>"
p37
sS'__subclasshook__'
p38
S'<built-in method __subclasshook__ of type object>'
p39
sS'__repr__'
p40
S"<method-wrapper '__repr__' of exceptions.TypeError object>"
p41
sS'args'
p42
S'("\'bool\' object is not callable",)'
p43
sS'__dict__'
p44
S'{}'
p45
sS'__sizeof__'
p46
S'<built-in method __sizeof__ of exceptions.TypeError object>'
p47
sS'__doc__'
p48
S"'Inappropriate argument type.'"
p49
sS'__init__'
p50
S"<method-wrapper '__init__' of exceptions.TypeError object>"
p51
sS'__new__'
p52
S'<built-in method __new__ of type object>'
p53
ssS'evalue'
p54
S"'bool' object is not callable"
p55
sS'request'
p56
cgluon.html
XML_unpickle
p57
(S's\xb5\\\x00\x00<div><table><tr><td style="font-weight:bold;vertical-align:top">ajax</td><td valign="top">:</td><td><div>False</div></td></tr><tr><td style="font-weight:bold;vertical-align:top">application</td><td valign="top">:</td><td><div>projectlibrary</div></td></tr><tr><td style="font-weight:bold;vertical-align:top">args</td><td valign="top">:</td><td><div><table><tr><td><div>1</div></td></tr></table></div></td></tr><tr><td style="font-weight:bold;vertical-align:top">body</td><td valign="top">:</td><td><div>&lt;open file &#x27;&lt;fdopen&gt;&#x27;, mode &#x27;w+b&#x27; at 0xaed35020&gt;</div></td></tr><tr><td style="font-weight:bold;vertical-align:top">cid</td><td valign="top">:</td><td><div>None</div></td></tr><tr><td style="font-weight:bold;vertical-align:top">client</td><td valign="top">:</td><td><div>127.0.0.1</div></td></tr><tr><td style="font-weight:bold;vertical-align:top">controller</td><td valign="top">:</td><td><div>default</div></td></tr><tr><td style="font-weight:bold;vertical-align:top">cookies</td><td valign="top">:</td><td><div><table><tr><td style="font-weight:bold;vertical-align:top">session_id_admin</td><td valign="top">:</td><td><div>127.0.0.1-c508d37a-ef72-4294-96fd-5b9e5341eadb<table><tr><td style="font-weight:bold;vertical-align:top">comment</td><td valign="top">:</td><td><div></div></td></tr><tr><td style="font-weight:bold;vertical-align:top">domain</td><td valign="top">:</td><td><div></div></td></tr><tr><td style="font-weight:bold;vertical-align:top">expires</td><td valign="top">:</td><td><div></div></td></tr><tr><td style="font-weight:bold;vertical-align:top">httponly</td><td valign="top">:</td><td><div></div></td></tr><tr><td style="font-weight:bold;vertical-align:top">max-age</td><td valign="top">:</td><td><div></div></td></tr><tr><td style="font-weight:bold;vertical-align:top">path</td><td valign="top">:</td><td><div></div></td></tr><tr><td style="font-weight:bold;vertical-align:top">secure</td><td valign="top">:</td><td><div></div></td></tr><tr><td style="font-weight:bold;vertical-align:top">version</td><td valign="top">:</td><td><div></div></td></tr></table></div></td></tr><tr><td style="font-weight:bold;vertical-align:top">session_id_projectlibrary</td><td valign="top">:</td><td><div>127.0.0.1-c5f99d30-b00d-4805-aa53-7aab88ffcdbc<table><tr><td style="font-weight:bold;vertical-align:top">comment</td><td valign="top">:</td><td><div></div></td></tr><tr><td style="font-weight:bold;vertical-align:top">domain</td><td valign="top">:</td><td><div></div></td></tr><tr><td style="font-weight:bold;vertical-align:top">expires</td><td valign="top">:</td><td><div></div></td></tr><tr><td style="font-weight:bold;vertical-align:top">httponly</td><td valign="top">:</td><td><div></div></td></tr><tr><td style="font-weight:bold;vertical-align:top">max-age</td><td valign="top">:</td><td><div></div></td></tr><tr><td style="font-weight:bold;vertical-align:top">path</td><td valign="top">:</td><td><div></div></td></tr><tr><td style="font-weight:bold;vertical-align:top">secure</td><td valign="top">:</td><td><div></div></td></tr><tr><td style="font-weight:bold;vertical-align:top">version</td><td valign="top">:</td><td><div></div></td></tr></table></div></td></tr><tr><td style="font-weight:bold;vertical-align:top">session_id_welcome</td><td valign="top">:</td><td><div>127.0.0.1-95c88db7-8890-4c06-a32d-2b3936b36b5e<table><tr><td style="font-weight:bold;vertical-align:top">comment</td><td valign="top">:</td><td><div></div></td></tr><tr><td style="font-weight:bold;vertical-align:top">domain</td><td valign="top">:</td><td><div></div></td></tr><tr><td style="font-weight:bold;vertical-align:top">expires</td><td valign="top">:</td><td><div></div></td></tr><tr><td style="font-weight:bold;vertical-align:top">httponly</td><td valign="top">:</td><td><div></div></td></tr><tr><td style="font-weight:bold;vertical-align:top">max-age</td><td valign="top">:</td><td><div></div></td></tr><tr><td style="font-weight:bold;vertical-align:top">path</td><td valign="top">:</td><td><div></div></td></tr><tr><td style="font-weight:bold;vertical-align:top">secure</td><td valign="top">:</td><td><div></div></td></tr><tr><td style="font-weight:bold;vertical-align:top">version</td><td valign="top">:</td><td><div></div></td></tr></table></div></td></tr></table></div></td></tr><tr><td style="font-weight:bold;vertical-align:top">env</td><td valign="top">:</td><td><div><table><tr><td style="font-weight:bold;vertical-align:top">app_folders</td><td valign="top">:</td><td><div>set([&#x27;/home/kira/web2py/applications/admin/&#x27;, &#x27;/home/kira/web2py/applications/welcome/&#x27;, &#x27;/home/kira/web2py/applications/projectlibrary/&#x27;])</div></td></tr><tr><td style="font-weight:bold;vertical-align:top">applications_parent</td><td valign="top">:</td><td><div>/home/kira/web2py</div></td></tr><tr><td style="font-weight:bold;vertical-align:top">cmd_args</td><td valign="top">:</td><td><div><table></table></div></td></tr><tr><td style="font-weight:bold;vertical-align:top">cmd_options</td><td valign="top">:</td><td><div>&lt;Values at 0x95d2e6c: {&#x27;verbose&#x27;: False, &#x27;ip&#x27;: &#x27;127.0.0.1&#x27;, &#x27;with_scheduler&#x27;: False, &#x27;ips&#x27;: [], &#x27;shutdown_timeout&#x27;: 5, &#x27;taskbar&#x27;: False, &#x27;port&#x27;: 8000, &#x27;maxthreads&#x27;: None, &#x27;softcron&#x27;: False, &#x27;server_name&#x27;: &#x27;kira-Ideapad-Z570&#x27;, &#x27;bpython&#x27;: False, &#x27;nogui&#x27;: False, &#x27;pid_filename&#x27;: &#x27;httpserver.pid&#x27;, &#x27;extcron&#x27;: False, &#x27;runcron&#x27;: False, &#x27;run_system_tests&#x27;: False, &#x27;test&#x27;: None, &#x27;folder&#x27;: &#x27;/home/kira/web2py&#x27;, &#x27;config&#x27;: &#x27;&#x27;, &#x27;import_models&#x27;: False, &#x27;winservice&#x27;: &#x27;&#x27;, &#x27;shell&#x27;: None, &#x27;run&#x27;: &#x27;&#x27;, &#x27;log_filename&#x27;: &#x27;httpserver.log&#x27;, &#x27;debuglevel&#x27;: 30, &#x27;args&#x27;: [&#x27;&#x27;], &#x27;socket_timeout&#x27;: 5, &#x27;ssl_ca_certificate&#x27;: None, &#x27;scheduler&#x27;: None, &#x27;profiler_filename&#x27;: None, &#x27;ssl_private_key&#x27;: &#x27;&#x27;, &#x27;scheduler_groups&#x27;: None, &#x27;password&#x27;: &#x27;asd&#x27;, &#x27;request_queue_size&#x27;: 5, &#x27;ssl_certificate&#x27;: &#x27;&#x27;, &#x27;cronjob&#x27;: False, &#x27;numthreads&#x27;: None, &#x27;quiet&#x27;: False, &#x27;interfaces&#x27;: None, &#x27;minthreads&#x27;: None, &#x27;timeout&#x27;: 10, &#x27;plain&#x27;: False, &#x27;nobanner&#x27;: False}&gt;</div></td></tr><tr><td style="font-weight:bold;vertical-align:top">content_length</td><td valign="top">:</td><td><div>656</div></td></tr><tr><td style="font-weight:bold;vertical-align:top">content_type</td><td valign="top">:</td><td><div>multipart/form-data; boundary=---------------------------3398895329868536471901264157</div></td></tr><tr><td style="font-weight:bold;vertical-align:top">db_sessions</td><td valign="top">:</td><td><div>set([])</div></td></tr><tr><td style="font-weight:bold;vertical-align:top">debugging</td><td valign="top">:</td><td><div>False</div></td></tr><tr><td style="font-weight:bold;vertical-align:top">gluon_parent</td><td valign="top">:</td><td><div>/home/kira/web2py</div></td></tr><tr><td style="font-weight:bold;vertical-align:top">http_accept</td><td valign="top">:</td><td><div>text/html,application/xhtml+xml,application/xml;q=0.9,*/*;q=0.8</div></td></tr><tr><td style="font-weight:bold;vertical-align:top">http_accept_encoding</td><td valign="top">:</td><td><div>gzip, deflate</div></td></tr><tr><td style="font-weight:bold;vertical-align:top">http_accept_language</td><td valign="top">:</td><td><div>en-us,en;q=0.5</div></td></tr><tr><td style="font-weight:bold;vertical-align:top">http_connection</td><td valign="top">:</td><td><div>keep-alive</div></td></tr><tr><td style="font-weight:bold;vertical-align:top">http_content_length</td><td valign="top">:</td><td><div>656</div></td></tr><tr><td style="font-weight:bold;vertical-align:top">http_content_type</td><td valign="top">:</td><td><div>multipart/form-data; boundary=---------------------------3398895329868536471901264157</div></td></tr><tr><td style="font-weight:bold;vertical-align:top">http_cookie</td><td valign="top">:</td><td><div>session_id_welcome=127.0.0.1-95c88db7-8890-4c06-a32d-2b3936b36b5e; session_id_admin=127.0.0.1-c508d37a-ef72-4294-96fd-5b9e5341eadb; session_id_projectlibrary=127.0.0.1-c5f99d30-b00d-4805-aa53-7aab88ffcdbc</div></td></tr><tr><td style="font-weight:bold;vertical-align:top">http_host</td><td valign="top">:</td><td><div>127.0.0.1:8000</div></td></tr><tr><td style="font-weight:bold;vertical-align:top">http_referer</td><td valign="top">:</td><td><div>http://127.0.0.1:8000/projectlibrary/default/ma/1</div></td></tr><tr><td style="font-weight:bold;vertical-align:top">http_user_agent</td><td valign="top">:</td><td><div>Mozilla/5.0 (X11; Ubuntu; Linux i686; rv:11.0) Gecko/20100101 Firefox/11.0</div></td></tr><tr><td style="font-weight:bold;vertical-align:top">is_jython</td><td valign="top">:</td><td><div>False</div></td></tr><tr><td style="font-weight:bold;vertical-align:top">is_pypy</td><td valign="top">:</td><td><div>False</div></td></tr><tr><td style="font-weight:bold;vertical-align:top">local_hosts</td><td valign="top">:</td><td><div><table><tr><td><div>kira-Ideapad-Z570</div></td></tr><tr><td><div>::1</div></td></tr><tr><td><div>127.0.1.1</div></td></tr><tr><td><div>::ffff:127.0.0.1</div></td></tr><tr><td><div>127.0.0.1</div></td></tr></table></div></td></tr><tr><td style="font-weight:bold;vertical-align:top">path_info</td><td valign="top">:</td><td><div>/projectlibrary/default/ma/1</div></td></tr><tr><td style="font-weight:bold;vertical-align:top">query_string</td><td valign="top">:</td><td><div></div></td></tr><tr><td style="font-weight:bold;vertical-align:top">remote_addr</td><td valign="top">:</td><td><div>127.0.0.1</div></td></tr><tr><td style="font-weight:bold;vertical-align:top">remote_port</td><td valign="top">:</td><td><div>46850</div></td></tr><tr><td style="font-weight:bold;vertical-align:top">request_method</td><td valign="top">:</td><td><div>POST</div></td></tr><tr><td style="font-weight:bold;vertical-align:top">request_uri</td><td valign="top">:</td><td><div>/projectlibrary/default/ma/1</div></td></tr><tr><td style="font-weight:bold;vertical-align:top">script_name</td><td valign="top">:</td><td><div></div></td></tr><tr><td style="font-weight:bold;vertical-align:top">server_name</td><td valign="top">:</td><td><div>kira-Ideapad-Z570</div></td></tr><tr><td style="font-weight:bold;vertical-align:top">server_port</td><td valign="top">:</td><td><div>8000</div></td></tr><tr><td style="font-weight:bold;vertical-align:top">server_protocol</td><td valign="top">:</td><td><div>HTTP/1.1</div></td></tr><tr><td style="font-weight:bold;vertical-align:top">server_software</td><td valign="top">:</td><td><div>Rocket 1.2.6</div></td></tr><tr><td style="font-weight:bold;vertical-align:top">web2py_path</td><td valign="top">:</td><td><div>/home/kira/web2py</div></td></tr><tr><td style="font-weight:bold;vertical-align:top">web2py_version</td><td valign="top">:</td><td><div><table><tr><td><div>2</div></td></tr><tr><td><div>4</div></td></tr><tr><td><div>2</div></td></tr><tr><td><div>stable</div></td></tr><tr><td><div>datetime.datetime(2013, 3, 4, 3, 26, 21)</div></td></tr></table></div></td></tr><tr><td style="font-weight:bold;vertical-align:top">wsgi_errors</td><td valign="top">:</td><td><div>&lt;open file &#x27;&lt;stderr&gt;&#x27;, mode &#x27;w&#x27; at 0xb72c20d0&gt;</div></td></tr><tr><td style="font-weight:bold;vertical-align:top">wsgi_file_wrapper</td><td valign="top">:</td><td><div>&lt;class wsgiref.util.FileWrapper at 0x955fb9c&gt;</div></td></tr><tr><td style="font-weight:bold;vertical-align:top">wsgi_input</td><td valign="top">:</td><td><div>&lt;socket._fileobject object at 0xae7bfaec&gt;</div></td></tr><tr><td style="font-weight:bold;vertical-align:top">wsgi_multiprocess</td><td valign="top">:</td><td><div>False</div></td></tr><tr><td style="font-weight:bold;vertical-align:top">wsgi_multithread</td><td valign="top">:</td><td><div>True</div></td></tr><tr><td style="font-weight:bold;vertical-align:top">wsgi_run_once</td><td valign="top">:</td><td><div>False</div></td></tr><tr><td style="font-weight:bold;vertical-align:top">wsgi_url_scheme</td><td valign="top">:</td><td><div>http</div></td></tr><tr><td style="font-weight:bold;vertical-align:top">wsgi_version</td><td valign="top">:</td><td><div><table><tr><td><div>1</div></td></tr><tr><td><div>0</div></td></tr></table></div></td></tr></table></div></td></tr><tr><td style="font-weight:bold;vertical-align:top">extension</td><td valign="top">:</td><td><div>html</div></td></tr><tr><td style="font-weight:bold;vertical-align:top">folder</td><td valign="top">:</td><td><div>/home/kira/web2py/applications/projectlibrary/</div></td></tr><tr><td style="font-weight:bold;vertical-align:top">function</td><td valign="top">:</td><td><div>ma</div></td></tr><tr><td style="font-weight:bold;vertical-align:top">get_vars</td><td valign="top">:</td><td><div><table></table></div></td></tr><tr><td style="font-weight:bold;vertical-align:top">global_settings</td><td valign="top">:</td><td><div><table><tr><td style="font-weight:bold;vertical-align:top">app_folders</td><td valign="top">:</td><td><div>set([&#x27;/home/kira/web2py/applications/admin/&#x27;, &#x27;/home/kira/web2py/applications/welcome/&#x27;, &#x27;/home/kira/web2py/applications/projectlibrary/&#x27;])</div></td></tr><tr><td style="font-weight:bold;vertical-align:top">applications_parent</td><td valign="top">:</td><td><div>/home/kira/web2py</div></td></tr><tr><td style="font-weight:bold;vertical-align:top">cmd_args</td><td valign="top">:</td><td><div><table></table></div></td></tr><tr><td style="font-weight:bold;vertical-align:top">cmd_options</td><td valign="top">:</td><td><div>&lt;Values at 0x95d2e6c: {&#x27;verbose&#x27;: False, &#x27;ip&#x27;: &#x27;127.0.0.1&#x27;, &#x27;with_scheduler&#x27;: False, &#x27;ips&#x27;: [], &#x27;shutdown_timeout&#x27;: 5, &#x27;taskbar&#x27;: False, &#x27;port&#x27;: 8000, &#x27;maxthreads&#x27;: None, &#x27;softcron&#x27;: False, &#x27;server_name&#x27;: &#x27;kira-Ideapad-Z570&#x27;, &#x27;bpython&#x27;: False, &#x27;nogui&#x27;: False, &#x27;pid_filename&#x27;: &#x27;httpserver.pid&#x27;, &#x27;extcron&#x27;: False, &#x27;runcron&#x27;: False, &#x27;run_system_tests&#x27;: False, &#x27;test&#x27;: None, &#x27;folder&#x27;: &#x27;/home/kira/web2py&#x27;, &#x27;config&#x27;: &#x27;&#x27;, &#x27;import_models&#x27;: False, &#x27;winservice&#x27;: &#x27;&#x27;, &#x27;shell&#x27;: None, &#x27;run&#x27;: &#x27;&#x27;, &#x27;log_filename&#x27;: &#x27;httpserver.log&#x27;, &#x27;debuglevel&#x27;: 30, &#x27;args&#x27;: [&#x27;&#x27;], &#x27;socket_timeout&#x27;: 5, &#x27;ssl_ca_certificate&#x27;: None, &#x27;scheduler&#x27;: None, &#x27;profiler_filename&#x27;: None, &#x27;ssl_private_key&#x27;: &#x27;&#x27;, &#x27;scheduler_groups&#x27;: None, &#x27;password&#x27;: &#x27;asd&#x27;, &#x27;request_queue_size&#x27;: 5, &#x27;ssl_certificate&#x27;: &#x27;&#x27;, &#x27;cronjob&#x27;: False, &#x27;numthreads&#x27;: None, &#x27;quiet&#x27;: False, &#x27;interfaces&#x27;: None, &#x27;minthreads&#x27;: None, &#x27;timeout&#x27;: 10, &#x27;plain&#x27;: False, &#x27;nobanner&#x27;: False}&gt;</div></td></tr><tr><td style="font-weight:bold;vertical-align:top">db_sessions</td><td valign="top">:</td><td><div>set([])</div></td></tr><tr><td style="font-weight:bold;vertical-align:top">debugging</td><td valign="top">:</td><td><div>False</div></td></tr><tr><td style="font-weight:bold;vertical-align:top">gluon_parent</td><td valign="top">:</td><td><div>/home/kira/web2py</div></td></tr><tr><td style="font-weight:bold;vertical-align:top">is_jython</td><td valign="top">:</td><td><div>False</div></td></tr><tr><td style="font-weight:bold;vertical-align:top">is_pypy</td><td valign="top">:</td><td><div>False</div></td></tr><tr><td style="font-weight:bold;vertical-align:top">local_hosts</td><td valign="top">:</td><td><div><table><tr><td><div>kira-Ideapad-Z570</div></td></tr><tr><td><div>::1</div></td></tr><tr><td><div>127.0.1.1</div></td></tr><tr><td><div>::ffff:127.0.0.1</div></td></tr><tr><td><div>127.0.0.1</div></td></tr></table></div></td></tr><tr><td style="font-weight:bold;vertical-align:top">web2py_version</td><td valign="top">:</td><td><div><table><tr><td><div>2</div></td></tr><tr><td><div>4</div></td></tr><tr><td><div>2</div></td></tr><tr><td><div>stable</div></td></tr><tr><td><div>datetime.datetime(2013, 3, 4, 3, 26, 21)</div></td></tr></table></div></td></tr></table></div></td></tr><tr><td style="font-weight:bold;vertical-align:top">is_https</td><td valign="top">:</td><td><div>False</div></td></tr><tr><td style="font-weight:bold;vertical-align:top">is_local</td><td valign="top">:</td><td><div>True</div></td></tr><tr><td style="font-weight:bold;vertical-align:top">is_restful</td><td valign="top">:</td><td><div>False</div></td></tr><tr><td style="font-weight:bold;vertical-align:top">now</td><td valign="top">:</td><td><div>datetime.datetime(2013, 4, 19, 15, 44, 9, 462622)</div></td></tr><tr><td style="font-weight:bold;vertical-align:top">post_vars</td><td valign="top">:</td><td><div><table><tr><td style="font-weight:bold;vertical-align:top">message_subject</td><td valign="top">:</td><td><div>checkmail</div></td></tr><tr><td style="font-weight:bold;vertical-align:top">message_to_staff</td><td valign="top">:</td><td><div>chekcmaila;sd;laskdlka;skdl;kasd\r\nasld ;las dask ldasl;kd; a&#x27;dk\r\nad asd</div></td></tr></table></div></td></tr><tr><td style="font-weight:bold;vertical-align:top">raw_args</td><td valign="top">:</td><td><div>1</div></td></tr><tr><td style="font-weight:bold;vertical-align:top">raw_extension</td><td valign="top">:</td><td><div>None</div></td></tr><tr><td style="font-weight:bold;vertical-align:top">url</td><td valign="top">:</td><td><div>/projectlibrary/default/ma/1</div></td></tr><tr><td style="font-weight:bold;vertical-align:top">utcnow</td><td valign="top">:</td><td><div>datetime.datetime(2013, 4, 19, 10, 14, 9, 462641)</div></td></tr><tr><td style="font-weight:bold;vertical-align:top">uuid</td><td valign="top">:</td><td><div>projectlibrary/127.0.0.1.2013-04-19.15-44-09.5697806c-7ada-49a5-9808-b64d2cb9f7b5</div></td></tr><tr><td style="font-weight:bold;vertical-align:top">vars</td><td valign="top">:</td><td><div><table><tr><td style="font-weight:bold;vertical-align:top">message_subject</td><td valign="top">:</td><td><div>checkmail</div></td></tr><tr><td style="font-weight:bold;vertical-align:top">message_to_staff</td><td valign="top">:</td><td><div>chekcmaila;sd;laskdlka;skdl;kasd\r\nasld ;las dask ldasl;kd; a&#x27;dk\r\nad asd</div></td></tr></table></div></td></tr><tr><td style="font-weight:bold;vertical-align:top">wsgi</td><td valign="top">:</td><td><div><table><tr><td style="font-weight:bold;vertical-align:top">environ</td><td valign="top">:</td><td><div><table><tr><td style="font-weight:bold;vertical-align:top">CONTENT_LENGTH</td><td valign="top">:</td><td><div>656</div></td></tr><tr><td style="font-weight:bold;vertical-align:top">CONTENT_TYPE</td><td valign="top">:</td><td><div>multipart/form-data; boundary=---------------------------3398895329868536471901264157</div></td></tr><tr><td style="font-weight:bold;vertical-align:top">HTTP_ACCEPT</td><td valign="top">:</td><td><div>text/html,application/xhtml+xml,application/xml;q=0.9,*/*;q=0.8</div></td></tr><tr><td style="font-weight:bold;vertical-align:top">HTTP_ACCEPT_ENCODING</td><td valign="top">:</td><td><div>gzip, deflate</div></td></tr><tr><td style="font-weight:bold;vertical-align:top">HTTP_ACCEPT_LANGUAGE</td><td valign="top">:</td><td><div>en-us,en;q=0.5</div></td></tr><tr><td style="font-weight:bold;vertical-align:top">HTTP_CONNECTION</td><td valign="top">:</td><td><div>keep-alive</div></td></tr><tr><td style="font-weight:bold;vertical-align:top">HTTP_CONTENT_LENGTH</td><td valign="top">:</td><td><div>656</div></td></tr><tr><td style="font-weight:bold;vertical-align:top">HTTP_CONTENT_TYPE</td><td valign="top">:</td><td><div>multipart/form-data; boundary=---------------------------3398895329868536471901264157</div></td></tr><tr><td style="font-weight:bold;vertical-align:top">HTTP_COOKIE</td><td valign="top">:</td><td><div>session_id_welcome=127.0.0.1-95c88db7-8890-4c06-a32d-2b3936b36b5e; session_id_admin=127.0.0.1-c508d37a-ef72-4294-96fd-5b9e5341eadb; session_id_projectlibrary=127.0.0.1-c5f99d30-b00d-4805-aa53-7aab88ffcdbc</div></td></tr><tr><td style="font-weight:bold;vertical-align:top">HTTP_HOST</td><td valign="top">:</td><td><div>127.0.0.1:8000</div></td></tr><tr><td style="font-weight:bold;vertical-align:top">HTTP_REFERER</td><td valign="top">:</td><td><div>http://127.0.0.1:8000/projectlibrary/default/ma/1</div></td></tr><tr><td style="font-weight:bold;vertical-align:top">HTTP_USER_AGENT</td><td valign="top">:</td><td><div>Mozilla/5.0 (X11; Ubuntu; Linux i686; rv:11.0) Gecko/20100101 Firefox/11.0</div></td></tr><tr><td style="font-weight:bold;vertical-align:top">PATH_INFO</td><td valign="top">:</td><td><div>/projectlibrary/default/ma/1</div></td></tr><tr><td style="font-weight:bold;vertical-align:top">QUERY_STRING</td><td valign="top">:</td><td><div></div></td></tr><tr><td style="font-weight:bold;vertical-align:top">REMOTE_ADDR</td><td valign="top">:</td><td><div>127.0.0.1</div></td></tr><tr><td style="font-weight:bold;vertical-align:top">REMOTE_PORT</td><td valign="top">:</td><td><div>46850</div></td></tr><tr><td style="font-weight:bold;vertical-align:top">REQUEST_METHOD</td><td valign="top">:</td><td><div>POST</div></td></tr><tr><td style="font-weight:bold;vertical-align:top">REQUEST_URI</td><td valign="top">:</td><td><div>/projectlibrary/default/ma/1</div></td></tr><tr><td style="font-weight:bold;vertical-align:top">SCRIPT_NAME</td><td valign="top">:</td><td><div></div></td></tr><tr><td style="font-weight:bold;vertical-align:top">SERVER_NAME</td><td valign="top">:</td><td><div>kira-Ideapad-Z570</div></td></tr><tr><td style="font-weight:bold;vertical-align:top">SERVER_PORT</td><td valign="top">:</td><td><div>8000</div></td></tr><tr><td style="font-weight:bold;vertical-align:top">SERVER_PROTOCOL</td><td valign="top">:</td><td><div>HTTP/1.1</div></td></tr><tr><td style="font-weight:bold;vertical-align:top">SERVER_SOFTWARE</td><td valign="top">:</td><td><div>Rocket 1.2.6</div></td></tr><tr><td style="font-weight:bold;vertical-align:top">wsgi.errors</td><td valign="top">:</td><td><div>&lt;open file &#x27;&lt;stderr&gt;&#x27;, mode &#x27;w&#x27; at 0xb72c20d0&gt;</div></td></tr><tr><td style="font-weight:bold;vertical-align:top">wsgi.file_wrapper</td><td valign="top">:</td><td><div>&lt;class wsgiref.util.FileWrapper at 0x955fb9c&gt;</div></td></tr><tr><td style="font-weight:bold;vertical-align:top">wsgi.input</td><td valign="top">:</td><td><div>&lt;open file &#x27;&lt;fdopen&gt;&#x27;, mode &#x27;w+b&#x27; at 0xaed35020&gt;</div></td></tr><tr><td style="font-weight:bold;vertical-align:top">wsgi.multiprocess</td><td valign="top">:</td><td><div>False</div></td></tr><tr><td style="font-weight:bold;vertical-align:top">wsgi.multithread</td><td valign="top">:</td><td><div>True</div></td></tr><tr><td style="font-weight:bold;vertical-align:top">wsgi.run_once</td><td valign="top">:</td><td><div>False</div></td></tr><tr><td style="font-weight:bold;vertical-align:top">wsgi.url_scheme</td><td valign="top">:</td><td><div>http</div></td></tr><tr><td style="font-weight:bold;vertical-align:top">wsgi.version</td><td valign="top">:</td><td><div>1</div></td></tr></table></div></td></tr></table></div></td></tr></table></div>'
tRp58
sS'frames'
p59
(lp60
(dp61
S'file'
p62
S'/home/kira/web2py/gluon/restricted.py'
p63
sS'dump'
p64
(dp65
S'environment'
p66
S"{'A': <class 'gluon.html.A'>, 'Auth': <class 'gluon.tools.Auth'>, 'B': <class 'gluon.html.B'>, 'BEAUTIFY': <class 'gluon.html.BEAUTIFY'>, 'BODY': <class 'gluon.html.BODY'>, 'BR': <class 'gluon.html.BR'>, 'BUTTON': <class 'gluon.html.BUTTON'>, 'CAT': <class 'gluon.html.CAT'>, 'CENTER': <class 'gluon.html.CENTER'>, 'CLEANUP': <class 'gluon.validators.CLEANUP'>, ...}"
p67
sS'ccode'
p68
S'<code object <module> at 0x96a2920, file "/home/.../projectlibrary/controllers/default.py", line 13>'
p69
ssS'lnum'
p70
I212
sS'lines'
p71
(dp72
I207
S'    try:'
p73
sI208
S'        if isinstance(code, types.CodeType):'
p74
sI209
S'            ccode = code'
p75
sI210
S'        else:'
p76
sI211
S'            ccode = compile2(code, layer)'
p77
sI212
S'        exec ccode in environment'
p78
sI213
S'    except HTTP:'
p79
sI214
S'        raise'
p80
sI215
S'    except RestrictedError:'
p81
sI216
S'        # do not encapsulate (obfuscate) the original RestrictedError'
p82
ssS'call'
p83
S'(code=\'# -*- coding: utf-8 -*-\\n# this file is released ...=form)\\n\\n"""\\n\\nresponse._vars=response._caller(ma)\\n\', environment={\'A\': <class \'gluon.html.A\'>, \'Auth\': <class \'gluon.tools.Auth\'>, \'B\': <class \'gluon.html.B\'>, \'BEAUTIFY\': <class \'gluon.html.BEAUTIFY\'>, \'BODY\': <class \'gluon.html.BODY\'>, \'BR\': <class \'gluon.html.BR\'>, \'BUTTON\': <class \'gluon.html.BUTTON\'>, \'CAT\': <class \'gluon.html.CAT\'>, \'CENTER\': <class \'gluon.html.CENTER\'>, \'CLEANUP\': <class \'gluon.validators.CLEANUP\'>, ...}, layer=\'/home/kira/web2py/applications/projectlibrary/controllers/default.py\')'
p84
sS'func'
p85
S'restricted'
p86
sa(dp87
g62
S'/home/kira/web2py/applications/projectlibrary/controllers/default.py'
p88
sg64
(dp89
sg70
I607
sg71
(dp90
I596
S"\t\tif request.vars.password==row[0]['Password']:"
p91
sI597
S"\t\t\tredirect(URL('upload'))"
p92
sI598
S'\t\telse:'
p93
sI599
S"\t\t\tresponse.flash='Invalid username or password'"
p94
sI600
S'\telse:'
p95
sI601
S"\t \tresponse.flash='Error'"
p96
sI602
S''
sI603
S'\treturn dict(form=form)'
p97
sI604
S''
sI605
S'"""'
p98
ssg83
S'()'
p99
sg85
S'<module>'
p100
sa(dp101
g62
S'/home/kira/web2py/gluon/globals.py'
p102
sg64
(dp103
S'self'
p104
S'undefined'
p105
sS'f'
S'<function ma>'
p106
ssg70
I193
sg71
(dp107
I192
S'        self._vars = None'
p108
sI193
S'        self._caller = lambda f: f()'
p109
sI194
S'        self._view_environment = None'
p110
sI195
S'        self._custom_commit = None'
p111
sI196
S'        self._custom_rollback = None'
p112
sI197
S''
sI188
S'        self.menu = []             # used by the default view layout'
p113
sI189
S'        self.files = []            # used by web2py_ajax.html'
p114
sI190
S'        self.generic_patterns = []  # patterns to allow generic views'
p115
sI191
S"        self.delimiters = ('{{', '}}')"
p116
ssg83
S'(f=<function ma>)'
p117
sg85
S'<lambda>'
p118
sa(dp119
g62
S'/home/kira/web2py/applications/projectlibrary/controllers/default.py'
p120
sg64
(dp121
S'form.process'
p122
S'<bound method SQLFORM.process of <gluon.sqlhtml.SQLFORM object>>'
p123
sS').accepted'
p124
g105
sS'form'
p125
S'<gluon.sqlhtml.SQLFORM object>'
p126
ssg70
I89
sg71
(dp127
I84
S''
sI85
S'\t\tuser=db(db.auth_user.id==request.args(0,cast=int)).select().first()'
p128
sI86
S'\t\tform = SQLFORM.factory('
p129
sI87
S"\t\t\tField('message_subject',type='string',requires=True),"
p130
sI88
S"\t\t\tField('message_to_staff',type='text',requires=True))"
p131
sI89
S'\t\tif form.process().accepted:'
p132
sI90
S"\t\t\tsession.flash='Files Added'"
p133
sI91
S"\t\t\tmail.send(to='projectlibraryiiit@gmail.com',subject=str(request.vars.message_subject),message='Message to Staff : '+str(request.vars.message_to_staff)+'\\r\\n''\\r\\n'+'Author Is : '+str(auth.user.email))"
p134
sI92
S"\t\t\tredirect(URL('allprofile',args=auth.user.id))"
p135
sI93
S''
ssg83
S'()'
p136
sg85
S'ma'
p137
sa(dp138
g62
S'/home/kira/web2py/gluon/html.py'
p139
sg64
(dp140
S'self'
p141
S'<gluon.sqlhtml.SQLFORM object>'
p142
sS'self.validate'
p143
S'<bound method SQLFORM.validate of <gluon.sqlhtml.SQLFORM object>>'
p144
sS'kwargs'
p145
S"{'dbio': True}"
p146
ssg70
I2178
sg71
(dp147
I2176
S"        kwargs['dbio'] = kwargs.get('dbio', True)"
p148
sI2177
S'                                    # necessary for SQLHTML forms'
p149
sI2178
S'        self.validate(**kwargs)'
p150
sI2179
S'        return self'
p151
sI2180
S''
sI2181
S'    REDIRECT_JS = "window.location=\'%s\';return false"'
p152
sI2182
S''
sI2173
S'        def action():'
p153
sI2174
S'            return dict(form=SQLFORM(db.table).process(onsuccess=my_callback)'
p154
sI2175
S'        """'
p155
ssg83
S"(self=<gluon.sqlhtml.SQLFORM object>, **kwargs={'dbio': True})"
p156
sg85
S'process'
p157
sa(dp158
g62
S'/home/kira/web2py/gluon/html.py'
p159
sg64
(dp160
S'self'
p161
S'<gluon.sqlhtml.SQLFORM object>'
p162
sS'self.accepts'
p163
S'<bound method SQLFORM.accepts of <gluon.sqlhtml.SQLFORM object>>'
p164
sS'kwargs'
p165
S'{\'dbio\': True, \'request_vars\': <Storage {\'message_to_staff\': "chekcmaila;sd;las...o_table/create\', \'message_subject\': \'checkmail\'}>, \'session\': <Storage {\'_formkey[no_table/create]\': \'75e58f33...ration_key\': \'\', \'id\': 1}>, \'user_groups\': {}}>}>}'
p166
ssg70
I2117
sg71
(dp167
I2112
S"        for key in ('message_onsuccess', 'message_onfailure', 'onsuccess',"
p168
sI2113
S"                    'onfailure', 'next', 'message_onchange', 'onchange'):"
p169
sI2114
S'            if key in kwargs:'
p170
sI2115
S'                del kwargs[key]'
p171
sI2116
S''
sI2117
S'        if self.accepts(**kwargs):'
p172
sI2118
S"            if onsuccess == 'flash':"
p173
sI2119
S'                if next:'
p174
sI2120
S'                    current.session.flash = message_onsuccess'
p175
sI2121
S'                else:'
p176
ssg83
S'(self=<gluon.sqlhtml.SQLFORM object>, **kwargs={\'dbio\': True, \'request_vars\': <Storage {\'message_to_staff\': "chekcmaila;sd;las...o_table/create\', \'message_subject\': \'checkmail\'}>, \'session\': <Storage {\'_formkey[no_table/create]\': \'75e58f33...ration_key\': \'\', \'id\': 1}>, \'user_groups\': {}}>}>})'
p177
sg85
S'validate'
p178
sa(dp179
g62
S'/home/kira/web2py/gluon/sqlhtml.py'
p180
sg64
(dp181
S'kwargs'
p182
g45
ssg70
I1333
sg71
(dp183
I1328
S'            session,'
p184
sI1329
S'            formname,'
p185
sI1330
S'            keepvalues,'
p186
sI1331
S'            onvalidation,'
p187
sI1332
S'            hideerror=hideerror,'
p188
sI1333
S'            **kwargs'
p189
sI1334
S'        )'
p190
sI1335
S''
sI1336
S'        self.deleted = \\'
p191
sI1337
S'            request_vars.get(self.FIELDNAME_REQUEST_DELETE, False)'
p192
ssg83
S'(self=<gluon.sqlhtml.SQLFORM object>, request_vars=<Storage {\'message_to_staff\': "chekcmaila;sd;las...o_table/create\', \'message_subject\': \'checkmail\'}>, session=<Storage {\'_formkey[no_table/create]\': \'75e58f33...ration_key\': \'\', \'id\': 1}>, \'user_groups\': {}}>}>, formname=\'no_table/create\', keepvalues=False, onvalidation=None, dbio=True, hideerror=False, detect_record_change=False, **kwargs={})'
p193
sg85
S'accepts'
p194
sa(dp195
g62
S'/home/kira/web2py/gluon/html.py'
p196
sg64
(dp197
S'status'
p198
S'True'
p199
sS'self'
p200
S'<gluon.sqlhtml.SQLFORM object>'
p201
sS'self._traverse'
p202
S'<bound method SQLFORM._traverse of <gluon.sqlhtml.SQLFORM object>>'
p203
sS'hideerror'
p204
S'False'
p205
ssg70
I2000
sg71
(dp206
I1995
S'        if status and session:'
p207
sI1996
S'            # check if editing a record that has been modified by the server'
p208
sI1997
S"            if hasattr(self, 'record_hash') and self.record_hash != formkey:"
p209
sI1998
S'                status = False'
p210
sI1999
S'                self.record_changed = changed = True'
p211
sI2000
S'        status = self._traverse(status, hideerror)'
p212
sI2001
S'        status = self.assert_status(status, request_vars)'
p213
sI2002
S'        if onvalidation:'
p214
sI2003
S'            if isinstance(onvalidation, dict):'
p215
sI2004
S"                onsuccess = onvalidation.get('onsuccess', None)"
p216
ssg83
S'(self=<gluon.sqlhtml.SQLFORM object>, request_vars=<Storage {\'message_to_staff\': "chekcmaila;sd;las...o_table/create\', \'message_subject\': \'checkmail\'}>, session=<Storage {\'_formkey[no_table/create]\': \'75e58f33...ration_key\': \'\', \'id\': 1}>, \'user_groups\': {}}>}>, formname=\'no_table/create\', keepvalues=False, onvalidation=None, hideerror=False, **kwargs={})'
p217
sg85
g194
sa(dp218
g62
S'/home/kira/web2py/gluon/html.py'
p219
sg64
(dp220
S'status'
p221
g199
sS'newstatus'
p222
g199
sS'c'
S'<gluon.html.TABLE object>'
p223
sS'hideerror'
p224
g205
sS'c._traverse'
p225
S'<bound method TABLE._traverse of <gluon.html.TABLE object>>'
p226
ssg70
I846
sg71
(dp227
I841
S'                c.session = self.session'
p228
sI842
S'                c.formname = self.formname'
p229
sI843
S'                if hideerror and not \\'
p230
sI844
S"                        self.attributes.get('hideerror', False):"
p231
sI845
S"                    c['hideerror'] = hideerror"
p232
sI846
S'                newstatus = c._traverse(status, hideerror) and newstatus'
p233
sI847
S''
sI848
S'        # for input, textarea, select, option'
p234
sI849
S"        # deal with 'value' and 'validation'"
p235
sI850
S''
ssg83
S'(self=<gluon.sqlhtml.SQLFORM object>, status=True, hideerror=False)'
p236
sg85
S'_traverse'
p237
sa(dp238
g62
S'/home/kira/web2py/gluon/html.py'
p239
sg64
(dp240
S'status'
p241
g199
sS'newstatus'
p242
g199
sS'c'
S'<gluon.html.TR object>'
p243
sS'hideerror'
p244
g205
sS'c._traverse'
p245
S'<bound method TR._traverse of <gluon.html.TR object>>'
p246
ssg70
I846
sg71
(dp247
I841
S'                c.session = self.session'
p248
sI842
S'                c.formname = self.formname'
p249
sI843
S'                if hideerror and not \\'
p250
sI844
S"                        self.attributes.get('hideerror', False):"
p251
sI845
S"                    c['hideerror'] = hideerror"
p252
sI846
S'                newstatus = c._traverse(status, hideerror) and newstatus'
p253
sI847
S''
sI848
S'        # for input, textarea, select, option'
p254
sI849
S"        # deal with 'value' and 'validation'"
p255
sI850
S''
ssg83
S'(self=<gluon.html.TABLE object>, status=True, hideerror=False)'
p256
sg85
g237
sa(dp257
g62
S'/home/kira/web2py/gluon/html.py'
p258
sg64
(dp259
S'status'
p260
g199
sS'newstatus'
p261
g199
sS'c'
S'<gluon.html.TD object>'
p262
sS'hideerror'
p263
g205
sS'c._traverse'
p264
S'<bound method TD._traverse of <gluon.html.TD object>>'
p265
ssg70
I846
sg71
(dp266
I841
S'                c.session = self.session'
p267
sI842
S'                c.formname = self.formname'
p268
sI843
S'                if hideerror and not \\'
p269
sI844
S"                        self.attributes.get('hideerror', False):"
p270
sI845
S"                    c['hideerror'] = hideerror"
p271
sI846
S'                newstatus = c._traverse(status, hideerror) and newstatus'
p272
sI847
S''
sI848
S'        # for input, textarea, select, option'
p273
sI849
S"        # deal with 'value' and 'validation'"
p274
sI850
S''
ssg83
S'(self=<gluon.html.TR object>, status=True, hideerror=False)'
p275
sg85
g237
sa(dp276
g62
S'/home/kira/web2py/gluon/html.py'
p277
sg64
(dp278
S'status'
p279
g199
sS'newstatus'
p280
g199
sS'c'
S'<gluon.html.INPUT object>'
p281
sS'hideerror'
p282
g205
sS'c._traverse'
p283
S'<bound method INPUT._traverse of <gluon.html.INPUT object>>'
p284
ssg70
I846
sg71
(dp285
I841
S'                c.session = self.session'
p286
sI842
S'                c.formname = self.formname'
p287
sI843
S'                if hideerror and not \\'
p288
sI844
S"                        self.attributes.get('hideerror', False):"
p289
sI845
S"                    c['hideerror'] = hideerror"
p290
sI846
S'                newstatus = c._traverse(status, hideerror) and newstatus'
p291
sI847
S''
sI848
S'        # for input, textarea, select, option'
p292
sI849
S"        # deal with 'value' and 'validation'"
p293
sI850
S''
ssg83
S'(self=<gluon.html.TD object>, status=True, hideerror=False)'
p294
sg85
g237
sa(dp295
g62
S'/home/kira/web2py/gluon/html.py'
p296
sg64
(dp297
S'newstatus'
p298
g199
sS'self'
p299
S'<gluon.html.INPUT object>'
p300
sS'self._validate'
p301
S'<bound method INPUT._validate of <gluon.html.INPUT object>>'
p302
ssg70
I853
sg71
(dp303
I848
S'        # for input, textarea, select, option'
p304
sI849
S"        # deal with 'value' and 'validation'"
p305
sI850
S''
sI851
S"        name = self['_name']"
p306
sI852
S'        if newstatus:'
p307
sI853
S'            newstatus = self._validate()'
p308
sI854
S'            self._postprocessing()'
p309
sI855
S"        elif 'old_value' in self.attributes:"
p310
sI856
S"            self['value'] = self['old_value']"
p311
sI857
S'            self._postprocessing()'
p312
ssg83
S'(self=<gluon.html.INPUT object>, status=True, hideerror=False)'
p313
sg85
g237
sa(dp314
g62
S'/home/kira/web2py/gluon/html.py'
p315
sg64
(dp316
S'errors'
p317
g105
sS'value'
p318
S"'checkmail'"
p319
sS'validator'
p320
g199
ssg70
I1749
sg71
(dp321
I1744
S"        requires = self['requires']"
p322
sI1745
S'        if requires:'
p323
sI1746
S'            if not isinstance(requires, (list, tuple)):'
p324
sI1747
S'                requires = [requires]'
p325
sI1748
S'            for validator in requires:'
p326
sI1749
S'                (value, errors) = validator(value)'
p327
sI1750
S'                if not errors is None:'
p328
sI1751
S'                    self.vars[name] = value'
p329
sI1752
S'                    self.errors[name] = errors'
p330
sI1753
S'                    break'
p331
ssg83
S'(self=<gluon.html.INPUT object>)'
p332
sg85
S'_validate'
p333
sasS'pyver'
p334
S'Python 2.7.3: /usr/bin/python (prefix: /usr)'
p335
sS'session'
p336
g57
(S's\xde\t\x00\x00<div><table><tr><td style="font-weight:bold;vertical-align:top">auth</td><td valign="top">:</td><td><div><table><tr><td style="font-weight:bold;vertical-align:top">expiration</td><td valign="top">:</td><td><div>3600</div></td></tr><tr><td style="font-weight:bold;vertical-align:top">hmac_key</td><td valign="top">:</td><td><div>d06f3edf-72d9-4522-8714-300221441405</div></td></tr><tr><td style="font-weight:bold;vertical-align:top">last_visit</td><td valign="top">:</td><td><div>datetime.datetime(2013, 4, 19, 15, 41, 15, 228580)</div></td></tr><tr><td style="font-weight:bold;vertical-align:top">remember</td><td valign="top">:</td><td><div>False</div></td></tr><tr><td style="font-weight:bold;vertical-align:top">user</td><td valign="top">:</td><td><div><table><tr><td style="font-weight:bold;vertical-align:top">country</td><td valign="top">:</td><td><div></div></td></tr><tr><td style="font-weight:bold;vertical-align:top">email</td><td valign="top">:</td><td><div>shikher111@gmail.com</div></td></tr><tr><td style="font-weight:bold;vertical-align:top">first_name</td><td valign="top">:</td><td><div>shikher</div></td></tr><tr><td style="font-weight:bold;vertical-align:top">id</td><td valign="top">:</td><td><div>1</div></td></tr><tr><td style="font-weight:bold;vertical-align:top">last_name</td><td valign="top">:</td><td><div>somal</div></td></tr><tr><td style="font-weight:bold;vertical-align:top">profile_pic</td><td valign="top">:</td><td><div>auth_user.profile_pic.bf4189ac758c44c1.63616c6c5f6f665f647574795f6d6f6465726e5f776172666172655f332d776964652e6a7067.jpg</div></td></tr><tr><td style="font-weight:bold;vertical-align:top">registration_date</td><td valign="top">:</td><td><div>datetime.date(2013, 4, 18)</div></td></tr><tr><td style="font-weight:bold;vertical-align:top">registration_id</td><td valign="top">:</td><td><div></div></td></tr><tr><td style="font-weight:bold;vertical-align:top">registration_key</td><td valign="top">:</td><td><div></div></td></tr><tr><td style="font-weight:bold;vertical-align:top">reset_password_key</td><td valign="top">:</td><td><div></div></td></tr><tr><td style="font-weight:bold;vertical-align:top">upload_count</td><td valign="top">:</td><td><div>8</div></td></tr></table></div></td></tr><tr><td style="font-weight:bold;vertical-align:top">user_groups</td><td valign="top">:</td><td><div><table></table></div></td></tr></table></div></td></tr><tr><td style="font-weight:bold;vertical-align:top">flash</td><td valign="top">:</td><td><div>None</div></td></tr></table></div>'
tRp337
sS'etype'
p338
S"<type 'exceptions.TypeError'>"
p339
sS'date'
p340
S'Fri Apr 19 15:44:09 2013'
p341
sS'response'
p342
g57
(S's\xb2"\x00\x00<div><table><tr><td style="font-weight:bold;vertical-align:top">body</td><td valign="top">:</td><td><div>&lt;cStringIO.StringO object at 0xae141280&gt;</div></td></tr><tr><td style="font-weight:bold;vertical-align:top">cookies</td><td valign="top">:</td><td><div><table><tr><td style="font-weight:bold;vertical-align:top">session_id_projectlibrary</td><td valign="top">:</td><td><div>127.0.0.1-c5f99d30-b00d-4805-aa53-7aab88ffcdbc<table><tr><td style="font-weight:bold;vertical-align:top">comment</td><td valign="top">:</td><td><div></div></td></tr><tr><td style="font-weight:bold;vertical-align:top">domain</td><td valign="top">:</td><td><div></div></td></tr><tr><td style="font-weight:bold;vertical-align:top">expires</td><td valign="top">:</td><td><div></div></td></tr><tr><td style="font-weight:bold;vertical-align:top">httponly</td><td valign="top">:</td><td><div></div></td></tr><tr><td style="font-weight:bold;vertical-align:top">max-age</td><td valign="top">:</td><td><div></div></td></tr><tr><td style="font-weight:bold;vertical-align:top">path</td><td valign="top">:</td><td><div>/</div></td></tr><tr><td style="font-weight:bold;vertical-align:top">secure</td><td valign="top">:</td><td><div></div></td></tr><tr><td style="font-weight:bold;vertical-align:top">version</td><td valign="top">:</td><td><div></div></td></tr></table></div></td></tr></table></div></td></tr><tr><td style="font-weight:bold;vertical-align:top">delimiters</td><td valign="top">:</td><td><div><table><tr><td><div>{{</div></td></tr><tr><td><div>}}</div></td></tr></table></div></td></tr><tr><td style="font-weight:bold;vertical-align:top">files</td><td valign="top">:</td><td><div><table></table></div></td></tr><tr><td style="font-weight:bold;vertical-align:top">flash</td><td valign="top">:</td><td><div></div></td></tr><tr><td style="font-weight:bold;vertical-align:top">generic_patterns</td><td valign="top">:</td><td><div><table><tr><td><div>*</div></td></tr></table></div></td></tr><tr><td style="font-weight:bold;vertical-align:top">google_analytics_id</td><td valign="top">:</td><td><div>None</div></td></tr><tr><td style="font-weight:bold;vertical-align:top">headers</td><td valign="top">:</td><td><div><table><tr><td style="font-weight:bold;vertical-align:top">X-Powered-By</td><td valign="top">:</td><td><div>web2py</div></td></tr></table></div></td></tr><tr><td style="font-weight:bold;vertical-align:top">logo</td><td valign="top">:</td><td><div><a class="brand" href="http://www.web2py.com/"><b>web<span>2</span>py</b>&trade;&nbsp;</a></div></td></tr><tr><td style="font-weight:bold;vertical-align:top">menu</td><td valign="top">:</td><td><div><table><tr><td><div><table><tr><td><div>Home</div></td></tr><tr><td><div>False</div></td></tr><tr><td><div>/projectlibrary/default/index</div></td></tr><tr><td><div><table></table></div></td></tr></table></div></td></tr><tr><td><div><table><tr><td><div>Upload</div></td></tr><tr><td><div>False</div></td></tr><tr><td><div>/projectlibrary/default/uploadpage</div></td></tr><tr><td><div><table></table></div></td></tr></table></div></td></tr><tr><td><div><table><tr><td><div>Mail</div></td></tr><tr><td><div>False</div></td></tr><tr><td><div>/projectlibrary/default/ma/1</div></td></tr></table></div></td></tr><tr><td><div><table><tr><td><div>Browse</div></td></tr><tr><td><div>False</div></td></tr><tr><td><div>/projectlibrary/default/browse</div></td></tr><tr><td><div><table><tr><td><div><table><tr><td><div>A-Z</div></td></tr><tr><td><div>False</div></td></tr><tr><td><div>/projectlibrary/default/az</div></td></tr></table></div></td></tr><tr><td><div><table><tr><td><div>Z-A</div></td></tr><tr><td><div>False</div></td></tr><tr><td><div>/projectlibrary/default/za</div></td></tr></table></div></td></tr><tr><td><div><table><tr><td><div>By Comments</div></td></tr><tr><td><div>False</div></td></tr><tr><td><div>/projectlibrary/default/bycomments</div></td></tr><tr><td><div>[(&lt;lazyT &#x27;Most commented&#x27;&gt;, False, &#x27;/projectlibrary/default/most_commented&#x27;)]</div></td></tr></table></div></td></tr><tr><td><div><table><tr><td><div>By Rating</div></td></tr><tr><td><div>False</div></td></tr><tr><td><div>/projectlibrary/default/byrating</div></td></tr></table></div></td></tr><tr><td><div><table><tr><td><div>By Category</div></td></tr><tr><td><div>False</div></td></tr><tr><td><div>/projectlibrary/default/category</div></td></tr></table></div></td></tr><tr><td><div><table><tr><td><div>By Downloads</div></td></tr><tr><td><div>False</div></td></tr><tr><td><div>/projectlibrary/default/bydownloads</div></td></tr><tr><td><div>[(&lt;lazyT &#x27;Most Downloaded&#x27;&gt;, False, &#x27;/projectlibrary/default/mostdownload&#x27;)]</div></td></tr></table></div></td></tr><tr><td><div><table><tr><td><div>By Uploads</div></td></tr><tr><td><div>False</div></td></tr><tr><td><div>/projectlibrary/default/byuploads</div></td></tr><tr><td><div>[(&lt;lazyT &#x27;Most Uploads&#x27;&gt;, False, &#x27;/projectlibrary/default/most_uploaded&#x27;)]</div></td></tr></table></div></td></tr><tr><td><div><table><tr><td><div>Most Recent</div></td></tr><tr><td><div>False</div></td></tr><tr><td><div>/projectlibrary/default/most_recent</div></td></tr></table></div></td></tr></table></div></td></tr></table></div></td></tr><tr><td><div><table><tr><td><div>Most Downloaded</div></td></tr><tr><td><div>False</div></td></tr><tr><td><div>/projectlibrary/default/mostdownload</div></td></tr></table></div></td></tr><tr><td><div><table><tr><td><div>Most Uploads</div></td></tr><tr><td><div>False</div></td></tr><tr><td><div>/projectlibrary/default/most_uploaded</div></td></tr></table></div></td></tr><tr><td><div><table><tr><td><div>Browse Users</div></td></tr><tr><td><div>False</div></td></tr><tr><td><div>/projectlibrary/default/byuploads</div></td></tr></table></div></td></tr></table></div></td></tr><tr><td style="font-weight:bold;vertical-align:top">meta</td><td valign="top">:</td><td><div><table><tr><td style="font-weight:bold;vertical-align:top">author</td><td valign="top">:</td><td><div>Your Name &lt;you@example.com&gt;</div></td></tr><tr><td style="font-weight:bold;vertical-align:top">description</td><td valign="top">:</td><td><div>a cool new app</div></td></tr><tr><td style="font-weight:bold;vertical-align:top">generator</td><td valign="top">:</td><td><div>Web2py Web Framework</div></td></tr><tr><td style="font-weight:bold;vertical-align:top">keywords</td><td valign="top">:</td><td><div>web2py, python, framework</div></td></tr></table></div></td></tr><tr><td style="font-weight:bold;vertical-align:top">models_to_run</td><td valign="top">:</td><td><div><table><tr><td><div>^\\w+\\.py$</div></td></tr><tr><td><div>^default/\\w+\\.py$</div></td></tr><tr><td><div>^default/ma/\\w+\\.py$</div></td></tr></table></div></td></tr><tr><td style="font-weight:bold;vertical-align:top">postprocessing</td><td valign="top">:</td><td><div><table></table></div></td></tr><tr><td style="font-weight:bold;vertical-align:top">session_cookie_expires</td><td valign="top">:</td><td><div>None</div></td></tr><tr><td style="font-weight:bold;vertical-align:top">session_data_name</td><td valign="top">:</td><td><div>session_data_projectlibrary</div></td></tr><tr><td style="font-weight:bold;vertical-align:top">session_file</td><td valign="top">:</td><td><div>&lt;open file &#x27;/home/kira/web2py/applications/projectlibrary/sessions/127.0.0.1-c5f99d30-b00d-4805-aa53-7aab88ffcdbc&#x27;, mode &#x27;rb+&#x27; at 0xae501078&gt;</div></td></tr><tr><td style="font-weight:bold;vertical-align:top">session_filename</td><td valign="top">:</td><td><div>/home/kira/web2py/applications/projectlibrary/sessions/127.0.0.1-c5f99d30-b00d-4805-aa53-7aab88ffcdbc</div></td></tr><tr><td style="font-weight:bold;vertical-align:top">session_id</td><td valign="top">:</td><td><div>127.0.0.1-c5f99d30-b00d-4805-aa53-7aab88ffcdbc</div></td></tr><tr><td style="font-weight:bold;vertical-align:top">session_id_name</td><td valign="top">:</td><td><div>session_id_projectlibrary</div></td></tr><tr><td style="font-weight:bold;vertical-align:top">session_locked</td><td valign="top">:</td><td><div>True</div></td></tr><tr><td style="font-weight:bold;vertical-align:top">session_new</td><td valign="top">:</td><td><div>False</div></td></tr><tr><td style="font-weight:bold;vertical-align:top">session_storage_type</td><td valign="top">:</td><td><div>file</div></td></tr><tr><td style="font-weight:bold;vertical-align:top">status</td><td valign="top">:</td><td><div>200</div></td></tr><tr><td style="font-weight:bold;vertical-align:top">subtitle</td><td valign="top">:</td><td><div>customize me!</div></td></tr><tr><td style="font-weight:bold;vertical-align:top">title</td><td valign="top">:</td><td><div>Projectlibrary</div></td></tr><tr><td style="font-weight:bold;vertical-align:top">view</td><td valign="top">:</td><td><div>default/ma.html</div></td></tr></table></div>'
tRp343
sS'locals'
p344
(dp345
S'name'
p346
S"'message_subject'"
p347
sS'self'
p348
S'<gluon.html.INPUT object>'
p349
sS'value'
p350
S"'checkmail'"
p351
sS'validator'
p352
g199
sS'request_vars_get'
p353
S'<built-in method get of Storage object>'
p354
sS'requires'
p355
S'[True]'
p356
sssS'traceback'
p357
S'Traceback (most recent call last):\n  File "/home/kira/web2py/gluon/restricted.py", line 212, in restricted\n    exec ccode in environment\n  File "/home/kira/web2py/applications/projectlibrary/controllers/default.py", line 607, in <module>\n  File "/home/kira/web2py/gluon/globals.py", line 193, in <lambda>\n    self._caller = lambda f: f()\n  File "/home/kira/web2py/applications/projectlibrary/controllers/default.py", line 89, in ma\n    if form.process().accepted:\n  File "/home/kira/web2py/gluon/html.py", line 2178, in process\n    self.validate(**kwargs)\n  File "/home/kira/web2py/gluon/html.py", line 2117, in validate\n    if self.accepts(**kwargs):\n  File "/home/kira/web2py/gluon/sqlhtml.py", line 1333, in accepts\n    **kwargs\n  File "/home/kira/web2py/gluon/html.py", line 2000, in accepts\n    status = self._traverse(status, hideerror)\n  File "/home/kira/web2py/gluon/html.py", line 846, in _traverse\n    newstatus = c._traverse(status, hideerror) and newstatus\n  File "/home/kira/web2py/gluon/html.py", line 846, in _traverse\n    newstatus = c._traverse(status, hideerror) and newstatus\n  File "/home/kira/web2py/gluon/html.py", line 846, in _traverse\n    newstatus = c._traverse(status, hideerror) and newstatus\n  File "/home/kira/web2py/gluon/html.py", line 846, in _traverse\n    newstatus = c._traverse(status, hideerror) and newstatus\n  File "/home/kira/web2py/gluon/html.py", line 853, in _traverse\n    newstatus = self._validate()\n  File "/home/kira/web2py/gluon/html.py", line 1749, in _validate\n    (value, errors) = validator(value)\nTypeError: \'bool\' object is not callable\n'
p358
s.