(dp1
S'output'
p2
S"<type 'exceptions.NameError'> name 'auth' is not defined"
p3
sS'layer'
p4
S'/home/kira/web2py/applications/projectlibrary/models/db.py'
p5
sS'code'
p6
S'# -*- coding: utf-8 -*-\n\n#########################################################################\n## This scaffolding model makes your app work on Google App Engine too\n## File is released under public domain and you can use without limitations\n#########################################################################\n\n## if SSL/HTTPS is properly configured and you want all HTTP requests to\n## be redirected to HTTPS, uncomment the line below:\n# request.requires_https()\n\nif not request.env.web2py_runtime_gae:\n    ## if NOT running on Google App Engine use SQLite or other DB\n    db = DAL(\'sqlite://storage.sqlite\',pool_size=1,check_reserved=[\'all\'])\nelse:\n    ## connect to Google BigTable (optional \'google:datastore://namespace\')\n    db = DAL(\'google:datastore\')\n    ## store sessions and tickets there\n    session.connect(request, response, db=db)\n    ## or store session in Memcache, Redis, etc.\n    ## from gluon.contrib.memdb import MEMDB\n    ## from google.appengine.api.memcache import Client\n    ## session.connect(request, response, db = MEMDB(Client()))\n\n## by default give a view/generic.extension to all actions from localhost\n## none otherwise. a pattern can be \'controller/function.extension\'\nresponse.generic_patterns = [\'*\'] if request.is_local else []\n## (optional) optimize handling of static files\n# response.optimize_css = \'concat,minify,inline\'\n# response.optimize_js = \'concat,minify,inline\'\n\n#########################################################################\n## Here is sample code if you need for\n## - email capabilities\n## - authentication (registration, login, logout, ... )\n## - authorization (role based authorization)\n## - services (xml, csv, json, xmlrpc, jsonrpc, amf, rss)\n## - old style crud actions\n## (more options discussed in gluon/tools.py)\n#########################################################################\n\nfrom gluon.tools import Auth, Crud, Service, PluginManager, prettydate\n##auth = Auth(db)\ncrud, service, plugins = Crud(db), Service(), PluginManager()\n\n## create all tables needed by auth if not custom tables\nauth.define_tables(username=False, signature=False)\n\n## configure email\nmail = auth.settings.mailer\nmail.settings.server = \'logging\' or \'smtp.gmail.com:587\'\nmail.settings.sender = \'you@gmail.com\'\nmail.settings.login = \'username:password\'\n\n## configure auth policy\nauth.settings.registration_requires_verification = False\nauth.settings.registration_requires_approval = False\nauth.settings.reset_password_requires_verification = True\n\n## if you need to use OpenID, Facebook, MySpace, Twitter, Linkedin, etc.\n## register with janrain.com, write your domain:api_key in private/janrain.key\nfrom gluon.contrib.login_methods.rpx_account import use_janrain\nuse_janrain(auth, filename=\'private/janrain.key\')\n\n#########################################################################\n## Define your tables below (or better in another model file) for example\n##\n## >>> db.define_table(\'mytable\',Field(\'myfield\',\'string\'))\n##\n## Fields can be \'string\',\'text\',\'password\',\'integer\',\'double\',\'boolean\'\n##       \'date\',\'time\',\'datetime\',\'blob\',\'upload\', \'reference TABLENAME\'\n## There is an implicit \'id integer autoincrement\' field\n## Consult manual for more options, validators, etc.\n##\n## More API examples for controllers:\n##\n## >>> db.mytable.insert(myfield=\'value\')\n## >>> rows=db(db.mytable.myfield==\'value\').select(db.mytable.ALL)\n## >>> for row in rows: print row.id, row.myfield\n#########################################################################\n\n## after defining tables, uncomment below to enable auditing\n# auth.enable_record_versioning(db)\n"""db.define_table(\'register\',\n\t\tField(\'Name\',type=\'string\',required=True),\n\t\tField(\'Username\',type=\'string\',required=True,requires=IS_LENGTH(minsize=8),unique=True),\t\t\n\t\tField(\'Email\',requires=IS_EMAIL()),\n\t\tField(\'Password\',type=\'password\'),\n\t\tField(\'About_Me\',type=\'text\'),\n\t\tField(\'Profile_Picture\',type=\'upload\'))\n\t\t"""\n\ndb.define_table(\n\tauth.settings.table_user_name,\n\tField(\'first_name\', length=128, default=\'\'),\n\tField(\'last_name\', length=128, default=\'\'),\n\tField(\'email\', length=128, default=\'\', unique=True),\n\tField(\'password\', \'password\', length=512,\n\t\treadable=False, label=\'Password\'),\n\tField(\'address\'),\n\tField(\'city\'),\n\tField(\'zip\'),\n\tField(\'phone\'),\n\tField(\'registration_key\', length=512,\n\t\twritable=False, readable=False, default=\'\'),\n\tField(\'reset_password_key\', length=512,\n\t\twritable=False, readable=False, default=\'\'),\n\tField(\'registration_id\', length=512,\n\t\twritable=False, readable=False, default=\'\'))\ncustom_auth_table = db[auth.settings.table_user_name] \ncustom_auth_table.first_name.requires = IS_NOT_EMPTY(error_message=auth.messages.is_empty)\ncustom_auth_table.last_name.requires = IS_NOT_EMPTY(error_message=auth.messages.is_empty)\ncustom_auth_table.password.requires = [IS_STRONG(), CRYPT()]\ncustom_auth_table.email.requires = [IS_EMAIL(error_message=auth.messages.invalid_email),IS_NOT_IN_DB(db, custom_auth_table.email)]\nauth.settings.table_user = custom_auth_table\n\n\t\t\t\t\t\t\t\t\t       \n'
p7
sS'snapshot'
p8
(dp9
S'exception'
p10
(dp11
S'__hash__'
p12
S"<method-wrapper '__hash__' of exceptions.NameError object>"
p13
sS'__setattr__'
p14
S"<method-wrapper '__setattr__' of exceptions.NameError object>"
p15
sS'__reduce_ex__'
p16
S'<built-in method __reduce_ex__ of exceptions.NameError object>'
p17
sS'__getslice__'
p18
S"<method-wrapper '__getslice__' of exceptions.NameError object>"
p19
sS'__getitem__'
p20
S"<method-wrapper '__getitem__' of exceptions.NameError object>"
p21
sS'__setstate__'
p22
S'<built-in method __setstate__ of exceptions.NameError object>'
p23
sS'__reduce__'
p24
S'<built-in method __reduce__ of exceptions.NameError object>'
p25
sS'__str__'
p26
S"<method-wrapper '__str__' of exceptions.NameError object>"
p27
sS'__format__'
p28
S'<built-in method __format__ of exceptions.NameError object>'
p29
sS'__getattribute__'
p30
S"<method-wrapper '__getattribute__' of exceptions.NameError object>"
p31
sS'__class__'
p32
S"<type 'exceptions.NameError'>"
p33
sS'__unicode__'
p34
S'<built-in method __unicode__ of exceptions.NameError object>'
p35
sS'__delattr__'
p36
S"<method-wrapper '__delattr__' of exceptions.NameError object>"
p37
sS'__subclasshook__'
p38
S'<built-in method __subclasshook__ of type object>'
p39
sS'__repr__'
p40
S"<method-wrapper '__repr__' of exceptions.NameError object>"
p41
sS'args'
p42
S'("name \'auth\' is not defined",)'
p43
sS'__dict__'
p44
S'{}'
p45
sS'__sizeof__'
p46
S'<built-in method __sizeof__ of exceptions.NameError object>'
p47
sS'__doc__'
p48
S"'Name not found globally.'"
p49
sS'__init__'
p50
S"<method-wrapper '__init__' of exceptions.NameError object>"
p51
sS'__new__'
p52
S'<built-in method __new__ of type object>'
p53
ssS'evalue'
p54
S"name 'auth' is not defined"
p55
sS'request'
p56
cgluon.html
XML_unpickle
p57
(S's\xcfU\x00\x00<div><table><tr><td style="font-weight:bold;vertical-align:top">ajax</td><td valign="top">:</td><td><div>False</div></td></tr><tr><td style="font-weight:bold;vertical-align:top">application</td><td valign="top">:</td><td><div>projectlibrary</div></td></tr><tr><td style="font-weight:bold;vertical-align:top">args</td><td valign="top">:</td><td><div><table></table></div></td></tr><tr><td style="font-weight:bold;vertical-align:top">body</td><td valign="top">:</td><td><div>&lt;cStringIO.StringO object at 0xae31cca0&gt;</div></td></tr><tr><td style="font-weight:bold;vertical-align:top">cid</td><td valign="top">:</td><td><div>None</div></td></tr><tr><td style="font-weight:bold;vertical-align:top">client</td><td valign="top">:</td><td><div>127.0.0.1</div></td></tr><tr><td style="font-weight:bold;vertical-align:top">controller</td><td valign="top">:</td><td><div>appadmin</div></td></tr><tr><td style="font-weight:bold;vertical-align:top">cookies</td><td valign="top">:</td><td><div><table><tr><td style="font-weight:bold;vertical-align:top">session_id_admin</td><td valign="top">:</td><td><div>127.0.0.1-50d72a26-03ed-463b-bbc5-dd9c04466d02<table><tr><td style="font-weight:bold;vertical-align:top">comment</td><td valign="top">:</td><td><div></div></td></tr><tr><td style="font-weight:bold;vertical-align:top">domain</td><td valign="top">:</td><td><div></div></td></tr><tr><td style="font-weight:bold;vertical-align:top">expires</td><td valign="top">:</td><td><div></div></td></tr><tr><td style="font-weight:bold;vertical-align:top">httponly</td><td valign="top">:</td><td><div></div></td></tr><tr><td style="font-weight:bold;vertical-align:top">max-age</td><td valign="top">:</td><td><div></div></td></tr><tr><td style="font-weight:bold;vertical-align:top">path</td><td valign="top">:</td><td><div></div></td></tr><tr><td style="font-weight:bold;vertical-align:top">secure</td><td valign="top">:</td><td><div></div></td></tr><tr><td style="font-weight:bold;vertical-align:top">version</td><td valign="top">:</td><td><div></div></td></tr></table></div></td></tr><tr><td style="font-weight:bold;vertical-align:top">session_id_projectlibrary</td><td valign="top">:</td><td><div>127.0.0.1-c918b2a0-6cc0-4ca4-949d-e7d6557ee953<table><tr><td style="font-weight:bold;vertical-align:top">comment</td><td valign="top">:</td><td><div></div></td></tr><tr><td style="font-weight:bold;vertical-align:top">domain</td><td valign="top">:</td><td><div></div></td></tr><tr><td style="font-weight:bold;vertical-align:top">expires</td><td valign="top">:</td><td><div></div></td></tr><tr><td style="font-weight:bold;vertical-align:top">httponly</td><td valign="top">:</td><td><div></div></td></tr><tr><td style="font-weight:bold;vertical-align:top">max-age</td><td valign="top">:</td><td><div></div></td></tr><tr><td style="font-weight:bold;vertical-align:top">path</td><td valign="top">:</td><td><div></div></td></tr><tr><td style="font-weight:bold;vertical-align:top">secure</td><td valign="top">:</td><td><div></div></td></tr><tr><td style="font-weight:bold;vertical-align:top">version</td><td valign="top">:</td><td><div></div></td></tr></table></div></td></tr><tr><td style="font-weight:bold;vertical-align:top">session_id_welcome</td><td valign="top">:</td><td><div>127.0.0.1-d0647030-c9ff-4488-bded-ff7e244c9676<table><tr><td style="font-weight:bold;vertical-align:top">comment</td><td valign="top">:</td><td><div></div></td></tr><tr><td style="font-weight:bold;vertical-align:top">domain</td><td valign="top">:</td><td><div></div></td></tr><tr><td style="font-weight:bold;vertical-align:top">expires</td><td valign="top">:</td><td><div></div></td></tr><tr><td style="font-weight:bold;vertical-align:top">httponly</td><td valign="top">:</td><td><div></div></td></tr><tr><td style="font-weight:bold;vertical-align:top">max-age</td><td valign="top">:</td><td><div></div></td></tr><tr><td style="font-weight:bold;vertical-align:top">path</td><td valign="top">:</td><td><div></div></td></tr><tr><td style="font-weight:bold;vertical-align:top">secure</td><td valign="top">:</td><td><div></div></td></tr><tr><td style="font-weight:bold;vertical-align:top">version</td><td valign="top">:</td><td><div></div></td></tr></table></div></td></tr></table></div></td></tr><tr><td style="font-weight:bold;vertical-align:top">env</td><td valign="top">:</td><td><div><table><tr><td style="font-weight:bold;vertical-align:top">app_folders</td><td valign="top">:</td><td><div>set([&#x27;/home/kira/web2py/applications/admin/&#x27;, &#x27;/home/kira/web2py/applications/welcome/&#x27;, &#x27;/home/kira/web2py/applications/projectlibrary/&#x27;])</div></td></tr><tr><td style="font-weight:bold;vertical-align:top">applications_parent</td><td valign="top">:</td><td><div>/home/kira/web2py</div></td></tr><tr><td style="font-weight:bold;vertical-align:top">cmd_args</td><td valign="top">:</td><td><div><table></table></div></td></tr><tr><td style="font-weight:bold;vertical-align:top">cmd_options</td><td valign="top">:</td><td><div>&lt;Values at 0x9e10f4c: {&#x27;verbose&#x27;: False, &#x27;ip&#x27;: &#x27;127.0.0.1&#x27;, &#x27;with_scheduler&#x27;: False, &#x27;ips&#x27;: [], &#x27;shutdown_timeout&#x27;: 5, &#x27;taskbar&#x27;: False, &#x27;port&#x27;: 8000, &#x27;maxthreads&#x27;: None, &#x27;softcron&#x27;: False, &#x27;server_name&#x27;: &#x27;kira-Ideapad-Z570&#x27;, &#x27;bpython&#x27;: False, &#x27;nogui&#x27;: False, &#x27;pid_filename&#x27;: &#x27;httpserver.pid&#x27;, &#x27;extcron&#x27;: False, &#x27;runcron&#x27;: False, &#x27;run_system_tests&#x27;: False, &#x27;test&#x27;: None, &#x27;folder&#x27;: &#x27;/home/kira/web2py&#x27;, &#x27;config&#x27;: &#x27;&#x27;, &#x27;import_models&#x27;: False, &#x27;winservice&#x27;: &#x27;&#x27;, &#x27;shell&#x27;: None, &#x27;run&#x27;: &#x27;&#x27;, &#x27;log_filename&#x27;: &#x27;httpserver.log&#x27;, &#x27;debuglevel&#x27;: 30, &#x27;args&#x27;: [&#x27;&#x27;], &#x27;socket_timeout&#x27;: 5, &#x27;ssl_ca_certificate&#x27;: None, &#x27;scheduler&#x27;: None, &#x27;profiler_filename&#x27;: None, &#x27;ssl_private_key&#x27;: &#x27;&#x27;, &#x27;scheduler_groups&#x27;: None, &#x27;password&#x27;: &#x27;project&#x27;, &#x27;request_queue_size&#x27;: 5, &#x27;ssl_certificate&#x27;: &#x27;&#x27;, &#x27;cronjob&#x27;: False, &#x27;numthreads&#x27;: None, &#x27;quiet&#x27;: False, &#x27;interfaces&#x27;: None, &#x27;minthreads&#x27;: None, &#x27;timeout&#x27;: 10, &#x27;plain&#x27;: False, &#x27;nobanner&#x27;: False}&gt;</div></td></tr><tr><td style="font-weight:bold;vertical-align:top">db_sessions</td><td valign="top">:</td><td><div>set([])</div></td></tr><tr><td style="font-weight:bold;vertical-align:top">debugging</td><td valign="top">:</td><td><div>False</div></td></tr><tr><td style="font-weight:bold;vertical-align:top">gluon_parent</td><td valign="top">:</td><td><div>/home/kira/web2py</div></td></tr><tr><td style="font-weight:bold;vertical-align:top">http_accept</td><td valign="top">:</td><td><div>text/html,application/xhtml+xml,application/xml;q=0.9,*/*;q=0.8</div></td></tr><tr><td style="font-weight:bold;vertical-align:top">http_accept_encoding</td><td valign="top">:</td><td><div>gzip, deflate</div></td></tr><tr><td style="font-weight:bold;vertical-align:top">http_accept_language</td><td valign="top">:</td><td><div>en-us,en;q=0.5</div></td></tr><tr><td style="font-weight:bold;vertical-align:top">http_cache_control</td><td valign="top">:</td><td><div>max-age=0</div></td></tr><tr><td style="font-weight:bold;vertical-align:top">http_connection</td><td valign="top">:</td><td><div>keep-alive</div></td></tr><tr><td style="font-weight:bold;vertical-align:top">http_cookie</td><td valign="top">:</td><td><div>session_id_welcome=127.0.0.1-d0647030-c9ff-4488-bded-ff7e244c9676; session_id_admin=127.0.0.1-50d72a26-03ed-463b-bbc5-dd9c04466d02; session_id_projectlibrary=127.0.0.1-c918b2a0-6cc0-4ca4-949d-e7d6557ee953</div></td></tr><tr><td style="font-weight:bold;vertical-align:top">http_host</td><td valign="top">:</td><td><div>127.0.0.1:8000</div></td></tr><tr><td style="font-weight:bold;vertical-align:top">http_referer</td><td valign="top">:</td><td><div>http://127.0.0.1:8000/admin/default/design/projectlibrary</div></td></tr><tr><td style="font-weight:bold;vertical-align:top">http_user_agent</td><td valign="top">:</td><td><div>Mozilla/5.0 (X11; Ubuntu; Linux i686; rv:11.0) Gecko/20100101 Firefox/11.0</div></td></tr><tr><td style="font-weight:bold;vertical-align:top">is_jython</td><td valign="top">:</td><td><div>False</div></td></tr><tr><td style="font-weight:bold;vertical-align:top">is_pypy</td><td valign="top">:</td><td><div>False</div></td></tr><tr><td style="font-weight:bold;vertical-align:top">local_hosts</td><td valign="top">:</td><td><div><table><tr><td><div>kira-Ideapad-Z570</div></td></tr><tr><td><div>::1</div></td></tr><tr><td><div>127.0.1.1</div></td></tr><tr><td><div>::ffff:127.0.0.1</div></td></tr><tr><td><div>127.0.0.1</div></td></tr></table></div></td></tr><tr><td style="font-weight:bold;vertical-align:top">path_info</td><td valign="top">:</td><td><div>/projectlibrary/appadmin/index</div></td></tr><tr><td style="font-weight:bold;vertical-align:top">query_string</td><td valign="top">:</td><td><div></div></td></tr><tr><td style="font-weight:bold;vertical-align:top">remote_addr</td><td valign="top">:</td><td><div>127.0.0.1</div></td></tr><tr><td style="font-weight:bold;vertical-align:top">remote_port</td><td valign="top">:</td><td><div>37776</div></td></tr><tr><td style="font-weight:bold;vertical-align:top">request_method</td><td valign="top">:</td><td><div>GET</div></td></tr><tr><td style="font-weight:bold;vertical-align:top">request_uri</td><td valign="top">:</td><td><div>/projectlibrary/appadmin/index</div></td></tr><tr><td style="font-weight:bold;vertical-align:top">script_name</td><td valign="top">:</td><td><div></div></td></tr><tr><td style="font-weight:bold;vertical-align:top">server_name</td><td valign="top">:</td><td><div>kira-Ideapad-Z570</div></td></tr><tr><td style="font-weight:bold;vertical-align:top">server_port</td><td valign="top">:</td><td><div>8000</div></td></tr><tr><td style="font-weight:bold;vertical-align:top">server_protocol</td><td valign="top">:</td><td><div>HTTP/1.1</div></td></tr><tr><td style="font-weight:bold;vertical-align:top">server_software</td><td valign="top">:</td><td><div>Rocket 1.2.6</div></td></tr><tr><td style="font-weight:bold;vertical-align:top">web2py_path</td><td valign="top">:</td><td><div>/home/kira/web2py</div></td></tr><tr><td style="font-weight:bold;vertical-align:top">web2py_version</td><td valign="top">:</td><td><div><table><tr><td><div>2</div></td></tr><tr><td><div>4</div></td></tr><tr><td><div>2</div></td></tr><tr><td><div>stable</div></td></tr><tr><td><div>datetime.datetime(2013, 3, 4, 3, 26, 21)</div></td></tr></table></div></td></tr><tr><td style="font-weight:bold;vertical-align:top">wsgi_errors</td><td valign="top">:</td><td><div>&lt;open file &#x27;&lt;stderr&gt;&#x27;, mode &#x27;w&#x27; at 0xb73550d0&gt;</div></td></tr><tr><td style="font-weight:bold;vertical-align:top">wsgi_file_wrapper</td><td valign="top">:</td><td><div>&lt;class wsgiref.util.FileWrapper at 0x9d9dbfc&gt;</div></td></tr><tr><td style="font-weight:bold;vertical-align:top">wsgi_input</td><td valign="top">:</td><td><div>&lt;socket._fileobject object at 0xaeb629ec&gt;</div></td></tr><tr><td style="font-weight:bold;vertical-align:top">wsgi_multiprocess</td><td valign="top">:</td><td><div>False</div></td></tr><tr><td style="font-weight:bold;vertical-align:top">wsgi_multithread</td><td valign="top">:</td><td><div>True</div></td></tr><tr><td style="font-weight:bold;vertical-align:top">wsgi_run_once</td><td valign="top">:</td><td><div>False</div></td></tr><tr><td style="font-weight:bold;vertical-align:top">wsgi_url_scheme</td><td valign="top">:</td><td><div>http</div></td></tr><tr><td style="font-weight:bold;vertical-align:top">wsgi_version</td><td valign="top">:</td><td><div><table><tr><td><div>1</div></td></tr><tr><td><div>0</div></td></tr></table></div></td></tr></table></div></td></tr><tr><td style="font-weight:bold;vertical-align:top">extension</td><td valign="top">:</td><td><div>html</div></td></tr><tr><td style="font-weight:bold;vertical-align:top">folder</td><td valign="top">:</td><td><div>/home/kira/web2py/applications/projectlibrary/</div></td></tr><tr><td style="font-weight:bold;vertical-align:top">function</td><td valign="top">:</td><td><div>index</div></td></tr><tr><td style="font-weight:bold;vertical-align:top">get_vars</td><td valign="top">:</td><td><div><table></table></div></td></tr><tr><td style="font-weight:bold;vertical-align:top">global_settings</td><td valign="top">:</td><td><div><table><tr><td style="font-weight:bold;vertical-align:top">app_folders</td><td valign="top">:</td><td><div>set([&#x27;/home/kira/web2py/applications/admin/&#x27;, &#x27;/home/kira/web2py/applications/welcome/&#x27;, &#x27;/home/kira/web2py/applications/projectlibrary/&#x27;])</div></td></tr><tr><td style="font-weight:bold;vertical-align:top">applications_parent</td><td valign="top">:</td><td><div>/home/kira/web2py</div></td></tr><tr><td style="font-weight:bold;vertical-align:top">cmd_args</td><td valign="top">:</td><td><div><table></table></div></td></tr><tr><td style="font-weight:bold;vertical-align:top">cmd_options</td><td valign="top">:</td><td><div>&lt;Values at 0x9e10f4c: {&#x27;verbose&#x27;: False, &#x27;ip&#x27;: &#x27;127.0.0.1&#x27;, &#x27;with_scheduler&#x27;: False, &#x27;ips&#x27;: [], &#x27;shutdown_timeout&#x27;: 5, &#x27;taskbar&#x27;: False, &#x27;port&#x27;: 8000, &#x27;maxthreads&#x27;: None, &#x27;softcron&#x27;: False, &#x27;server_name&#x27;: &#x27;kira-Ideapad-Z570&#x27;, &#x27;bpython&#x27;: False, &#x27;nogui&#x27;: False, &#x27;pid_filename&#x27;: &#x27;httpserver.pid&#x27;, &#x27;extcron&#x27;: False, &#x27;runcron&#x27;: False, &#x27;run_system_tests&#x27;: False, &#x27;test&#x27;: None, &#x27;folder&#x27;: &#x27;/home/kira/web2py&#x27;, &#x27;config&#x27;: &#x27;&#x27;, &#x27;import_models&#x27;: False, &#x27;winservice&#x27;: &#x27;&#x27;, &#x27;shell&#x27;: None, &#x27;run&#x27;: &#x27;&#x27;, &#x27;log_filename&#x27;: &#x27;httpserver.log&#x27;, &#x27;debuglevel&#x27;: 30, &#x27;args&#x27;: [&#x27;&#x27;], &#x27;socket_timeout&#x27;: 5, &#x27;ssl_ca_certificate&#x27;: None, &#x27;scheduler&#x27;: None, &#x27;profiler_filename&#x27;: None, &#x27;ssl_private_key&#x27;: &#x27;&#x27;, &#x27;scheduler_groups&#x27;: None, &#x27;password&#x27;: &#x27;project&#x27;, &#x27;request_queue_size&#x27;: 5, &#x27;ssl_certificate&#x27;: &#x27;&#x27;, &#x27;cronjob&#x27;: False, &#x27;numthreads&#x27;: None, &#x27;quiet&#x27;: False, &#x27;interfaces&#x27;: None, &#x27;minthreads&#x27;: None, &#x27;timeout&#x27;: 10, &#x27;plain&#x27;: False, &#x27;nobanner&#x27;: False}&gt;</div></td></tr><tr><td style="font-weight:bold;vertical-align:top">db_sessions</td><td valign="top">:</td><td><div>set([])</div></td></tr><tr><td style="font-weight:bold;vertical-align:top">debugging</td><td valign="top">:</td><td><div>False</div></td></tr><tr><td style="font-weight:bold;vertical-align:top">gluon_parent</td><td valign="top">:</td><td><div>/home/kira/web2py</div></td></tr><tr><td style="font-weight:bold;vertical-align:top">is_jython</td><td valign="top">:</td><td><div>False</div></td></tr><tr><td style="font-weight:bold;vertical-align:top">is_pypy</td><td valign="top">:</td><td><div>False</div></td></tr><tr><td style="font-weight:bold;vertical-align:top">local_hosts</td><td valign="top">:</td><td><div><table><tr><td><div>kira-Ideapad-Z570</div></td></tr><tr><td><div>::1</div></td></tr><tr><td><div>127.0.1.1</div></td></tr><tr><td><div>::ffff:127.0.0.1</div></td></tr><tr><td><div>127.0.0.1</div></td></tr></table></div></td></tr><tr><td style="font-weight:bold;vertical-align:top">web2py_version</td><td valign="top">:</td><td><div><table><tr><td><div>2</div></td></tr><tr><td><div>4</div></td></tr><tr><td><div>2</div></td></tr><tr><td><div>stable</div></td></tr><tr><td><div>datetime.datetime(2013, 3, 4, 3, 26, 21)</div></td></tr></table></div></td></tr></table></div></td></tr><tr><td style="font-weight:bold;vertical-align:top">is_https</td><td valign="top">:</td><td><div>False</div></td></tr><tr><td style="font-weight:bold;vertical-align:top">is_local</td><td valign="top">:</td><td><div>True</div></td></tr><tr><td style="font-weight:bold;vertical-align:top">is_restful</td><td valign="top">:</td><td><div>False</div></td></tr><tr><td style="font-weight:bold;vertical-align:top">now</td><td valign="top">:</td><td><div>datetime.datetime(2013, 3, 25, 23, 36, 54, 234434)</div></td></tr><tr><td style="font-weight:bold;vertical-align:top">post_vars</td><td valign="top">:</td><td><div><table></table></div></td></tr><tr><td style="font-weight:bold;vertical-align:top">raw_args</td><td valign="top">:</td><td><div></div></td></tr><tr><td style="font-weight:bold;vertical-align:top">raw_extension</td><td valign="top">:</td><td><div>None</div></td></tr><tr><td style="font-weight:bold;vertical-align:top">url</td><td valign="top">:</td><td><div>/projectlibrary/appadmin/index</div></td></tr><tr><td style="font-weight:bold;vertical-align:top">utcnow</td><td valign="top">:</td><td><div>datetime.datetime(2013, 3, 25, 18, 6, 54, 234492)</div></td></tr><tr><td style="font-weight:bold;vertical-align:top">uuid</td><td valign="top">:</td><td><div>projectlibrary/127.0.0.1.2013-03-25.23-36-54.aa0142f7-0fad-46a1-94fe-8690e65d2577</div></td></tr><tr><td style="font-weight:bold;vertical-align:top">vars</td><td valign="top">:</td><td><div><table></table></div></td></tr><tr><td style="font-weight:bold;vertical-align:top">wsgi</td><td valign="top">:</td><td><div><table><tr><td style="font-weight:bold;vertical-align:top">environ</td><td valign="top">:</td><td><div><table><tr><td style="font-weight:bold;vertical-align:top">HTTP_ACCEPT</td><td valign="top">:</td><td><div>text/html,application/xhtml+xml,application/xml;q=0.9,*/*;q=0.8</div></td></tr><tr><td style="font-weight:bold;vertical-align:top">HTTP_ACCEPT_ENCODING</td><td valign="top">:</td><td><div>gzip, deflate</div></td></tr><tr><td style="font-weight:bold;vertical-align:top">HTTP_ACCEPT_LANGUAGE</td><td valign="top">:</td><td><div>en-us,en;q=0.5</div></td></tr><tr><td style="font-weight:bold;vertical-align:top">HTTP_CACHE_CONTROL</td><td valign="top">:</td><td><div>max-age=0</div></td></tr><tr><td style="font-weight:bold;vertical-align:top">HTTP_CONNECTION</td><td valign="top">:</td><td><div>keep-alive</div></td></tr><tr><td style="font-weight:bold;vertical-align:top">HTTP_COOKIE</td><td valign="top">:</td><td><div>session_id_welcome=127.0.0.1-d0647030-c9ff-4488-bded-ff7e244c9676; session_id_admin=127.0.0.1-50d72a26-03ed-463b-bbc5-dd9c04466d02; session_id_projectlibrary=127.0.0.1-c918b2a0-6cc0-4ca4-949d-e7d6557ee953</div></td></tr><tr><td style="font-weight:bold;vertical-align:top">HTTP_HOST</td><td valign="top">:</td><td><div>127.0.0.1:8000</div></td></tr><tr><td style="font-weight:bold;vertical-align:top">HTTP_REFERER</td><td valign="top">:</td><td><div>http://127.0.0.1:8000/admin/default/design/projectlibrary</div></td></tr><tr><td style="font-weight:bold;vertical-align:top">HTTP_USER_AGENT</td><td valign="top">:</td><td><div>Mozilla/5.0 (X11; Ubuntu; Linux i686; rv:11.0) Gecko/20100101 Firefox/11.0</div></td></tr><tr><td style="font-weight:bold;vertical-align:top">PATH_INFO</td><td valign="top">:</td><td><div>/projectlibrary/appadmin/index</div></td></tr><tr><td style="font-weight:bold;vertical-align:top">QUERY_STRING</td><td valign="top">:</td><td><div></div></td></tr><tr><td style="font-weight:bold;vertical-align:top">REMOTE_ADDR</td><td valign="top">:</td><td><div>127.0.0.1</div></td></tr><tr><td style="font-weight:bold;vertical-align:top">REMOTE_PORT</td><td valign="top">:</td><td><div>37776</div></td></tr><tr><td style="font-weight:bold;vertical-align:top">REQUEST_METHOD</td><td valign="top">:</td><td><div>GET</div></td></tr><tr><td style="font-weight:bold;vertical-align:top">REQUEST_URI</td><td valign="top">:</td><td><div>/projectlibrary/appadmin/index</div></td></tr><tr><td style="font-weight:bold;vertical-align:top">SCRIPT_NAME</td><td valign="top">:</td><td><div></div></td></tr><tr><td style="font-weight:bold;vertical-align:top">SERVER_NAME</td><td valign="top">:</td><td><div>kira-Ideapad-Z570</div></td></tr><tr><td style="font-weight:bold;vertical-align:top">SERVER_PORT</td><td valign="top">:</td><td><div>8000</div></td></tr><tr><td style="font-weight:bold;vertical-align:top">SERVER_PROTOCOL</td><td valign="top">:</td><td><div>HTTP/1.1</div></td></tr><tr><td style="font-weight:bold;vertical-align:top">SERVER_SOFTWARE</td><td valign="top">:</td><td><div>Rocket 1.2.6</div></td></tr><tr><td style="font-weight:bold;vertical-align:top">wsgi.errors</td><td valign="top">:</td><td><div>&lt;open file &#x27;&lt;stderr&gt;&#x27;, mode &#x27;w&#x27; at 0xb73550d0&gt;</div></td></tr><tr><td style="font-weight:bold;vertical-align:top">wsgi.file_wrapper</td><td valign="top">:</td><td><div>&lt;class wsgiref.util.FileWrapper at 0x9d9dbfc&gt;</div></td></tr><tr><td style="font-weight:bold;vertical-align:top">wsgi.input</td><td valign="top">:</td><td><div>&lt;cStringIO.StringO object at 0xae31cca0&gt;</div></td></tr><tr><td style="font-weight:bold;vertical-align:top">wsgi.multiprocess</td><td valign="top">:</td><td><div>False</div></td></tr><tr><td style="font-weight:bold;vertical-align:top">wsgi.multithread</td><td valign="top">:</td><td><div>True</div></td></tr><tr><td style="font-weight:bold;vertical-align:top">wsgi.run_once</td><td valign="top">:</td><td><div>False</div></td></tr><tr><td style="font-weight:bold;vertical-align:top">wsgi.url_scheme</td><td valign="top">:</td><td><div>http</div></td></tr><tr><td style="font-weight:bold;vertical-align:top">wsgi.version</td><td valign="top">:</td><td><div>1</div></td></tr></table></div></td></tr></table></div></td></tr></table></div>'
tRp58
sS'frames'
p59
(lp60
(dp61
S'file'
p62
S'/home/kira/web2py/gluon/restricted.py'
p63
sS'dump'
p64
(dp65
S'environment'
p66
S"{'A': <class 'gluon.html.A'>, 'Auth': <class 'gluon.tools.Auth'>, 'B': <class 'gluon.html.B'>, 'BEAUTIFY': <class 'gluon.html.BEAUTIFY'>, 'BODY': <class 'gluon.html.BODY'>, 'BR': <class 'gluon.html.BR'>, 'BUTTON': <class 'gluon.html.BUTTON'>, 'CAT': <class 'gluon.html.CAT'>, 'CENTER': <class 'gluon.html.CENTER'>, 'CLEANUP': <class 'gluon.validators.CLEANUP'>, ...}"
p67
sS'ccode'
p68
S'<code object <module> at 0xae73e410, file "/home...plications/projectlibrary/models/db.py", line 12>'
p69
ssS'lnum'
p70
I212
sS'lines'
p71
(dp72
I207
S'    try:'
p73
sI208
S'        if isinstance(code, types.CodeType):'
p74
sI209
S'            ccode = code'
p75
sI210
S'        else:'
p76
sI211
S'            ccode = compile2(code, layer)'
p77
sI212
S'        exec ccode in environment'
p78
sI213
S'    except HTTP:'
p79
sI214
S'        raise'
p80
sI215
S'    except RestrictedError:'
p81
sI216
S'        # do not encapsulate (obfuscate) the original RestrictedError'
p82
ssS'call'
p83
S"(code='# -*- coding: utf-8 -*-\\n\\n#######################...table_user = custom_auth_table\\n\\n\\t\\t\\t\\t\\t\\t\\t\\t\\t       \\n', environment={'A': <class 'gluon.html.A'>, 'Auth': <class 'gluon.tools.Auth'>, 'B': <class 'gluon.html.B'>, 'BEAUTIFY': <class 'gluon.html.BEAUTIFY'>, 'BODY': <class 'gluon.html.BODY'>, 'BR': <class 'gluon.html.BR'>, 'BUTTON': <class 'gluon.html.BUTTON'>, 'CAT': <class 'gluon.html.CAT'>, 'CENTER': <class 'gluon.html.CENTER'>, 'CLEANUP': <class 'gluon.validators.CLEANUP'>, ...}, layer='/home/kira/web2py/applications/projectlibrary/models/db.py')"
p84
sS'func'
p85
S'restricted'
p86
sa(dp87
g62
S'/home/kira/web2py/applications/projectlibrary/models/db.py'
p88
sg64
(dp89
S'username'
p90
S'undefined'
p91
sS'builtinFalse'
p92
S'False'
p93
sS'auth'
p94
g91
sS'signature'
p95
g91
ssg70
I47
sg71
(dp96
I42
S'from gluon.tools import Auth, Crud, Service, PluginManager, prettydate'
p97
sI43
S'##auth = Auth(db)'
p98
sI44
S'crud, service, plugins = Crud(db), Service(), PluginManager()'
p99
sI45
S''
sI46
S'## create all tables needed by auth if not custom tables'
p100
sI47
S'auth.define_tables(username=False, signature=False)'
p101
sI48
S''
sI49
S'## configure email'
p102
sI50
S'mail = auth.settings.mailer'
p103
sI51
S"mail.settings.server = 'logging' or 'smtp.gmail.com:587'"
p104
ssg83
S'()'
p105
sg85
S'<module>'
p106
sasS'pyver'
p107
S'Python 2.7.3: /usr/bin/python (prefix: /usr)'
p108
sS'session'
p109
g57
(S's\x1a\x00\x00\x00<div><table></table></div>'
tRp110
sS'etype'
p111
S"<type 'exceptions.NameError'>"
p112
sS'date'
p113
S'Mon Mar 25 23:36:54 2013'
p114
sS'response'
p115
g57
(S's\xf3\x11\x00\x00<div><table><tr><td style="font-weight:bold;vertical-align:top">body</td><td valign="top">:</td><td><div>&lt;cStringIO.StringO object at 0xaeb7aa20&gt;</div></td></tr><tr><td style="font-weight:bold;vertical-align:top">cookies</td><td valign="top">:</td><td><div><table><tr><td style="font-weight:bold;vertical-align:top">session_id_projectlibrary</td><td valign="top">:</td><td><div>127.0.0.1-c918b2a0-6cc0-4ca4-949d-e7d6557ee953<table><tr><td style="font-weight:bold;vertical-align:top">comment</td><td valign="top">:</td><td><div></div></td></tr><tr><td style="font-weight:bold;vertical-align:top">domain</td><td valign="top">:</td><td><div></div></td></tr><tr><td style="font-weight:bold;vertical-align:top">expires</td><td valign="top">:</td><td><div></div></td></tr><tr><td style="font-weight:bold;vertical-align:top">httponly</td><td valign="top">:</td><td><div></div></td></tr><tr><td style="font-weight:bold;vertical-align:top">max-age</td><td valign="top">:</td><td><div></div></td></tr><tr><td style="font-weight:bold;vertical-align:top">path</td><td valign="top">:</td><td><div>/</div></td></tr><tr><td style="font-weight:bold;vertical-align:top">secure</td><td valign="top">:</td><td><div></div></td></tr><tr><td style="font-weight:bold;vertical-align:top">version</td><td valign="top">:</td><td><div></div></td></tr></table></div></td></tr></table></div></td></tr><tr><td style="font-weight:bold;vertical-align:top">delimiters</td><td valign="top">:</td><td><div><table><tr><td><div>{{</div></td></tr><tr><td><div>}}</div></td></tr></table></div></td></tr><tr><td style="font-weight:bold;vertical-align:top">files</td><td valign="top">:</td><td><div><table></table></div></td></tr><tr><td style="font-weight:bold;vertical-align:top">flash</td><td valign="top">:</td><td><div></div></td></tr><tr><td style="font-weight:bold;vertical-align:top">generic_patterns</td><td valign="top">:</td><td><div><table><tr><td><div>*</div></td></tr></table></div></td></tr><tr><td style="font-weight:bold;vertical-align:top">headers</td><td valign="top">:</td><td><div><table><tr><td style="font-weight:bold;vertical-align:top">X-Powered-By</td><td valign="top">:</td><td><div>web2py</div></td></tr></table></div></td></tr><tr><td style="font-weight:bold;vertical-align:top">menu</td><td valign="top">:</td><td><div><table></table></div></td></tr><tr><td style="font-weight:bold;vertical-align:top">meta</td><td valign="top">:</td><td><div><table></table></div></td></tr><tr><td style="font-weight:bold;vertical-align:top">models_to_run</td><td valign="top">:</td><td><div><table><tr><td><div>^\\w+\\.py$</div></td></tr><tr><td><div>^appadmin/\\w+\\.py$</div></td></tr><tr><td><div>^appadmin/index/\\w+\\.py$</div></td></tr></table></div></td></tr><tr><td style="font-weight:bold;vertical-align:top">postprocessing</td><td valign="top">:</td><td><div><table></table></div></td></tr><tr><td style="font-weight:bold;vertical-align:top">session_cookie_expires</td><td valign="top">:</td><td><div>None</div></td></tr><tr><td style="font-weight:bold;vertical-align:top">session_data_name</td><td valign="top">:</td><td><div>session_data_projectlibrary</div></td></tr><tr><td style="font-weight:bold;vertical-align:top">session_file</td><td valign="top">:</td><td><div>&lt;open file &#x27;/home/kira/web2py/applications/projectlibrary/sessions/127.0.0.1-c918b2a0-6cc0-4ca4-949d-e7d6557ee953&#x27;, mode &#x27;rb+&#x27; at 0xae7077b0&gt;</div></td></tr><tr><td style="font-weight:bold;vertical-align:top">session_filename</td><td valign="top">:</td><td><div>/home/kira/web2py/applications/projectlibrary/sessions/127.0.0.1-c918b2a0-6cc0-4ca4-949d-e7d6557ee953</div></td></tr><tr><td style="font-weight:bold;vertical-align:top">session_id</td><td valign="top">:</td><td><div>127.0.0.1-c918b2a0-6cc0-4ca4-949d-e7d6557ee953</div></td></tr><tr><td style="font-weight:bold;vertical-align:top">session_id_name</td><td valign="top">:</td><td><div>session_id_projectlibrary</div></td></tr><tr><td style="font-weight:bold;vertical-align:top">session_locked</td><td valign="top">:</td><td><div>True</div></td></tr><tr><td style="font-weight:bold;vertical-align:top">session_new</td><td valign="top">:</td><td><div>False</div></td></tr><tr><td style="font-weight:bold;vertical-align:top">session_storage_type</td><td valign="top">:</td><td><div>file</div></td></tr><tr><td style="font-weight:bold;vertical-align:top">status</td><td valign="top">:</td><td><div>200</div></td></tr><tr><td style="font-weight:bold;vertical-align:top">view</td><td valign="top">:</td><td><div>appadmin/index.html</div></td></tr></table></div>'
tRp116
sS'locals'
p117
(dp118
S'Service'
p119
S"<class 'gluon.tools.Service'>"
p120
sS'OBJECT'
p121
S"<class 'gluon.html.OBJECT'>"
p122
sS'SQLDB'
p123
S"<class 'gluon.dal.DAL'>"
p124
sg109
S"<Storage {'_formkey[register/None]': 'cd7f0f10-3...owser': {'version': '11.0', 'name': 'Firefox'}}}>"
p125
sS'LINK'
p126
S"<class 'gluon.html.LINK'>"
p127
sS'BR'
p128
S"<class 'gluon.html.BR'>"
p129
sS'local_import'
p130
S'<function <lambda>>'
p131
sS'OPTGROUP'
p132
S"<class 'gluon.html.OPTGROUP'>"
p133
sS'__package__'
p134
S'None'
p135
sS'PRE'
p136
S"<class 'gluon.html.PRE'>"
p137
sS'IS_INT_IN_RANGE'
p138
S"<class 'gluon.validators.IS_INT_IN_RANGE'>"
p139
sS'IS_LOWER'
p140
S"<class 'gluon.validators.IS_LOWER'>"
p141
sS'IS_STRONG'
p142
S"<class 'gluon.validators.IS_STRONG'>"
p143
sS'cache'
p144
S'<gluon.cache.Cache object>'
p145
sS'IS_IN_DB'
p146
S"<class 'gluon.validators.IS_IN_DB'>"
p147
sS'TAG'
p148
S'<gluon.html.__TAG__ object>'
p149
sS'SQLField'
p150
S"<class 'gluon.dal.Field'>"
p151
sS'BODY'
p152
S"<class 'gluon.html.BODY'>"
p153
sS'IS_DATE_IN_RANGE'
p154
S"<class 'gluon.validators.IS_DATE_IN_RANGE'>"
p155
sS'TH'
p156
S"<class 'gluon.html.TH'>"
p157
sS'URL'
p158
S'<function URL>'
p159
sS'__file__'
p160
S"'/home/kira/web2py/applications/projectlibrary/models/db.py'"
p161
sS'db'
p162
S'<DAL uri="sqlite://storage.sqlite">'
p163
sS'P'
S"<class 'gluon.html.P'>"
p164
sS'TFOOT'
p165
S"<class 'gluon.html.TFOOT'>"
p166
sS'XHTML'
p167
S"<class 'gluon.html.XHTML'>"
p168
sS'ON'
p169
S'True'
p170
sS'OL'
p171
S"<class 'gluon.html.OL'>"
p172
sS'TEXTAREA'
p173
S"<class 'gluon.html.TEXTAREA'>"
p174
sS'MENU'
p175
S"<class 'gluon.html.MENU'>"
p176
sS'LOAD'
p177
S'<function LOAD>'
p178
sS'CODE'
p179
S"<class 'gluon.html.CODE'>"
p180
sS'HTTP'
p181
S"<class 'gluon.http.HTTP'>"
p182
sS'HR'
p183
S"<class 'gluon.html.HR'>"
p184
sS'IS_DATETIME'
p185
S"<class 'gluon.validators.IS_DATETIME'>"
p186
sS'HEAD'
p187
S"<class 'gluon.html.HEAD'>"
p188
sS'LABEL'
p189
S"<class 'gluon.html.LABEL'>"
p190
sS'CLEANUP'
p191
S"<class 'gluon.validators.CLEANUP'>"
p192
sS'plugins'
p193
S'<gluon.tools.PluginManager object>'
p194
sS'SELECT'
p195
S"<class 'gluon.html.SELECT'>"
p196
sS'CENTER'
p197
S"<class 'gluon.html.CENTER'>"
p198
sS'prettydate'
p199
S'<function prettydate>'
p200
sS'Crud'
p201
S"<class 'gluon.tools.Crud'>"
p202
sS'Auth'
p203
S"<class 'gluon.tools.Auth'>"
p204
sS'__builtins__'
p205
S"{'ArithmeticError': <type 'exceptions.ArithmeticError'>, 'AssertionError': <type 'exceptions.AssertionError'>, 'AttributeError': <type 'exceptions.AttributeError'>, 'BaseException': <type 'exceptions.BaseException'>, 'BufferError': <type 'exceptions.BufferError'>, 'BytesWarning': <type 'exceptions.BytesWarning'>, 'DeprecationWarning': <type 'exceptions.DeprecationWarning'>, 'EOFError': <type 'exceptions.EOFError'>, 'Ellipsis': Ellipsis, 'EnvironmentError': <type 'exceptions.EnvironmentError'>, ...}"
p206
sS'HTML'
p207
S"<class 'gluon.html.HTML'>"
p208
sS'SQLFORM'
p209
S"<class 'gluon.sqlhtml.SQLFORM'>"
p210
sS'EM'
p211
S"<class 'gluon.html.EM'>"
p212
sS'redirect'
p213
S'<function redirect>'
p214
sS'FIELDSET'
p215
S"<class 'gluon.html.FIELDSET'>"
p216
sS'IS_EQUAL_TO'
p217
S"<class 'gluon.validators.IS_EQUAL_TO'>"
p218
sS'embed64'
p219
S'<function embed64>'
p220
sS'IS_LIST_OF'
p221
S"<class 'gluon.validators.IS_LIST_OF'>"
p222
sS'__name__'
p223
S"'__restricted__'"
p224
sS'EMBED'
p225
S"<class 'gluon.html.EMBED'>"
p226
sS'FORM'
p227
S"<class 'gluon.html.FORM'>"
p228
sS'H2'
p229
S"<class 'gluon.html.H2'>"
p230
sS'H3'
p231
S"<class 'gluon.html.H3'>"
p232
sS'BUTTON'
p233
S"<class 'gluon.html.BUTTON'>"
p234
sS'H1'
p235
S"<class 'gluon.html.H1'>"
p236
sS'H6'
p237
S"<class 'gluon.html.H6'>"
p238
sS'H4'
p239
S"<class 'gluon.html.H4'>"
p240
sS'H5'
p241
S"<class 'gluon.html.H5'>"
p242
sS'UL'
p243
S"<class 'gluon.html.UL'>"
p244
sS'IS_UPPER'
p245
S"<class 'gluon.validators.IS_UPPER'>"
p246
sS'xmlescape'
p247
S'<function xmlescape>'
p248
sS'IS_TIME'
p249
S"<class 'gluon.validators.IS_TIME'>"
p250
sS'OPTION'
p251
S"<class 'gluon.html.OPTION'>"
p252
sS'TITLE'
p253
S"<class 'gluon.html.TITLE'>"
p254
sS'CRYPT'
p255
S"<class 'gluon.validators.CRYPT'>"
p256
sS'IS_EMPTY_OR'
p257
S"<class 'gluon.validators.IS_EMPTY_OR'>"
p258
sS'MARKMIN'
p259
S"<class 'gluon.html.MARKMIN'>"
p260
sS'INPUT'
p261
S"<class 'gluon.html.INPUT'>"
p262
sS'STRONG'
p263
S"<class 'gluon.html.STRONG'>"
p264
sS'COL'
p265
S"<class 'gluon.html.COL'>"
p266
sS'service'
p267
S'<gluon.tools.Service object>'
p268
sS'SCRIPT'
p269
S"<class 'gluon.html.SCRIPT'>"
p270
sS'TABLE'
p271
S"<class 'gluon.html.TABLE'>"
p272
sS'IS_IPV4'
p273
S"<class 'gluon.validators.IS_IPV4'>"
p274
sS'IS_LENGTH'
p275
S"<class 'gluon.validators.IS_LENGTH'>"
p276
sS'XML'
p277
S"<class 'gluon.html.XML'>"
p278
sS'B'
S"<class 'gluon.html.B'>"
p279
sS'IMG'
p280
S"<class 'gluon.html.IMG'>"
p281
sS'SQLTABLE'
p282
S"<class 'gluon.sqlhtml.SQLTABLE'>"
p283
sS'IS_MATCH'
p284
S"<class 'gluon.validators.IS_MATCH'>"
p285
sS'IS_ALPHANUMERIC'
p286
S"<class 'gluon.validators.IS_ALPHANUMERIC'>"
p287
sS'SPAN'
p288
S"<class 'gluon.html.SPAN'>"
p289
sS'IS_JSON'
p290
S"<class 'gluon.validators.IS_JSON'>"
p291
sS'IS_SLUG'
p292
S"<class 'gluon.validators.IS_SLUG'>"
p293
sS'BEAUTIFY'
p294
S"<class 'gluon.html.BEAUTIFY'>"
p295
sS'META'
p296
S"<class 'gluon.html.META'>"
p297
sS'IS_DATE'
p298
S"<class 'gluon.validators.IS_DATE'>"
p299
sS'IS_EMAIL'
p300
S"<class 'gluon.validators.IS_EMAIL'>"
p301
sS'IS_NOT_EMPTY'
p302
S"<class 'gluon.validators.IS_NOT_EMPTY'>"
p303
sS'IS_FLOAT_IN_RANGE'
p304
S"<class 'gluon.validators.IS_FLOAT_IN_RANGE'>"
p305
sS'TBODY'
p306
S"<class 'gluon.html.TBODY'>"
p307
sS'CAT'
p308
S"<class 'gluon.html.CAT'>"
p309
sS'Field'
p310
S"<class 'gluon.dal.Field'>"
p311
sS'DIV'
p312
S"<class 'gluon.html.DIV'>"
p313
sS'LEGEND'
p314
S"<class 'gluon.html.LEGEND'>"
p315
sS'COLGROUP'
p316
S"<class 'gluon.html.COLGROUP'>"
p317
sS'DAL'
p318
S"<class 'gluon.dal.DAL'>"
p319
sS'TT'
p320
S"<class 'gluon.html.TT'>"
p321
sS'TR'
p322
S"<class 'gluon.html.TR'>"
p323
sS'LI'
p324
S"<class 'gluon.html.LI'>"
p325
sS'IFRAME'
p326
S"<class 'gluon.html.IFRAME'>"
p327
sS'TD'
p328
S"<class 'gluon.html.TD'>"
p329
sS'PluginManager'
p330
S"<class 'gluon.tools.PluginManager'>"
p331
sS'IS_URL'
p332
S"<class 'gluon.validators.IS_URL'>"
p333
sS'A'
S"<class 'gluon.html.A'>"
p334
sS'STYLE'
p335
S"<class 'gluon.html.STYLE'>"
p336
sS'IS_DATETIME_IN_RANGE'
p337
S"<class 'gluon.validators.IS_DATETIME_IN_RANGE'>"
p338
sS'IS_IMAGE'
p339
S"<class 'gluon.validators.IS_IMAGE'>"
p340
sS'I'
S"<class 'gluon.html.I'>"
p341
sS'crud'
p342
S'<gluon.tools.Crud object>'
p343
sS'IS_NOT_IN_DB'
p344
S"<class 'gluon.validators.IS_NOT_IN_DB'>"
p345
sg115
S"<Storage {'body': <cStringIO.StringO object at 0...> at 0xae723e64>, 'view': 'appadmin/index.html'}>"
p346
sS'THEAD'
p347
S"<class 'gluon.html.THEAD'>"
p348
sS'IS_NULL_OR'
p349
S"<class 'gluon.validators.IS_EMPTY_OR'>"
p350
sg56
S"<Storage {'function': 'index', 'body': <cStringI...ons/projectlibrary/', 'post_vars': <Storage {}>}>"
p351
sS'IS_EXPR'
p352
S"<class 'gluon.validators.IS_EXPR'>"
p353
sS'IS_IN_SET'
p354
S"<class 'gluon.validators.IS_IN_SET'>"
p355
sS'IS_UPLOAD_FILENAME'
p356
S"<class 'gluon.validators.IS_UPLOAD_FILENAME'>"
p357
sS'IS_DECIMAL_IN_RANGE'
p358
S"<class 'gluon.validators.IS_DECIMAL_IN_RANGE'>"
p359
sS'T'
S'<gluon.languages.translator object>'
p360
sssS'traceback'
p361
S'Traceback (most recent call last):\n  File "/home/kira/web2py/gluon/restricted.py", line 212, in restricted\n    exec ccode in environment\n  File "/home/kira/web2py/applications/projectlibrary/models/db.py", line 47, in <module>\n    auth.define_tables(username=False, signature=False)\nNameError: name \'auth\' is not defined\n'
p362
s.