(dp1
S'output'
p2
S'missing "pass" in view'
p3
sS'layer'
p4
S'ParserContainer'
p5
sS'code'
p6
S'response.write(\'<!DOCTYPE html PUBLIC "-//W3C//DTD XHTML 1.0 Strict//EN" "http://www.w3.org/TR/xhtml1/DTD/xhtml1-strict.dtd">\\n<!--\\nDesign by Free CSS Templates\\nhttp://www.freecsstemplates.org\\nReleased for free under a Creative Commons Attribution 2.5 License\\n\\nName       : Orange And Black\\nDescription: A two-column, fixed-width design for 1024x768 screen resolutions.\\nVersion    : 1.0\\nReleased   : 20090203\\n\\n-->\\n\\n<html xmlns="http://www.w3.org/1999/xhtml">\\n <head>\\n <title>\\n\', escape=False)\nresponse.write(response.title or request.application)\nresponse.write(\'\\n</title>\\n  \\n  \', escape=False)\nresponse.files.append(URL(request.application,\'static\',\'plugin_layouts/layouts/OrangeandBlack/style.css\'))\nresponse.write(\'\\n  \', escape=False)\nresponse.files.append(URL(\'static\',\'plugin_layouts/superfish.js\'))\nresponse.write(\'\\n\\n\', escape=False)\nresponse.write(\'<script type="text/javascript"><!--\\n    // These variables are used by the web2py_ajax_init function in web2py_ajax.js (which is loaded below).\\n    var w2p_ajax_confirm_message = "\', escape=False)\nresponse.write(T(\'Are you sure you want to delete this object?\'))\nresponse.write(\'";\\n    var w2p_ajax_date_format = "\', escape=False)\nresponse.write(T(\'%Y-%m-%d\'))\nresponse.write(\'";\\n    var w2p_ajax_datetime_format = "\', escape=False)\nresponse.write(T(\'%Y-%m-%d %H:%M:%S\'))\nresponse.write(\'";\\n    var ajax_error_500 = \\\'\', escape=False)\nresponse.write(XML(T(\'An error occured, please %s the page\') % A(T(\'reload\'), _href=URL(args=request.args, vars=request.vars))))\nresponse.write("\'\\n    //--></script>\\n", escape=False)\nresponse.files.insert(0,URL(\'static\',\'js/jquery.js\'))\nresponse.files.insert(1,URL(\'static\',\'css/calendar.css\'))\nresponse.files.insert(2,URL(\'static\',\'js/calendar.js\'))\nresponse.files.insert(3,URL(\'static\',\'js/web2py.js\'))\nresponse.include_meta()\nresponse.include_files()\nresponse.write(\'\\n\', escape=False)\nresponse.write(\'\\n  <style>\\nul.web2py-menu-vertical { width: 150px; position: relative; top:1em; left:1em;  z-index:30; border:0; margin:0; padding: 0; list-style: none; text-decoration: none;}\\nul.web2py-menu-vertical li { margin:0; padding:0; border:0; width: 150px; background: black; text-align:left;}\\nul.web2py-menu-vertical li a { margin:0; padding: 1px 3px 1px 3px; border:0; width: 144px; color: white; font-size:12px;}\\ndiv.flash { position: fixed; float: right; padding: 10px; top: 10px; right: 300px; opacity: 5.00; margin: 10px 10px 10px 10px; text-align: center; clear: both; color: #fff; font-size: 11pt; text-align: center; vertical-align: middle; cursor: pointer; background: black; border: 2px solid #fff; -moz-border-radius: 5px; -webkit-border-radius: 5px; z-index: 2; }\\ndiv.error { background-color: red; color: white; padding: 3px; }\\n.auth_navbar { text-align:right; z-index:20; position: absolute; top: 100px; right:30px; border:0; padding:0 }\\n  </style>\\n </head>\\n <body>\\n<!-- start header -->\\n  \', escape=False)\ntry:\n    response.write(auth.navbar(referrer_actions=None,action=URL(\'default\',\'user\')))\nexcept:pass\nresponse.write(\'\\n\\n\\n  <div id="header-wrapper">\\n   <div id="header">\\n    <div id="menu">\\n     \', escape=False)\nresponse.write(MENU(response.menu,_class=\'web2py-menu\'))\nresponse.write(\'\\n    <script>\\n      jQuery(document).ready(function(){jQuery(\\\'ul.web2py-menu\\\').superfish({delay:400});});\\n    </script>\\n    </div>\\n    <!-- end #menu -->\\n    <div id="search">\\n    <form method="get" action=\', escape=False)\nresponse.write(URL(\'search_func\'))\nresponse.write(\'>\\n      <fieldset>\\n       <input type="text" name="s" id="search-text" size="50" />\\n       <input type="submit" id="search-submit" value="Search" />\\n       </fieldset>\\n     </form>\\n    \\n    </div>\\n    <!-- end #search -->\\n   </div>\\n   <!-- end #header -->\\n  </div>\\n  <!-- end #header-wrapper -->\\n  <div id="page">\\n  <br/>\\n  <br/>\\n  <br/>\\n  <br/>\\n   <div id="logo">\\n<!--  <img height=\\\'40px\\\' src=\', escape=False)\nresponse.write(URL(\'static\',\'images/title.gif\'))\nresponse.write(\'>\\n-->   \\n  <h1>\\n   \\n     \', escape=False)\nresponse.write(response.title or request.application)\nresponse.write(\'\\n     \\n    </h1>\\n   \\n   </div>\\n   <hr />\\n   <!-- end #logo -->\\n   <div id="content">\\n    <div class="flash">\', escape=False)\nresponse.write(response.flash or \'\')\nresponse.write(\'</div>\\n    \', escape=False)\nresponse.write(\'\\n\', escape=False)\nuser=form[0].email\nresponse.write(\'\\n\\n<h1>\', escape=False)\nresponse.write(form[0].first_name)\nresponse.write(\' \', escape=False)\nresponse.write(form[0].last_name)\nresponse.write(\'</h1>\\n</br>\\n\\n\', escape=False)\nif auth.user:\n    response.write(\'\\n\', escape=False)\n    if auth.user.email==user:\n        response.write(\'\\n<div style="float: right;">\\n<form id=\\\'form\\\' action=\', escape=False)\n        response.write(URL(\'editprofile\'))\n        response.write(">\\n<input type=\'submit\' value=\'Edit your Profile\' ></input>\\n</div>\\n", escape=False)\n        pass\n    response.write(\'\\n\', escape=False)\n    pass\nresponse.write(\'\\nCountry: \', escape=False)\nresponse.write(form[0].country)\nresponse.write(\'\\n<br/>\\nPart of ProjectLibrary from : [ \', escape=False)\nresponse.write(form[0].registration_date)\nresponse.write(\' ]\\n<br/>\\n<br/>\\n<h2>Projects Uploaded\\n</h2>\\n\', escape=False)\nif auth.user:\n    response.write(\'\\n\', escape=False)\n    if auth.user.email==user:\n        response.write(\'\\n<div style="float: right;">\\n<form id=\\\'form\\\' action=\', escape=False)\n        response.write(URL(\'editprofile\'))\n        response.write(">\\n<input type=\'submit\' value=\'Delete Projects\' ></input>\\n</div>\\n", escape=False)\n        pass\n    response.write(\'\\n\', escape=False)\n    pass\nresponse.write(\'\\n\', escape=False)\nif auth.user:\n    response.write(\'\\n\', escape=False)\n    if auth.user.email==user:\n        response.write(\'\\n<div style="float: right;">\\n<form id=\\\'form\\\' action=\', escape=False)\n        response.write(URL(\'editprofile\'))\n        response.write(">\\n<input type=\'submit\' value=\'Change Collaborators\' ></input>\\n</div>\\n", escape=False)\n        pass\n    response.write(\'\\n\', escape=False)\n    pass\nresponse.write(\'\\n\', escape=False)\nif auth.user:\n    response.write(\'\\n\', escape=False)\n    if auth.user.email==user:\n        response.write(\'\\n<div style="float: right;">\\n<form id=\\\'form\\\' action=\', escape=False)\n        response.write(URL(\'editprofile\'))\n        response.write(">\\n<input type=\'submit\' value=\'Edit Projects\' ></input>\\n</div>\\n", escape=False)\n        pass\n    response.write(\'\\n\', escape=False)\n    pass\nresponse.write(\'\\n\', escape=False)\nproject=db(db.project.projectadmin_email==user).select()\nresponse.write(\'\\n\\n\', escape=False)\nif auth.user:\n    response.write(\'\\n<ul>\\n\', escape=False)\n    for some in project:\n        response.write(\'\\n\', escape=False)\n        some.project_name=some.project_name.upper()\n        response.write(\'\\n\\n\', escape=False)\n        response.write(LI(A(some.project_name, _href=URL("project_page",args=some.id))))\n        response.write(\'\\n\', escape=False)\n        pass\n    response.write(\'\\n<h2>Projects with my Collaboration</h2> \\n\', escape=False)\n    for i in range(len(row)):\n        response.write(\'\\n\', escape=False)\n        this=db(db.project.project_name==row[i].project_name).select()\n        response.write(\'\\n\', escape=False)\n        response.write(LI(A(row[i].project_name.upper(), _href=URL("project_page",args=this[0].id))))\n        response.write(\'\\n\', escape=False)\n        pass\n    response.write(\'\\n\', escape=False)\n    pass\nresponse.write(\'\\n\', escape=False)\nif auth.user:\n    response.write(\'\\n\', escape=False)\n    if auth.user.email==user:\n        response.write(\'\\n<div style="float: right;">\\n<form id=\\\'form\\\' action=\', escape=False)\n        response.write(URL(\'editprofile\'))\n        response.write(">\\n<input type=\'submit\' value=\'Edit Collaboration Projects\' ></input>\\n</div>\\n", escape=False)\n        pass\n    response.write(\'\\n\', escape=False)\n    if auth.user.email==user:\n        response.write(\'\\n\', escape=False)\n        response.write(\'\\n   </div>\\n   <!-- end #content -->\\n   <div id="sidebar">\\n    <ul>\\n     <li>\\n      <h2>\\n       Website Description\\n      </h2>\\n      <p>\\n      ProjectLibrary is desgned for users to upload and share their projects with other users. "Knowledge is of two kinds. We know a subject ourselves, or we know where we can find information upon it.\\n      </br>- <b>Samuel Johnson</b>\\n      </p>\\n     </li> \\n    </ul>\\n   </div>\\n   <!-- end #sidebar -->\\n\\n   <div style="clear: both;">\\n    &nbsp;\\n   </div>\\n\\n  </div>\\n  <!-- end #page -->\\n  <div id="footer">\\n   <p>\\n    Copyright (c) 2013 ProjectLibrary.com. All rights reserved. Design by\\n    Jaspreet Singh &amp; Shikher Somal\\n   </p>\\n  </div>\\n  <!-- end #footer -->\\n </body>\\n</html>\\n\', escape=False)'
p7
sS'snapshot'
p8
(dp9
sS'traceback'
p10
S'None\n'
p11
s.