(dp1
S'output'
p2
S"<type 'exceptions.ImportError'> Cannot import module 'shutill'"
p3
sS'layer'
p4
S'/home/kira/web2py/applications/projectlibrary/controllers/default.py'
p5
sS'code'
p6
S'# -*- coding: utf-8 -*-\n# this file is released under public domain and you can use without limitations\n\n#########################################################################\n## This is a samples controller\n## - index is the default action of any application\n## - user is required for authentication and authorization\n## - download is for downloading files uploaded in the db (does streaming)\n## - call exposes all registered services (none by default)\n#########################################################################\n\n\ndef index():\n    form = db().select(db.project.ALL, orderby=~db.project.num_downloads)\n    \n    form1 = db().select(db.project.ALL, orderby=~db.project.date_added)\n    return dict(form=form,form1=form1)\n    """\n    example action using the internationalization operator T and flash\n    rendered by views/default/index.html or views/generic.html\n\n    if you need a simple wiki simple replace the two lines below with:\n    return auth.wiki()\n    """\n    session.flash = T("Welcome to Project Library")\n    return dict(message=T(\'Search - Download - Upload\'))\n\n\ndef user():\n    """\n    exposes:\n    http://..../[app]/default/user/login\n    http://..../[app]/default/user/logout\n    http://..../[app]/default/user/register\n    http://..../[app]/default/user/profile\n    http://..../[app]/default/user/retrieve_password\n    http://..../[app]/default/user/change_password\n    use @auth.requires_login()\n        @auth.requires_membership(\'group name\')\n        @auth.requires_permission(\'read\',\'table name\',record_id)\n    to decorate functions that need access control\n    """\n    return dict(form=auth())\n\n\ndef download():\n    """\n    allows downloading of uploaded files\n    http://..../[app]/default/download/[filename]\n    """\n    return response.download(request, db)\n\n\ndef call():\n    """\n    exposes services. for example:\n    http://..../[app]/default/call/jsonrpc\n    decorate with @services.jsonrpc the functions to expose\n    supports xml, json, xmlrpc, jsonrpc, amfrpc, rss, csv\n    """\n    return service()\n\n\n@auth.requires_signature()\ndef data():\n    """\n    http://..../[app]/default/data/tables\n    http://..../[app]/default/data/create/[table]\n    http://..../[app]/default/data/read/[table]/[id]\n    http://..../[app]/default/data/update/[table]/[id]\n    http://..../[app]/default/data/delete/[table]/[id]\n    http://..../[app]/default/data/select/[table]\n    http://..../[app]/default/data/search/[table]\n    but URLs must be signed, i.e. linked with\n      A(\'table\',_href=URL(\'data/tables\',user_signature=True))\n    or with the signed load operator\n      LOAD(\'default\',\'data.load\',args=\'tables\',ajax=True,user_signature=True)\n    """\n    return dict(form=crud())\n\ndef clearnoti():\n\tform=db(db.flak.user_id==auth.user.id).select()\n\tfor some in form:\n\t\tsome.all_flag=False\n\t\tsome.comments_flag=False\n\t\tsome.rating_flag=False\n\t\tsome.download_flag=False\n\t\tsome.update_record()\n\tredirect(URL(\'noti\'))\n\t\n\n\ndef search_func():\n\tform = db().select(db.project.ALL, orderby=db.project.project_name)\n\tform1=db().select(db.auth_user.ALL)\n\tform2=db().select(db.files.ALL)\n\tt= request.vars.s\n\treturn dict(t=t,form=form,form1=form1,form2=form2)\n\ndef register():\n\tform = crud.create(db.auth_user)\n\treturn dict(form=form)\n\n@auth.requires_login()\ndef viewsub():\n\t\tuser=db(db.subscribe.cur_user==auth.user.id).select()\n\t\treturn dict(user=user)\n@auth.requires_login()\ndef delsub():\n\tdb((db.subscribe.cur_user==auth.user.id) & (db.subscribe.sub_user==request.args(0,cast=int))).delete()\n\tredirect(URL(\'viewsub\'))\n\n\n\n@auth.requires_login()\ndef sub():\n\tuser=db(db.auth_user.id==request.args(0,cast=int)).select().first()\n\tif auth.user.email!=user.email:\n\t\tsad=db((db.subscribe.cur_user==auth.user.id) & (db.subscribe.sub_user==user.id)).select()\n\t\tif len(sad)==0:\n\t\t\ts="You are now subscribed to  "+str(user.email)\n\t\t\tsession.flash=s\n\t\t\tdb.subscribe.insert(cur_user=auth.user.id,sub_user=user.id,is_sub=1)\n\t\telse:\n\t\t\ts="You are already subscribed to  "+str(user.email)\n\t\t\tsession.flash=s\n\telse:\n\t\ts="You cannot subscribe to yourself"\n\t\tsession.flash=s\n\t  \t\n\tredirect(URL(\'allprofile\',args=user.id))\n\treturn dict()\n\n@auth.requires_login()\ndef delkol():\n\tdb((db.kolect.cur_user==auth.user.id) & (db.kolect.project_id==request.args(0,cast=int))).delete()\n\tredirect(URL(\'viewkol\'))\n\n@auth.requires_login()\ndef viewkol():\n\t\tsad=db(db.kolect.cur_user==auth.user.id).select()\n\t\treturn dict(sad=sad)\n\t\t\t\n\n@auth.requires_login()\ndef addtokol():\n\tproject=db.project(request.args(0,cast=int)) or redirect(URL(\'index\'))\n\n\tsad=db((db.kolect.cur_user==auth.user.id) & (db.kolect.project_id==project.id)).select()\n\tif len(sad)==0:\n\t\ts=str(project.project_name) + \' is now added to your Collection\' \n\t\tsession.flash=s\n\t\tdb.kolect.insert(cur_user=auth.user.id,project_id=project.id,is_sub=1)\n\telse:\n\t\ts=str(project.project_name) + \' is already in your Collection\' \n\t\tsession.flash=s\n\tredirect(URL(\'project_page\',args=project.id))\n\treturn dict(project=project)\n\n\ndef noti():\n\tseen=db(db.flak.user_id==auth.user.id).select()\n\treturn dict(seen=seen)\n\ndef profile():\n\tredirect(URL(\'allprofile\',args=auth.user.id))\n\ndef editprojects():\n\tform = db(db.auth_user.id==auth.user.id).select()\n\trow=db(db.allowed_users.other_email==auth.user.email).select()\n\tproject=db(db.project.projectadmin_email==auth.user.email).select()\n\treturn dict(row=row,form=form,project=project)\n\n\ndef editprofile():\n\tform = db(db.auth_user.id==auth.user.id).select()\n\trow=db(db.allowed_users.other_email==auth.user.email).select()\n\tdb.auth_user.email.writable=False\n\treturn dict(form1=auth.profile(),row=row,form=form)\n\ndef allprofile():\n\tform = db(db.auth_user.id==request.args(0,cast=int)).select()\n\trow1=db(db.allowed_users.other_email==form[0].email).select()\n\n\tif auth.user:\n\t\trow=db(db.allowed_users.other_email==auth.user.email).select()\n\t\treturn dict(form=form,row=row,row1=row1)\n\telse:\n\t\treturn dict(form=form,row1=row1)\n\ndef byuploads():\n\tform = db().select(db.auth_user.ALL, orderby=~db.auth_user.upload_count)\n\treturn dict(form = form)\n\ndef most_recent():\n\tform = db().select(db.project.ALL, orderby=~db.project.date_added)\n\treturn dict(form=form)\n\t\ndef bycomments():\n\tform = db().select(db.project.ALL, orderby=~db.project.num_comments)\n\treturn dict(form=form)\n\ndef bydownloads():\n\tform = db().select(db.project.ALL, orderby=~db.project.num_downloads)\n\treturn dict(form=form)\n\ndef byrating():\n\tform = db().select(db.project.ALL, orderby=~db.project.avg_rating)\n\treturn dict(form=form)\n\ndef az():\n\tform = db().select(db.project.ALL, orderby=db.project.project_name)\n\treturn dict(form=form)\ndef za():\n\tform1 = db().select(db.project.ALL, orderby=~db.project.project_name)\n\treturn dict(form1=form1)\ndef browse():\n\tform = db().select(db.project.ALL, orderby=db.project.project_name)\n\treturn dict(form=form)\n\n@auth.requires_login()\ndef uploadpage():\n\treturn dict()\n\ndef viewfiles():\n\t\n\tproject=db.project(request.args(0,cast=int)) or redirect(URL(\'index\'))\n\tmain=db(db.files.project_id==project.id).select()\n\tver1=db((db.files.project_version==1) & (db.files.project_id==project.id)).select()\n\tver2=db((db.files.project_version==2) & (db.files.project_id==project.id)).select()\n\tver3=db((db.files.project_version==3) & (db.files.project_id==project.id)).select()\n\n\treturn dict(ver1=ver1,ver2=ver2,ver3=ver3,main=main,project=project)\n\ndef delfile3():\n\tfiles=db((db.files.file_name==request.args(0,cast=str)) & (db.files.project_version==1)).select().last()\n\tdb((db.files.file_name==request.args(0,cast=str)) & (db.files.project_version==3)).delete()\n\tsession.flash="File Deleted"\n\tredirect(URL(\'viewfiles\',args=files.project_id))\ndef delfile2():\n\tfiles=db((db.files.file_name==request.args(0,cast=str)) & (db.files.project_version==1)).select().last()\n\tdb((db.files.file_name==request.args(0,cast=str)) & (db.files.project_version==2)).delete()\n\tsession.flash="File Deleted"\n\tredirect(URL(\'viewfiles\',args=files.project_id))\ndef delfile1():\n\tfiles=db((db.files.file_name==request.args(0,cast=str)) & (db.files.project_version==1)).select().last()\n\tdb((db.files.file_name==request.args(0,cast=str)) & (db.files.project_version==1)).delete()\n\tsession.flash="File Deleted"\n\tredirect(URL(\'viewfiles\',args=files.project_id))\n\nimport shutill\n\ndef zip():\n\tproject=db.project(request.args(0,cast=int))\n\timport os\n\tos.chdir("/home/kira/web2py/applications/projectlibrary/uploads")\n\trow=db(db.files.project_id==project.id).select()\n\tfor some in row:\n\t\tos.system("cp"+" "+some.project_file+" "+str(project.id))\n\tshutill.rmtree(str(project.id))\n\t\n\n#home/kira/web2py\t\n\ndef addfiles():\n\t\n\tform=SQLFORM(db.files)\n\tproject=db.project(request.args(0,cast=int)) or redirect(URL(\'index\'))\n\tif form.process().accepted:\n\t\tsession.flash=\'Files Added\'\n\t\tmain2=db(db.files.file_name==request.vars.file_name).select().last()\n\t\tmain2.project_id=project.id\n\t\tmain=db((db.files.file_name==request.vars.file_name) & (db.files.project_id==project.id)).select()\n\t\tv1=db((db.files.file_name==request.vars.file_name) & (db.files.project_id==project.id) &(db.files.project_version==1)).select()\n\t\tv2=db((db.files.file_name==request.vars.file_name) & (db.files.project_id==project.id) &(db.files.project_version==2)).select()\n\t\tv3=db((db.files.file_name==request.vars.file_name) & (db.files.project_id==project.id) &(db.files.project_version==3)).select()\n\t\t\n\t\tif len(main)==3:\n\t\t\tv1[0].project_file=v2[0].project_file\n\t\t\tv1[0].file_description=v2[0].file_description\n\t\t\tv2[0].file_description=v3[0].file_description\n\t\t\tv3[0].file_description=request.vars.file_description\n\t\t\tv2[0].project_file=v3[0].project_file\n\t\t\tv3[0].project_file=request.vars.project_file\n\t\t\tv1[0].update_record()\n\t\t\tv2[0].update_record()\n\t\t\tv3[0].update_record()\n\t\telif len(main)==2:\n\t\t\tif len(v1)==0:\n\t\t\t\tdb.files.insert(project_version=1,file_name=v2[0].file_name,project_file=v2[0].project_file,file_description=v2[0].file_description,project_id=project.id)\n\t\t\t\tv2[0].file_description=v3[0].file_description\n\t\t\t\tv2[0].project_file=v3[0].project_file\n\t\t\t\tv2[0].update_record()\n\t\t\t\tdb((db.files.file_name==v3[0].file_name) & (db.files.project_id==project.id) &(db.files.project_version==3)).delete()\n\t\t\t\tmain2.project_version=len(main) + 1\n\t\t\t\tmain2.update_record()\n\t\t\telif len(v2)==0:\n\t\t\t\tdb.files.insert(project_version=2,file_name=v3[0].file_name,project_file=v3[0].project_file,file_description=v3[0].file_description,project_id=project.id)\n\t\t\t\tdb((db.files.file_name==v3[0].file_name) & (db.files.project_id==project.id) &(db.files.project_version==3)).delete()\n\t\t\t\t\t\t\t\n\t\t\t\tmain2.project_version=len(main) + 1\n\t\t\t\tmain2.update_record()\n\t\t\telif len(v3)==0:\n\t\t\t\tmain2.project_version=len(main) + 1\n\t\t\t\tmain2.update_record()\n\t\telif len(main)==1:\n\t\t\tif len(v1)==0 and len(v2)==0:\n\t\t\t\tdb.files.insert(project_version=1,file_name=v3[0].file_name,project_file=v3[0].project_file,file_description=v3[0].file_description,project_id=project.id)\n\t\t\t\tdb((db.files.file_name==v3[0].file_name) & (db.files.project_id==project.id) &(db.files.project_version==3)).delete()\n\t\t\t\tmain2.project_version=len(main) + 1\n\t\t\t\tmain2.update_record()\n\t\t\telif len(v1)==0 and len(v3)==0:\n\t\t\t\tdb.files.insert(project_version=1,file_name=v2[0].file_name,project_file=v2[0].project_file,file_description=v2[0].file_description,project_id=project.id)\n\t\t\t\tdb((db.files.file_name==v2[0].file_name) & (db.files.project_id==project.id) &(db.files.project_version==2)).delete()\n\t\t\t\tmain2.project_version=len(main) + 1\n\t\t\t\tmain2.update_record()\n\t\t\t\t\n\t\t\telif len(v2)==0 and len(v3)==0:\n\t\t\t\tmain2.project_version=len(main) + 1\n\t\t\t\tmain2.update_record()\n\t\t\t\t\n\t\telse:\n\t\t\tmain2.project_version=len(main) + 1\n\t\t\tmain2.update_record()\n\t\trow1=db(db.auth_user.email==auth.user.email).select()\n\t\trow1[0].upload_count = row1[0].upload_count + 1\n\t\trow1[0].update_record()\n\t\tdb(db.files.project_version==0).delete()\n\t\tredirect(URL(\'viewfiles\',args=project.id))\n\treturn dict(project=project,form=form)\n\ndef oldproject():\n\trow=db(db.allowed_users.other_email==auth.user.email).select()\n\t\t\n\treturn dict(row=row)\n\n\t\ndef newproject():\n\tform = SQLFORM(db.project)\n\n\tif form.process().accepted:\n\t\tsome=db(db.project.project_name==request.vars.project_name).select()\n\t\trow=db(db.project.project_name==request.vars.project_name).validate_and_update(projectadmin_email=auth.user.email)\n\t\trow1=db(db.auth_user.email==auth.user.email).select()\n\t\trow1[0].upload_count = row1[0].upload_count + 1\n\t\trow1[0].update_record()\n\t\tdb.flak.insert(user_id=auth.user.id,project_id=db().select(db.project.id).last())\n\t\tredirect(URL(\'project_page\',args=some[0].id))\n\treturn dict(form=form)\n\ndef category():\n\tform = db().select(db.project.ALL, orderby=db.project.project_name)\n\treturn dict(form=form)\n\ndef listofprojects():\n\tform =db(db.project.category==request.args(0,cast=str)).select()\n\treturn dict(form=form)\n\ndef most_uploaded():\n\tform = db().select(db.auth_user.ALL)\n\treturn dict(form=form)\n\n\ndef most_rated():\n\tform = db().select(db.project.ALL)\n\treturn dict(form=form)\n\ndef most_commented():\n\tform = db().select(db.project.ALL)\n\treturn dict(form=form)\n\ndef userprojects():\n\tprojects=db(db.project.projectadmin_email==auth.user.email).select()\n\treturn dict(projects=projects)\ndef download_func3():\n\t\n\tmain=db((db.files.project_id==request.args(0,cast=int)) & (db.files.project_version==3)).select()\n\t\n\tproject = db.project(request.args(0,cast=int)) or redirect(URL(\'index\'))\n\tproject.num_downloads=project.num_downloads + 1\n\tproject.update_record()\n\tcan=db(db.flak.project_id==project.id).select()\n\tif len(can)!=0:\n\t\n\t\tcan[0].download_flag=True\n\t\tcan[0].all_flag=True\n\t\tcan[0].update_record()\n\n\tredirect(URL(\'download\',args=main[0].project_file))\ndef download_func2():\n\t\n\tmain=db((db.files.project_id==request.args(0,cast=int)) & (db.files.project_version==2)).select()\n\t\n\tproject = db.project(request.args(0,cast=int)) or redirect(URL(\'index\'))\n\tproject.num_downloads=project.num_downloads + 1\n\tproject.update_record()\n\tcan=db(db.flak.project_id==project.id).select()\n\tif len(can)!=0:\n\t\tcan[0].download_flag=True\n\t\tcan[0].all_flag=True\n\t\tcan[0].update_record()\n\n\tredirect(URL(\'download\',args=main[0].project_file))\ndef download_func1():\n\t\n\tmain=db((db.files.project_id==request.args(0,cast=int)) & (db.files.project_version==1)).select()\n\t\n\tproject = db.project(request.args(0,cast=int)) or redirect(URL(\'index\'))\n\tproject.num_downloads=project.num_downloads + 1\n\tproject.update_record()\n\tcan=db(db.flak.project_id==project.id).select()\n\tif len(can)!=0:\n\t\tcan[0].download_flag=True\n\t\tcan[0].all_flag=True\n\t\tcan[0].update_record()\n\n\tredirect(URL(\'download\',args=main[0].project_file))\n\n\ndef mostdownload():\n\tform=db().select(db.project.ALL)\n\treturn dict(form=form)\n"""\ndef clear():\n\tdb.project.truncate()\n\tdb.auth_user.truncate()\n\tdb.comments.truncate()\n\tdb.flak.truncate()\n\tdb.subscribe.truncate()\n\tdb.allowed_users.truncate()\n\tdb.files.truncate()\n\tdb.kolect.truncate()\n\n\treturn dict()\n"""\n\n@auth.requires_login()\ndef delproject():\n\t\n\tproject = db.project(request.args(0,cast=int)) or redirect(URL(\'index\'))\n\n\tdb(db.allowed_users.project_name==project.project_name).delete()\n\tdb(request.args(0,cast=int)==db.project.id).delete()\n\tsession.flash = \'Project deleted\'\n\tredirect(URL(\'editprojects\'))\n\n\n@auth.requires_login()\ndef change_project():\n\tproject = db.project(request.args(0,cast=int))\n\t\n\tform = SQLFORM.factory(\n\t\t\tField(\'description\',type=\'text\',default=project.description),\n\t\t\tField(\'projectadmin_email\',writable=False,readable=False,default=auth.user.email),\n\t\t\tField(\'project_pic\',type=\'upload\',uploadfolder=\'uploads\'),\n\t\t\tField(\'type_of_project\',requires=IS_IN_SET([\'Course\',\'Thesis\',\'Research Paper\',\'MSIT\',\'Other\']),default=project.type_of_project),\n\t\t\tField(\'category\',requires=IS_IN_SET([\'Audio & Video\',\'Business & Enterprise\',\'Communications\',\'Development\',\'Home & Education\',\'Games\',\'Graphics\',\'Science & Engineering\',\'Websites\',\'Others\']),default=project.category),\n\t\t\tField(\'project_admin_year\',requires=IS_IN_SET([\'BTECH\',\'MS\',\'MTECH\',\'PHD\']),default=project.project_admin_year)\n\t\t\n\t\t\t)\n\tif form.process().accepted:\n\t\tsession.flash=\'Project Details Updated\'\n\t\tdb(db.project.id==request.args(0,cast=int)).update(project_pic=form.vars.project_pic,description=form.vars.description,type_of_project=form.vars.type_of_project,category=form.vars.category,project_admin_year=form.vars.project_admin_year)\n\t\tredirect(URL(\'change_project\',args=project.id))\n\treturn dict(form=form,project=project)\n\ndef project_page():\n\tproject = db.project(request.args(0,cast=int)) or redirect(URL(\'index\'))\n\tdb.comments.project_id.default = project.id\n\tform = SQLFORM(db.comments)\n\tcomments = db(db.comments.project_id==project.id).select()\n\treturn dict(project=project, comments=comments, form=form)\n\n@auth.requires_login()\ndef commentandrate():\n\tproject = db.project(request.args(0,cast=int)) or redirect(URL(\'index\'))\n\tdb.comments.project_id.default = project.id\n\tform = SQLFORM(db.comments)\n\tform1= SQLFORM.factory(\n\t\tField(\'rating\',type=\'integer\',requires=IS_IN_SET([1,2,3,4,5])))\n\t\n\tif form.process().accepted:\n\t\trow=db(db.comments.comment_c==request.vars.comment_c).select().last()\n\t\trow.commenter_c=auth.user.email\n\t\trow.update_record()\n\t\t\n\t\tcan=db(db.flak.project_id==project.id).select()\n\t\tif len(can)!=0:\n\t\t\tcan[0].comments_flag=True\n\t\t\tcan[0].all_flag=True\n\t\t\tcan[0].update_record()\n\t\tresponse.flash = \'your comment is posted\'\n\t\n\tif form1.process().accepted:\n\t\tresponse.flash = \'your rating has been added\'\n\t\tproject.num_rating = project.num_rating + 1\n\t\tproject.total_rating = int(project.total_rating) + int(request.vars.rating)\n\t\tcan=db(db.flak.project_id==project.id).select()\n\t\tif len(can)!=0:\n\t\t\tcan[0].rating_flag=True\n\t\t\tcan[0].all_flag=True\n\t\t\tcan[0].update_record()\n\t\tproject.update_record()\n\t\n\tcomments = db(db.comments.project_id==project.id).select()\n\t\n\treturn dict(project=project, comments=comments, form=form,form1=form1)\n\ndef collo_error():\n\treturn dict()\n\ndef confirm_delcollo():\n\t\n\tuser = db.allowed_users(request.args(0,cast=int)) or redirect(URL(\'index\'))\n\tproject=db(db.allowed_users.project_name==user.project_name).select()\n\tdb(request.args(0,cast=int)==db.allowed_users.id).delete()\n\tredirect(URL(\'project_page\',args=project[0].id))\n\n\n\ndef delcollo():\n\n\tproject = db.project(request.args(0,cast=int))\n\trow=db(db.allowed_users.project_name==project.project_name).select()\n\n\tif auth.user:\n\t\tif auth.user.email==project.projectadmin_email:\n\t\t\treturn dict(row=row,project=project)\n\telse:\n\t\tredirect(URL(\'collo_error\',args=project.id))\n\n\n@auth.requires_login()\ndef addcollo():\n\t\n\tproject = db.project(request.args(0,cast=int)) or redirect(URL(\'index\'))\n\t\n\n\tform1 = SQLFORM.factory(\n\t\tField(\'add_collaborator\',type=\'string\',requires=IS_EMAIL())\n\t\t)\n \n\trow1=db(db.allowed_users.project_name==project.project_name).select()\n\t\n\tif form1.process().accepted:\n\t\tdb.allowed_users.insert(other_email=request.vars.add_collaborator)\n\t\trow=db(db.allowed_users.other_email==request.vars.add_collaborator).select().last()\n\t\trow.project_name=project.project_name\n\t\trow.projectadmin_email=auth.user.email\n\t\trow.update_record()\n\t\tredirect(URL(\'project_page\',args=project.id))\n\t\t\n\n\tif auth.user.email==project.projectadmin_email:\n\t\t\treturn dict(form1=form1,project=project,row1=row1)\n\telse:\n\t\t\tredirect(URL(\'collo_error\',args=project.id))\n\t\n\n\n\n\n\t\n"""\ndef login():\n\tform=SQLFORM.factory(\n\t\t\tField(\'user\',type=\'string\',requires=IS_NOT_EMPTY()),\n\t\t\tField(\'password\',type=\'password\'),\n\t\t\tField(\'dateofbirth\',type=\'date\')\n\t)\n\tif form.process().accepted:\n\t\trow=db(db.register.Username==request.vars.user).select()\n\t\tif request.vars.password==row[0][\'Password\']:\n\t\t\tredirect(URL(\'upload\'))\n\t\telse:\n\t\t\tresponse.flash=\'Invalid username or password\'\n\telse:\n\t \tresponse.flash=\'Error\'\n\n\treturn dict(form=form)\n\n"""\n\nresponse._vars=response._caller(zip)\n'
p7
sS'snapshot'
p8
(dp9
S'exception'
p10
(dp11
S'__hash__'
p12
S"<method-wrapper '__hash__' of exceptions.ImportError object>"
p13
sS'__setattr__'
p14
S"<method-wrapper '__setattr__' of exceptions.ImportError object>"
p15
sS'__reduce_ex__'
p16
S'<built-in method __reduce_ex__ of exceptions.ImportError object>'
p17
sS'__getslice__'
p18
S"<method-wrapper '__getslice__' of exceptions.ImportError object>"
p19
sS'__getitem__'
p20
S"<method-wrapper '__getitem__' of exceptions.ImportError object>"
p21
sS'__setstate__'
p22
S'<built-in method __setstate__ of exceptions.ImportError object>'
p23
sS'__reduce__'
p24
S'<built-in method __reduce__ of exceptions.ImportError object>'
p25
sS'__str__'
p26
S"<method-wrapper '__str__' of exceptions.ImportError object>"
p27
sS'__format__'
p28
S'<built-in method __format__ of exceptions.ImportError object>'
p29
sS'__getattribute__'
p30
S"<method-wrapper '__getattribute__' of exceptions.ImportError object>"
p31
sS'__class__'
p32
S"<type 'exceptions.ImportError'>"
p33
sS'__unicode__'
p34
S'<built-in method __unicode__ of exceptions.ImportError object>'
p35
sS'__delattr__'
p36
S"<method-wrapper '__delattr__' of exceptions.ImportError object>"
p37
sS'__subclasshook__'
p38
S'<built-in method __subclasshook__ of type object>'
p39
sS'__repr__'
p40
S"<method-wrapper '__repr__' of exceptions.ImportError object>"
p41
sS'args'
p42
S'("Cannot import module \'shutill\'",)'
p43
sS'__dict__'
p44
S'{}'
p45
sS'__sizeof__'
p46
S'<built-in method __sizeof__ of exceptions.ImportError object>'
p47
sS'__doc__'
p48
S'"Import can\'t find module, or can\'t find name in module."'
p49
sS'__init__'
p50
S"<method-wrapper '__init__' of exceptions.ImportError object>"
p51
sS'__new__'
p52
S'<built-in method __new__ of type object>'
p53
ssS'evalue'
p54
S"Cannot import module 'shutill'"
p55
sS'request'
p56
cgluon.html
XML_unpickle
p57
(S'spU\x00\x00<div><table><tr><td style="font-weight:bold;vertical-align:top">ajax</td><td valign="top">:</td><td><div>False</div></td></tr><tr><td style="font-weight:bold;vertical-align:top">application</td><td valign="top">:</td><td><div>projectlibrary</div></td></tr><tr><td style="font-weight:bold;vertical-align:top">args</td><td valign="top">:</td><td><div><table><tr><td><div>1</div></td></tr></table></div></td></tr><tr><td style="font-weight:bold;vertical-align:top">body</td><td valign="top">:</td><td><div>&lt;cStringIO.StringO object at 0xaf59db20&gt;</div></td></tr><tr><td style="font-weight:bold;vertical-align:top">cid</td><td valign="top">:</td><td><div>None</div></td></tr><tr><td style="font-weight:bold;vertical-align:top">client</td><td valign="top">:</td><td><div>127.0.0.1</div></td></tr><tr><td style="font-weight:bold;vertical-align:top">controller</td><td valign="top">:</td><td><div>default</div></td></tr><tr><td style="font-weight:bold;vertical-align:top">cookies</td><td valign="top">:</td><td><div><table><tr><td style="font-weight:bold;vertical-align:top">session_id_admin</td><td valign="top">:</td><td><div>127.0.0.1-c7b03516-8616-433a-ab7c-a00132379fa1<table><tr><td style="font-weight:bold;vertical-align:top">comment</td><td valign="top">:</td><td><div></div></td></tr><tr><td style="font-weight:bold;vertical-align:top">domain</td><td valign="top">:</td><td><div></div></td></tr><tr><td style="font-weight:bold;vertical-align:top">expires</td><td valign="top">:</td><td><div></div></td></tr><tr><td style="font-weight:bold;vertical-align:top">httponly</td><td valign="top">:</td><td><div></div></td></tr><tr><td style="font-weight:bold;vertical-align:top">max-age</td><td valign="top">:</td><td><div></div></td></tr><tr><td style="font-weight:bold;vertical-align:top">path</td><td valign="top">:</td><td><div></div></td></tr><tr><td style="font-weight:bold;vertical-align:top">secure</td><td valign="top">:</td><td><div></div></td></tr><tr><td style="font-weight:bold;vertical-align:top">version</td><td valign="top">:</td><td><div></div></td></tr></table></div></td></tr><tr><td style="font-weight:bold;vertical-align:top">session_id_projectlibrary</td><td valign="top">:</td><td><div>127.0.0.1-0ce5b183-5fcb-4b08-b264-315e064db59f<table><tr><td style="font-weight:bold;vertical-align:top">comment</td><td valign="top">:</td><td><div></div></td></tr><tr><td style="font-weight:bold;vertical-align:top">domain</td><td valign="top">:</td><td><div></div></td></tr><tr><td style="font-weight:bold;vertical-align:top">expires</td><td valign="top">:</td><td><div></div></td></tr><tr><td style="font-weight:bold;vertical-align:top">httponly</td><td valign="top">:</td><td><div></div></td></tr><tr><td style="font-weight:bold;vertical-align:top">max-age</td><td valign="top">:</td><td><div></div></td></tr><tr><td style="font-weight:bold;vertical-align:top">path</td><td valign="top">:</td><td><div></div></td></tr><tr><td style="font-weight:bold;vertical-align:top">secure</td><td valign="top">:</td><td><div></div></td></tr><tr><td style="font-weight:bold;vertical-align:top">version</td><td valign="top">:</td><td><div></div></td></tr></table></div></td></tr><tr><td style="font-weight:bold;vertical-align:top">session_id_welcome</td><td valign="top">:</td><td><div>127.0.0.1-6225ba1f-9189-4862-b8b8-5aed3447816d<table><tr><td style="font-weight:bold;vertical-align:top">comment</td><td valign="top">:</td><td><div></div></td></tr><tr><td style="font-weight:bold;vertical-align:top">domain</td><td valign="top">:</td><td><div></div></td></tr><tr><td style="font-weight:bold;vertical-align:top">expires</td><td valign="top">:</td><td><div></div></td></tr><tr><td style="font-weight:bold;vertical-align:top">httponly</td><td valign="top">:</td><td><div></div></td></tr><tr><td style="font-weight:bold;vertical-align:top">max-age</td><td valign="top">:</td><td><div></div></td></tr><tr><td style="font-weight:bold;vertical-align:top">path</td><td valign="top">:</td><td><div></div></td></tr><tr><td style="font-weight:bold;vertical-align:top">secure</td><td valign="top">:</td><td><div></div></td></tr><tr><td style="font-weight:bold;vertical-align:top">version</td><td valign="top">:</td><td><div></div></td></tr></table></div></td></tr></table></div></td></tr><tr><td style="font-weight:bold;vertical-align:top">env</td><td valign="top">:</td><td><div><table><tr><td style="font-weight:bold;vertical-align:top">app_folders</td><td valign="top">:</td><td><div>set([&#x27;/home/kira/web2py/applications/admin/&#x27;, &#x27;/home/kira/web2py/applications/projectlibrary/&#x27;])</div></td></tr><tr><td style="font-weight:bold;vertical-align:top">applications_parent</td><td valign="top">:</td><td><div>/home/kira/web2py</div></td></tr><tr><td style="font-weight:bold;vertical-align:top">cmd_args</td><td valign="top">:</td><td><div><table></table></div></td></tr><tr><td style="font-weight:bold;vertical-align:top">cmd_options</td><td valign="top">:</td><td><div>&lt;Values at 0x958ee6c: {&#x27;verbose&#x27;: False, &#x27;ip&#x27;: &#x27;127.0.0.1&#x27;, &#x27;with_scheduler&#x27;: False, &#x27;ips&#x27;: [], &#x27;shutdown_timeout&#x27;: 5, &#x27;taskbar&#x27;: False, &#x27;port&#x27;: 8000, &#x27;maxthreads&#x27;: None, &#x27;softcron&#x27;: False, &#x27;server_name&#x27;: &#x27;kira-Ideapad-Z570&#x27;, &#x27;bpython&#x27;: False, &#x27;nogui&#x27;: False, &#x27;pid_filename&#x27;: &#x27;httpserver.pid&#x27;, &#x27;extcron&#x27;: False, &#x27;runcron&#x27;: False, &#x27;run_system_tests&#x27;: False, &#x27;test&#x27;: None, &#x27;folder&#x27;: &#x27;/home/kira/web2py&#x27;, &#x27;config&#x27;: &#x27;&#x27;, &#x27;import_models&#x27;: False, &#x27;winservice&#x27;: &#x27;&#x27;, &#x27;shell&#x27;: None, &#x27;run&#x27;: &#x27;&#x27;, &#x27;log_filename&#x27;: &#x27;httpserver.log&#x27;, &#x27;debuglevel&#x27;: 30, &#x27;args&#x27;: [&#x27;&#x27;], &#x27;socket_timeout&#x27;: 5, &#x27;ssl_ca_certificate&#x27;: None, &#x27;scheduler&#x27;: None, &#x27;profiler_filename&#x27;: None, &#x27;ssl_private_key&#x27;: &#x27;&#x27;, &#x27;scheduler_groups&#x27;: None, &#x27;password&#x27;: &#x27;asd&#x27;, &#x27;request_queue_size&#x27;: 5, &#x27;ssl_certificate&#x27;: &#x27;&#x27;, &#x27;cronjob&#x27;: False, &#x27;numthreads&#x27;: None, &#x27;quiet&#x27;: False, &#x27;interfaces&#x27;: None, &#x27;minthreads&#x27;: None, &#x27;timeout&#x27;: 10, &#x27;plain&#x27;: False, &#x27;nobanner&#x27;: False}&gt;</div></td></tr><tr><td style="font-weight:bold;vertical-align:top">db_sessions</td><td valign="top">:</td><td><div>set([])</div></td></tr><tr><td style="font-weight:bold;vertical-align:top">debugging</td><td valign="top">:</td><td><div>False</div></td></tr><tr><td style="font-weight:bold;vertical-align:top">gluon_parent</td><td valign="top">:</td><td><div>/home/kira/web2py</div></td></tr><tr><td style="font-weight:bold;vertical-align:top">http_accept</td><td valign="top">:</td><td><div>text/html,application/xhtml+xml,application/xml;q=0.9,*/*;q=0.8</div></td></tr><tr><td style="font-weight:bold;vertical-align:top">http_accept_encoding</td><td valign="top">:</td><td><div>gzip, deflate</div></td></tr><tr><td style="font-weight:bold;vertical-align:top">http_accept_language</td><td valign="top">:</td><td><div>en-us,en;q=0.5</div></td></tr><tr><td style="font-weight:bold;vertical-align:top">http_cache_control</td><td valign="top">:</td><td><div>max-age=0</div></td></tr><tr><td style="font-weight:bold;vertical-align:top">http_connection</td><td valign="top">:</td><td><div>keep-alive</div></td></tr><tr><td style="font-weight:bold;vertical-align:top">http_cookie</td><td valign="top">:</td><td><div>session_id_welcome=127.0.0.1-6225ba1f-9189-4862-b8b8-5aed3447816d; session_id_admin=127.0.0.1-c7b03516-8616-433a-ab7c-a00132379fa1; session_id_projectlibrary=127.0.0.1-0ce5b183-5fcb-4b08-b264-315e064db59f</div></td></tr><tr><td style="font-weight:bold;vertical-align:top">http_host</td><td valign="top">:</td><td><div>127.0.0.1:8000</div></td></tr><tr><td style="font-weight:bold;vertical-align:top">http_referer</td><td valign="top">:</td><td><div>http://127.0.0.1:8000/projectlibrary/default/viewfiles/1</div></td></tr><tr><td style="font-weight:bold;vertical-align:top">http_user_agent</td><td valign="top">:</td><td><div>Mozilla/5.0 (X11; Ubuntu; Linux i686; rv:11.0) Gecko/20100101 Firefox/11.0</div></td></tr><tr><td style="font-weight:bold;vertical-align:top">is_jython</td><td valign="top">:</td><td><div>False</div></td></tr><tr><td style="font-weight:bold;vertical-align:top">is_pypy</td><td valign="top">:</td><td><div>False</div></td></tr><tr><td style="font-weight:bold;vertical-align:top">local_hosts</td><td valign="top">:</td><td><div><table><tr><td><div>kira-Ideapad-Z570</div></td></tr><tr><td><div>::1</div></td></tr><tr><td><div>127.0.1.1</div></td></tr><tr><td><div>::ffff:127.0.0.1</div></td></tr><tr><td><div>127.0.0.1</div></td></tr></table></div></td></tr><tr><td style="font-weight:bold;vertical-align:top">path_info</td><td valign="top">:</td><td><div>/projectlibrary/default/zip/1</div></td></tr><tr><td style="font-weight:bold;vertical-align:top">query_string</td><td valign="top">:</td><td><div></div></td></tr><tr><td style="font-weight:bold;vertical-align:top">remote_addr</td><td valign="top">:</td><td><div>127.0.0.1</div></td></tr><tr><td style="font-weight:bold;vertical-align:top">remote_port</td><td valign="top">:</td><td><div>43598</div></td></tr><tr><td style="font-weight:bold;vertical-align:top">request_method</td><td valign="top">:</td><td><div>GET</div></td></tr><tr><td style="font-weight:bold;vertical-align:top">request_uri</td><td valign="top">:</td><td><div>/projectlibrary/default/zip/1</div></td></tr><tr><td style="font-weight:bold;vertical-align:top">script_name</td><td valign="top">:</td><td><div></div></td></tr><tr><td style="font-weight:bold;vertical-align:top">server_name</td><td valign="top">:</td><td><div>kira-Ideapad-Z570</div></td></tr><tr><td style="font-weight:bold;vertical-align:top">server_port</td><td valign="top">:</td><td><div>8000</div></td></tr><tr><td style="font-weight:bold;vertical-align:top">server_protocol</td><td valign="top">:</td><td><div>HTTP/1.1</div></td></tr><tr><td style="font-weight:bold;vertical-align:top">server_software</td><td valign="top">:</td><td><div>Rocket 1.2.6</div></td></tr><tr><td style="font-weight:bold;vertical-align:top">web2py_path</td><td valign="top">:</td><td><div>/home/kira/web2py</div></td></tr><tr><td style="font-weight:bold;vertical-align:top">web2py_version</td><td valign="top">:</td><td><div><table><tr><td><div>2</div></td></tr><tr><td><div>4</div></td></tr><tr><td><div>2</div></td></tr><tr><td><div>stable</div></td></tr><tr><td><div>datetime.datetime(2013, 3, 4, 3, 26, 21)</div></td></tr></table></div></td></tr><tr><td style="font-weight:bold;vertical-align:top">wsgi_errors</td><td valign="top">:</td><td><div>&lt;open file &#x27;&lt;stderr&gt;&#x27;, mode &#x27;w&#x27; at 0xb72980d0&gt;</div></td></tr><tr><td style="font-weight:bold;vertical-align:top">wsgi_file_wrapper</td><td valign="top">:</td><td><div>&lt;class wsgiref.util.FileWrapper at 0x951bb9c&gt;</div></td></tr><tr><td style="font-weight:bold;vertical-align:top">wsgi_input</td><td valign="top">:</td><td><div>&lt;socket._fileobject object at 0xaf453f6c&gt;</div></td></tr><tr><td style="font-weight:bold;vertical-align:top">wsgi_multiprocess</td><td valign="top">:</td><td><div>False</div></td></tr><tr><td style="font-weight:bold;vertical-align:top">wsgi_multithread</td><td valign="top">:</td><td><div>True</div></td></tr><tr><td style="font-weight:bold;vertical-align:top">wsgi_run_once</td><td valign="top">:</td><td><div>False</div></td></tr><tr><td style="font-weight:bold;vertical-align:top">wsgi_url_scheme</td><td valign="top">:</td><td><div>http</div></td></tr><tr><td style="font-weight:bold;vertical-align:top">wsgi_version</td><td valign="top">:</td><td><div><table><tr><td><div>1</div></td></tr><tr><td><div>0</div></td></tr></table></div></td></tr></table></div></td></tr><tr><td style="font-weight:bold;vertical-align:top">extension</td><td valign="top">:</td><td><div>html</div></td></tr><tr><td style="font-weight:bold;vertical-align:top">folder</td><td valign="top">:</td><td><div>/home/kira/web2py/applications/projectlibrary/</div></td></tr><tr><td style="font-weight:bold;vertical-align:top">function</td><td valign="top">:</td><td><div>zip</div></td></tr><tr><td style="font-weight:bold;vertical-align:top">get_vars</td><td valign="top">:</td><td><div><table></table></div></td></tr><tr><td style="font-weight:bold;vertical-align:top">global_settings</td><td valign="top">:</td><td><div><table><tr><td style="font-weight:bold;vertical-align:top">app_folders</td><td valign="top">:</td><td><div>set([&#x27;/home/kira/web2py/applications/admin/&#x27;, &#x27;/home/kira/web2py/applications/projectlibrary/&#x27;])</div></td></tr><tr><td style="font-weight:bold;vertical-align:top">applications_parent</td><td valign="top">:</td><td><div>/home/kira/web2py</div></td></tr><tr><td style="font-weight:bold;vertical-align:top">cmd_args</td><td valign="top">:</td><td><div><table></table></div></td></tr><tr><td style="font-weight:bold;vertical-align:top">cmd_options</td><td valign="top">:</td><td><div>&lt;Values at 0x958ee6c: {&#x27;verbose&#x27;: False, &#x27;ip&#x27;: &#x27;127.0.0.1&#x27;, &#x27;with_scheduler&#x27;: False, &#x27;ips&#x27;: [], &#x27;shutdown_timeout&#x27;: 5, &#x27;taskbar&#x27;: False, &#x27;port&#x27;: 8000, &#x27;maxthreads&#x27;: None, &#x27;softcron&#x27;: False, &#x27;server_name&#x27;: &#x27;kira-Ideapad-Z570&#x27;, &#x27;bpython&#x27;: False, &#x27;nogui&#x27;: False, &#x27;pid_filename&#x27;: &#x27;httpserver.pid&#x27;, &#x27;extcron&#x27;: False, &#x27;runcron&#x27;: False, &#x27;run_system_tests&#x27;: False, &#x27;test&#x27;: None, &#x27;folder&#x27;: &#x27;/home/kira/web2py&#x27;, &#x27;config&#x27;: &#x27;&#x27;, &#x27;import_models&#x27;: False, &#x27;winservice&#x27;: &#x27;&#x27;, &#x27;shell&#x27;: None, &#x27;run&#x27;: &#x27;&#x27;, &#x27;log_filename&#x27;: &#x27;httpserver.log&#x27;, &#x27;debuglevel&#x27;: 30, &#x27;args&#x27;: [&#x27;&#x27;], &#x27;socket_timeout&#x27;: 5, &#x27;ssl_ca_certificate&#x27;: None, &#x27;scheduler&#x27;: None, &#x27;profiler_filename&#x27;: None, &#x27;ssl_private_key&#x27;: &#x27;&#x27;, &#x27;scheduler_groups&#x27;: None, &#x27;password&#x27;: &#x27;asd&#x27;, &#x27;request_queue_size&#x27;: 5, &#x27;ssl_certificate&#x27;: &#x27;&#x27;, &#x27;cronjob&#x27;: False, &#x27;numthreads&#x27;: None, &#x27;quiet&#x27;: False, &#x27;interfaces&#x27;: None, &#x27;minthreads&#x27;: None, &#x27;timeout&#x27;: 10, &#x27;plain&#x27;: False, &#x27;nobanner&#x27;: False}&gt;</div></td></tr><tr><td style="font-weight:bold;vertical-align:top">db_sessions</td><td valign="top">:</td><td><div>set([])</div></td></tr><tr><td style="font-weight:bold;vertical-align:top">debugging</td><td valign="top">:</td><td><div>False</div></td></tr><tr><td style="font-weight:bold;vertical-align:top">gluon_parent</td><td valign="top">:</td><td><div>/home/kira/web2py</div></td></tr><tr><td style="font-weight:bold;vertical-align:top">is_jython</td><td valign="top">:</td><td><div>False</div></td></tr><tr><td style="font-weight:bold;vertical-align:top">is_pypy</td><td valign="top">:</td><td><div>False</div></td></tr><tr><td style="font-weight:bold;vertical-align:top">local_hosts</td><td valign="top">:</td><td><div><table><tr><td><div>kira-Ideapad-Z570</div></td></tr><tr><td><div>::1</div></td></tr><tr><td><div>127.0.1.1</div></td></tr><tr><td><div>::ffff:127.0.0.1</div></td></tr><tr><td><div>127.0.0.1</div></td></tr></table></div></td></tr><tr><td style="font-weight:bold;vertical-align:top">web2py_version</td><td valign="top">:</td><td><div><table><tr><td><div>2</div></td></tr><tr><td><div>4</div></td></tr><tr><td><div>2</div></td></tr><tr><td><div>stable</div></td></tr><tr><td><div>datetime.datetime(2013, 3, 4, 3, 26, 21)</div></td></tr></table></div></td></tr></table></div></td></tr><tr><td style="font-weight:bold;vertical-align:top">is_https</td><td valign="top">:</td><td><div>False</div></td></tr><tr><td style="font-weight:bold;vertical-align:top">is_local</td><td valign="top">:</td><td><div>True</div></td></tr><tr><td style="font-weight:bold;vertical-align:top">is_restful</td><td valign="top">:</td><td><div>False</div></td></tr><tr><td style="font-weight:bold;vertical-align:top">now</td><td valign="top">:</td><td><div>datetime.datetime(2013, 4, 18, 3, 42, 7, 910072)</div></td></tr><tr><td style="font-weight:bold;vertical-align:top">post_vars</td><td valign="top">:</td><td><div><table></table></div></td></tr><tr><td style="font-weight:bold;vertical-align:top">raw_args</td><td valign="top">:</td><td><div>1</div></td></tr><tr><td style="font-weight:bold;vertical-align:top">raw_extension</td><td valign="top">:</td><td><div>None</div></td></tr><tr><td style="font-weight:bold;vertical-align:top">url</td><td valign="top">:</td><td><div>/projectlibrary/default/zip/1</div></td></tr><tr><td style="font-weight:bold;vertical-align:top">utcnow</td><td valign="top">:</td><td><div>datetime.datetime(2013, 4, 17, 22, 12, 7, 910126)</div></td></tr><tr><td style="font-weight:bold;vertical-align:top">uuid</td><td valign="top">:</td><td><div>projectlibrary/127.0.0.1.2013-04-18.03-42-07.75f91912-a5d4-4d64-a042-a428708ee36e</div></td></tr><tr><td style="font-weight:bold;vertical-align:top">vars</td><td valign="top">:</td><td><div><table></table></div></td></tr><tr><td style="font-weight:bold;vertical-align:top">wsgi</td><td valign="top">:</td><td><div><table><tr><td style="font-weight:bold;vertical-align:top">environ</td><td valign="top">:</td><td><div><table><tr><td style="font-weight:bold;vertical-align:top">HTTP_ACCEPT</td><td valign="top">:</td><td><div>text/html,application/xhtml+xml,application/xml;q=0.9,*/*;q=0.8</div></td></tr><tr><td style="font-weight:bold;vertical-align:top">HTTP_ACCEPT_ENCODING</td><td valign="top">:</td><td><div>gzip, deflate</div></td></tr><tr><td style="font-weight:bold;vertical-align:top">HTTP_ACCEPT_LANGUAGE</td><td valign="top">:</td><td><div>en-us,en;q=0.5</div></td></tr><tr><td style="font-weight:bold;vertical-align:top">HTTP_CACHE_CONTROL</td><td valign="top">:</td><td><div>max-age=0</div></td></tr><tr><td style="font-weight:bold;vertical-align:top">HTTP_CONNECTION</td><td valign="top">:</td><td><div>keep-alive</div></td></tr><tr><td style="font-weight:bold;vertical-align:top">HTTP_COOKIE</td><td valign="top">:</td><td><div>session_id_welcome=127.0.0.1-6225ba1f-9189-4862-b8b8-5aed3447816d; session_id_admin=127.0.0.1-c7b03516-8616-433a-ab7c-a00132379fa1; session_id_projectlibrary=127.0.0.1-0ce5b183-5fcb-4b08-b264-315e064db59f</div></td></tr><tr><td style="font-weight:bold;vertical-align:top">HTTP_HOST</td><td valign="top">:</td><td><div>127.0.0.1:8000</div></td></tr><tr><td style="font-weight:bold;vertical-align:top">HTTP_REFERER</td><td valign="top">:</td><td><div>http://127.0.0.1:8000/projectlibrary/default/viewfiles/1</div></td></tr><tr><td style="font-weight:bold;vertical-align:top">HTTP_USER_AGENT</td><td valign="top">:</td><td><div>Mozilla/5.0 (X11; Ubuntu; Linux i686; rv:11.0) Gecko/20100101 Firefox/11.0</div></td></tr><tr><td style="font-weight:bold;vertical-align:top">PATH_INFO</td><td valign="top">:</td><td><div>/projectlibrary/default/zip/1</div></td></tr><tr><td style="font-weight:bold;vertical-align:top">QUERY_STRING</td><td valign="top">:</td><td><div></div></td></tr><tr><td style="font-weight:bold;vertical-align:top">REMOTE_ADDR</td><td valign="top">:</td><td><div>127.0.0.1</div></td></tr><tr><td style="font-weight:bold;vertical-align:top">REMOTE_PORT</td><td valign="top">:</td><td><div>43598</div></td></tr><tr><td style="font-weight:bold;vertical-align:top">REQUEST_METHOD</td><td valign="top">:</td><td><div>GET</div></td></tr><tr><td style="font-weight:bold;vertical-align:top">REQUEST_URI</td><td valign="top">:</td><td><div>/projectlibrary/default/zip/1</div></td></tr><tr><td style="font-weight:bold;vertical-align:top">SCRIPT_NAME</td><td valign="top">:</td><td><div></div></td></tr><tr><td style="font-weight:bold;vertical-align:top">SERVER_NAME</td><td valign="top">:</td><td><div>kira-Ideapad-Z570</div></td></tr><tr><td style="font-weight:bold;vertical-align:top">SERVER_PORT</td><td valign="top">:</td><td><div>8000</div></td></tr><tr><td style="font-weight:bold;vertical-align:top">SERVER_PROTOCOL</td><td valign="top">:</td><td><div>HTTP/1.1</div></td></tr><tr><td style="font-weight:bold;vertical-align:top">SERVER_SOFTWARE</td><td valign="top">:</td><td><div>Rocket 1.2.6</div></td></tr><tr><td style="font-weight:bold;vertical-align:top">wsgi.errors</td><td valign="top">:</td><td><div>&lt;open file &#x27;&lt;stderr&gt;&#x27;, mode &#x27;w&#x27; at 0xb72980d0&gt;</div></td></tr><tr><td style="font-weight:bold;vertical-align:top">wsgi.file_wrapper</td><td valign="top">:</td><td><div>&lt;class wsgiref.util.FileWrapper at 0x951bb9c&gt;</div></td></tr><tr><td style="font-weight:bold;vertical-align:top">wsgi.input</td><td valign="top">:</td><td><div>&lt;cStringIO.StringO object at 0xaf59db20&gt;</div></td></tr><tr><td style="font-weight:bold;vertical-align:top">wsgi.multiprocess</td><td valign="top">:</td><td><div>False</div></td></tr><tr><td style="font-weight:bold;vertical-align:top">wsgi.multithread</td><td valign="top">:</td><td><div>True</div></td></tr><tr><td style="font-weight:bold;vertical-align:top">wsgi.run_once</td><td valign="top">:</td><td><div>False</div></td></tr><tr><td style="font-weight:bold;vertical-align:top">wsgi.url_scheme</td><td valign="top">:</td><td><div>http</div></td></tr><tr><td style="font-weight:bold;vertical-align:top">wsgi.version</td><td valign="top">:</td><td><div>1</div></td></tr></table></div></td></tr></table></div></td></tr></table></div>'
tRp58
sS'frames'
p59
(lp60
(dp61
S'file'
p62
S'/home/kira/web2py/gluon/restricted.py'
p63
sS'dump'
p64
(dp65
S'environment'
p66
S"{'A': <class 'gluon.html.A'>, 'Auth': <class 'gluon.tools.Auth'>, 'B': <class 'gluon.html.B'>, 'BEAUTIFY': <class 'gluon.html.BEAUTIFY'>, 'BODY': <class 'gluon.html.BODY'>, 'BR': <class 'gluon.html.BR'>, 'BUTTON': <class 'gluon.html.BUTTON'>, 'CAT': <class 'gluon.html.CAT'>, 'CENTER': <class 'gluon.html.CENTER'>, 'CLEANUP': <class 'gluon.validators.CLEANUP'>, ...}"
p67
sS'ccode'
p68
S'<code object <module> at 0xae238020, file "/home.../projectlibrary/controllers/default.py", line 13>'
p69
ssS'lnum'
p70
I212
sS'lines'
p71
(dp72
I207
S'    try:'
p73
sI208
S'        if isinstance(code, types.CodeType):'
p74
sI209
S'            ccode = code'
p75
sI210
S'        else:'
p76
sI211
S'            ccode = compile2(code, layer)'
p77
sI212
S'        exec ccode in environment'
p78
sI213
S'    except HTTP:'
p79
sI214
S'        raise'
p80
sI215
S'    except RestrictedError:'
p81
sI216
S'        # do not encapsulate (obfuscate) the original RestrictedError'
p82
ssS'call'
p83
S'(code=\'# -*- coding: utf-8 -*-\\n# this file is released ...form)\\n\\n"""\\n\\nresponse._vars=response._caller(zip)\\n\', environment={\'A\': <class \'gluon.html.A\'>, \'Auth\': <class \'gluon.tools.Auth\'>, \'B\': <class \'gluon.html.B\'>, \'BEAUTIFY\': <class \'gluon.html.BEAUTIFY\'>, \'BODY\': <class \'gluon.html.BODY\'>, \'BR\': <class \'gluon.html.BR\'>, \'BUTTON\': <class \'gluon.html.BUTTON\'>, \'CAT\': <class \'gluon.html.CAT\'>, \'CENTER\': <class \'gluon.html.CENTER\'>, \'CLEANUP\': <class \'gluon.validators.CLEANUP\'>, ...}, layer=\'/home/kira/web2py/applications/projectlibrary/controllers/default.py\')'
p84
sS'func'
p85
S'restricted'
p86
sa(dp87
g62
S'/home/kira/web2py/applications/projectlibrary/controllers/default.py'
p88
sg64
(dp89
S'shutill'
p90
S'undefined'
p91
ssg70
I251
sg71
(dp92
I246
S'\tfiles=db((db.files.file_name==request.args(0,cast=str)) & (db.files.project_version==1)).select().last()'
p93
sI247
S'\tdb((db.files.file_name==request.args(0,cast=str)) & (db.files.project_version==1)).delete()'
p94
sI248
S'\tsession.flash="File Deleted"'
p95
sI249
S"\tredirect(URL('viewfiles',args=files.project_id))"
p96
sI250
S''
sI251
S'import shutill'
p97
sI252
S''
sI253
S'def zip():'
p98
sI254
S'\tproject=db.project(request.args(0,cast=int))'
p99
sI255
S'\timport os'
p100
ssg83
S'()'
p101
sg85
S'<module>'
p102
sa(dp103
g62
S'/home/kira/web2py/gluon/custom_import.py'
p104
sg64
(dp105
S'builtinstr'
p106
S"<type 'str'>"
p107
sS'builtinImportError'
p108
S"<type 'exceptions.ImportError'>"
p109
sS'e'
S"KeyError('shutill',)"
p110
ssg70
I81
sg71
(dp111
I76
S'                        new_mod = base_importer('
p112
sI77
S'                            modules_prefix, globals, locals, [itemname], level)'
p113
sI78
S'                        try:'
p114
sI79
S'                            result = result or new_mod.__dict__[itemname]'
p115
sI80
S'                        except KeyError, e:'
p116
sI81
S"                            raise ImportError, 'Cannot import module %s' % str(e)"
p117
sI82
S'                        modules_prefix += "." + itemname'
p118
sI83
S'                    return result'
p119
sI84
S'                else:'
p120
sI85
S'                    # import like "from x import a, b, ..."'
p121
ssg83
S"(name='shutill', globals={'A': <class 'gluon.html.A'>, 'Auth': <class 'gluon.tools.Auth'>, 'B': <class 'gluon.html.B'>, 'BEAUTIFY': <class 'gluon.html.BEAUTIFY'>, 'BODY': <class 'gluon.html.BODY'>, 'BR': <class 'gluon.html.BR'>, 'BUTTON': <class 'gluon.html.BUTTON'>, 'CAT': <class 'gluon.html.CAT'>, 'CENTER': <class 'gluon.html.CENTER'>, 'CLEANUP': <class 'gluon.validators.CLEANUP'>, ...}, locals={'A': <class 'gluon.html.A'>, 'Auth': <class 'gluon.tools.Auth'>, 'B': <class 'gluon.html.B'>, 'BEAUTIFY': <class 'gluon.html.BEAUTIFY'>, 'BODY': <class 'gluon.html.BODY'>, 'BR': <class 'gluon.html.BR'>, 'BUTTON': <class 'gluon.html.BUTTON'>, 'CAT': <class 'gluon.html.CAT'>, 'CENTER': <class 'gluon.html.CENTER'>, 'CLEANUP': <class 'gluon.validators.CLEANUP'>, ...}, fromlist=[], level=-1)"
p122
sg85
S'custom_importer'
p123
sasS'pyver'
p124
S'Python 2.7.3: /usr/bin/python (prefix: /usr)'
p125
sS'session'
p126
g57
(S's\xda\n\x00\x00<div><table><tr><td style="font-weight:bold;vertical-align:top">auth</td><td valign="top">:</td><td><div><table><tr><td style="font-weight:bold;vertical-align:top">expiration</td><td valign="top">:</td><td><div>3600</div></td></tr><tr><td style="font-weight:bold;vertical-align:top">hmac_key</td><td valign="top">:</td><td><div>c0e2d927-5ae9-40a3-9af1-460ac84b8696</div></td></tr><tr><td style="font-weight:bold;vertical-align:top">last_visit</td><td valign="top">:</td><td><div>datetime.datetime(2013, 4, 18, 3, 42, 7, 910072)</div></td></tr><tr><td style="font-weight:bold;vertical-align:top">remember</td><td valign="top">:</td><td><div>False</div></td></tr><tr><td style="font-weight:bold;vertical-align:top">user</td><td valign="top">:</td><td><div><table><tr><td style="font-weight:bold;vertical-align:top">country</td><td valign="top">:</td><td><div></div></td></tr><tr><td style="font-weight:bold;vertical-align:top">email</td><td valign="top">:</td><td><div>shikher111@gmail.com</div></td></tr><tr><td style="font-weight:bold;vertical-align:top">first_name</td><td valign="top">:</td><td><div>shikher</div></td></tr><tr><td style="font-weight:bold;vertical-align:top">id</td><td valign="top">:</td><td><div>1</div></td></tr><tr><td style="font-weight:bold;vertical-align:top">last_name</td><td valign="top">:</td><td><div>somal</div></td></tr><tr><td style="font-weight:bold;vertical-align:top">profile_pic</td><td valign="top">:</td><td><div>auth_user.profile_pic.bf4189ac758c44c1.63616c6c5f6f665f647574795f6d6f6465726e5f776172666172655f332d776964652e6a7067.jpg</div></td></tr><tr><td style="font-weight:bold;vertical-align:top">registration_date</td><td valign="top">:</td><td><div>datetime.date(2013, 4, 18)</div></td></tr><tr><td style="font-weight:bold;vertical-align:top">registration_id</td><td valign="top">:</td><td><div></div></td></tr><tr><td style="font-weight:bold;vertical-align:top">registration_key</td><td valign="top">:</td><td><div></div></td></tr><tr><td style="font-weight:bold;vertical-align:top">reset_password_key</td><td valign="top">:</td><td><div></div></td></tr><tr><td style="font-weight:bold;vertical-align:top">upload_count</td><td valign="top">:</td><td><div>0</div></td></tr></table></div></td></tr><tr><td style="font-weight:bold;vertical-align:top">user_groups</td><td valign="top">:</td><td><div><table></table></div></td></tr></table></div></td></tr><tr><td style="font-weight:bold;vertical-align:top">flash</td><td valign="top">:</td><td><div>None</div></td></tr><tr><td style="font-weight:bold;vertical-align:top">last_orderby</td><td valign="top">:</td><td><div>None</div></td></tr><tr><td style="font-weight:bold;vertical-align:top">last_query</td><td valign="top">:</td><td><div>db.project.id&gt;0</div></td></tr></table></div>'
tRp127
sS'etype'
p128
S"<type 'exceptions.ImportError'>"
p129
sS'date'
p130
S'Thu Apr 18 03:42:08 2013'
p131
sS'response'
p132
g57
(S's\xad"\x00\x00<div><table><tr><td style="font-weight:bold;vertical-align:top">body</td><td valign="top">:</td><td><div>&lt;cStringIO.StringO object at 0xaf54bb00&gt;</div></td></tr><tr><td style="font-weight:bold;vertical-align:top">cookies</td><td valign="top">:</td><td><div><table><tr><td style="font-weight:bold;vertical-align:top">session_id_projectlibrary</td><td valign="top">:</td><td><div>127.0.0.1-0ce5b183-5fcb-4b08-b264-315e064db59f<table><tr><td style="font-weight:bold;vertical-align:top">comment</td><td valign="top">:</td><td><div></div></td></tr><tr><td style="font-weight:bold;vertical-align:top">domain</td><td valign="top">:</td><td><div></div></td></tr><tr><td style="font-weight:bold;vertical-align:top">expires</td><td valign="top">:</td><td><div></div></td></tr><tr><td style="font-weight:bold;vertical-align:top">httponly</td><td valign="top">:</td><td><div></div></td></tr><tr><td style="font-weight:bold;vertical-align:top">max-age</td><td valign="top">:</td><td><div></div></td></tr><tr><td style="font-weight:bold;vertical-align:top">path</td><td valign="top">:</td><td><div>/</div></td></tr><tr><td style="font-weight:bold;vertical-align:top">secure</td><td valign="top">:</td><td><div></div></td></tr><tr><td style="font-weight:bold;vertical-align:top">version</td><td valign="top">:</td><td><div></div></td></tr></table></div></td></tr></table></div></td></tr><tr><td style="font-weight:bold;vertical-align:top">delimiters</td><td valign="top">:</td><td><div><table><tr><td><div>{{</div></td></tr><tr><td><div>}}</div></td></tr></table></div></td></tr><tr><td style="font-weight:bold;vertical-align:top">files</td><td valign="top">:</td><td><div><table></table></div></td></tr><tr><td style="font-weight:bold;vertical-align:top">flash</td><td valign="top">:</td><td><div></div></td></tr><tr><td style="font-weight:bold;vertical-align:top">generic_patterns</td><td valign="top">:</td><td><div><table><tr><td><div>*</div></td></tr></table></div></td></tr><tr><td style="font-weight:bold;vertical-align:top">google_analytics_id</td><td valign="top">:</td><td><div>None</div></td></tr><tr><td style="font-weight:bold;vertical-align:top">headers</td><td valign="top">:</td><td><div><table><tr><td style="font-weight:bold;vertical-align:top">X-Powered-By</td><td valign="top">:</td><td><div>web2py</div></td></tr></table></div></td></tr><tr><td style="font-weight:bold;vertical-align:top">logo</td><td valign="top">:</td><td><div><a class="brand" href="http://www.web2py.com/"><b>web<span>2</span>py</b>&trade;&nbsp;</a></div></td></tr><tr><td style="font-weight:bold;vertical-align:top">menu</td><td valign="top">:</td><td><div><table><tr><td><div><table><tr><td><div>Home</div></td></tr><tr><td><div>False</div></td></tr><tr><td><div>/projectlibrary/default/index</div></td></tr><tr><td><div><table></table></div></td></tr></table></div></td></tr><tr><td><div><table><tr><td><div>Upload</div></td></tr><tr><td><div>False</div></td></tr><tr><td><div>/projectlibrary/default/uploadpage</div></td></tr><tr><td><div><table></table></div></td></tr></table></div></td></tr><tr><td><div><table><tr><td><div>Browse</div></td></tr><tr><td><div>False</div></td></tr><tr><td><div>/projectlibrary/default/browse</div></td></tr><tr><td><div><table><tr><td><div><table><tr><td><div>A-Z</div></td></tr><tr><td><div>False</div></td></tr><tr><td><div>/projectlibrary/default/az</div></td></tr></table></div></td></tr><tr><td><div><table><tr><td><div>Z-A</div></td></tr><tr><td><div>False</div></td></tr><tr><td><div>/projectlibrary/default/za</div></td></tr></table></div></td></tr><tr><td><div><table><tr><td><div>By Comments</div></td></tr><tr><td><div>False</div></td></tr><tr><td><div>/projectlibrary/default/bycomments</div></td></tr><tr><td><div>[(&lt;lazyT &#x27;Most commented&#x27;&gt;, False, &#x27;/projectlibrary/default/most_commented&#x27;)]</div></td></tr></table></div></td></tr><tr><td><div><table><tr><td><div>By Rating</div></td></tr><tr><td><div>False</div></td></tr><tr><td><div>/projectlibrary/default/byrating</div></td></tr></table></div></td></tr><tr><td><div><table><tr><td><div>By Category</div></td></tr><tr><td><div>False</div></td></tr><tr><td><div>/projectlibrary/default/category</div></td></tr></table></div></td></tr><tr><td><div><table><tr><td><div>By Downloads</div></td></tr><tr><td><div>False</div></td></tr><tr><td><div>/projectlibrary/default/bydownloads</div></td></tr><tr><td><div>[(&lt;lazyT &#x27;Most Downloaded&#x27;&gt;, False, &#x27;/projectlibrary/default/mostdownload&#x27;)]</div></td></tr></table></div></td></tr><tr><td><div><table><tr><td><div>By Uploads</div></td></tr><tr><td><div>False</div></td></tr><tr><td><div>/projectlibrary/default/byuploads</div></td></tr><tr><td><div>[(&lt;lazyT &#x27;Most Uploads&#x27;&gt;, False, &#x27;/projectlibrary/default/most_uploaded&#x27;)]</div></td></tr></table></div></td></tr><tr><td><div><table><tr><td><div>Most Recent</div></td></tr><tr><td><div>False</div></td></tr><tr><td><div>/projectlibrary/default/most_recent</div></td></tr></table></div></td></tr></table></div></td></tr></table></div></td></tr><tr><td><div><table><tr><td><div>Most Downloaded</div></td></tr><tr><td><div>False</div></td></tr><tr><td><div>/projectlibrary/default/mostdownload</div></td></tr></table></div></td></tr><tr><td><div><table><tr><td><div>Most Uploads</div></td></tr><tr><td><div>False</div></td></tr><tr><td><div>/projectlibrary/default/most_uploaded</div></td></tr></table></div></td></tr><tr><td><div><table><tr><td><div>Zip</div></td></tr><tr><td><div>False</div></td></tr><tr><td><div>/projectlibrary/default/zip/1</div></td></tr></table></div></td></tr><tr><td><div><table><tr><td><div>Users</div></td></tr><tr><td><div>False</div></td></tr><tr><td><div>/projectlibrary/default/byuploads</div></td></tr></table></div></td></tr></table></div></td></tr><tr><td style="font-weight:bold;vertical-align:top">meta</td><td valign="top">:</td><td><div><table><tr><td style="font-weight:bold;vertical-align:top">author</td><td valign="top">:</td><td><div>Your Name &lt;you@example.com&gt;</div></td></tr><tr><td style="font-weight:bold;vertical-align:top">description</td><td valign="top">:</td><td><div>a cool new app</div></td></tr><tr><td style="font-weight:bold;vertical-align:top">generator</td><td valign="top">:</td><td><div>Web2py Web Framework</div></td></tr><tr><td style="font-weight:bold;vertical-align:top">keywords</td><td valign="top">:</td><td><div>web2py, python, framework</div></td></tr></table></div></td></tr><tr><td style="font-weight:bold;vertical-align:top">models_to_run</td><td valign="top">:</td><td><div><table><tr><td><div>^\\w+\\.py$</div></td></tr><tr><td><div>^default/\\w+\\.py$</div></td></tr><tr><td><div>^default/zip/\\w+\\.py$</div></td></tr></table></div></td></tr><tr><td style="font-weight:bold;vertical-align:top">postprocessing</td><td valign="top">:</td><td><div><table></table></div></td></tr><tr><td style="font-weight:bold;vertical-align:top">session_cookie_expires</td><td valign="top">:</td><td><div>None</div></td></tr><tr><td style="font-weight:bold;vertical-align:top">session_data_name</td><td valign="top">:</td><td><div>session_data_projectlibrary</div></td></tr><tr><td style="font-weight:bold;vertical-align:top">session_file</td><td valign="top">:</td><td><div>&lt;open file &#x27;/home/kira/web2py/applications/projectlibrary/sessions/127.0.0.1-0ce5b183-5fcb-4b08-b264-315e064db59f&#x27;, mode &#x27;rb+&#x27; at 0xaf55ed88&gt;</div></td></tr><tr><td style="font-weight:bold;vertical-align:top">session_filename</td><td valign="top">:</td><td><div>/home/kira/web2py/applications/projectlibrary/sessions/127.0.0.1-0ce5b183-5fcb-4b08-b264-315e064db59f</div></td></tr><tr><td style="font-weight:bold;vertical-align:top">session_id</td><td valign="top">:</td><td><div>127.0.0.1-0ce5b183-5fcb-4b08-b264-315e064db59f</div></td></tr><tr><td style="font-weight:bold;vertical-align:top">session_id_name</td><td valign="top">:</td><td><div>session_id_projectlibrary</div></td></tr><tr><td style="font-weight:bold;vertical-align:top">session_locked</td><td valign="top">:</td><td><div>True</div></td></tr><tr><td style="font-weight:bold;vertical-align:top">session_new</td><td valign="top">:</td><td><div>False</div></td></tr><tr><td style="font-weight:bold;vertical-align:top">session_storage_type</td><td valign="top">:</td><td><div>file</div></td></tr><tr><td style="font-weight:bold;vertical-align:top">status</td><td valign="top">:</td><td><div>200</div></td></tr><tr><td style="font-weight:bold;vertical-align:top">subtitle</td><td valign="top">:</td><td><div>customize me!</div></td></tr><tr><td style="font-weight:bold;vertical-align:top">title</td><td valign="top">:</td><td><div>Projectlibrary</div></td></tr><tr><td style="font-weight:bold;vertical-align:top">view</td><td valign="top">:</td><td><div>default/zip.html</div></td></tr></table></div>'
tRp133
sS'locals'
p134
(dp135
S'fromlist'
p136
S'[]'
p137
sS'e'
S"KeyError('shutill',)"
p138
sS'name'
p139
S"'shutill'"
p140
sS'level'
p141
S'-1'
p142
sS'itemname'
p143
S"'shutill'"
p144
sS'e3'
p145
S"ImportError('No module named shutill',)"
p146
sS'base_importer'
p147
S'<built-in function __import__>'
p148
sS'globals'
p149
S"{'A': <class 'gluon.html.A'>, 'Auth': <class 'gluon.tools.Auth'>, 'B': <class 'gluon.html.B'>, 'BEAUTIFY': <class 'gluon.html.BEAUTIFY'>, 'BODY': <class 'gluon.html.BODY'>, 'BR': <class 'gluon.html.BR'>, 'BUTTON': <class 'gluon.html.BUTTON'>, 'CAT': <class 'gluon.html.CAT'>, 'CENTER': <class 'gluon.html.CENTER'>, 'CLEANUP': <class 'gluon.validators.CLEANUP'>, ...}"
p150
sS'result'
p151
S'None'
p152
sS'items'
p153
S"['', 'home', 'kira', 'web2py', 'applications', 'projectlibrary']"
p154
sS'modules_prefix'
p155
S"'applications.projectlibrary.modules'"
p156
sS'new_mod'
p157
S"<module 'applications.projectlibrary.modules' fr...pplications/projectlibrary/modules/__init__.pyc'>"
p158
sS'e1'
p159
S'ImportError("Cannot import module \'shutill\'",)'
p160
sS'import_tb'
p161
S'None'
p162
sg134
S"{'A': <class 'gluon.html.A'>, 'Auth': <class 'gluon.tools.Auth'>, 'B': <class 'gluon.html.B'>, 'BEAUTIFY': <class 'gluon.html.BEAUTIFY'>, 'BODY': <class 'gluon.html.BODY'>, 'BR': <class 'gluon.html.BR'>, 'BUTTON': <class 'gluon.html.BUTTON'>, 'CAT': <class 'gluon.html.CAT'>, 'CENTER': <class 'gluon.html.CENTER'>, 'CLEANUP': <class 'gluon.validators.CLEANUP'>, ...}"
p163
sS'oname'
p164
S"'shutill'"
p165
sssS'traceback'
p166
S'Traceback (most recent call last):\n  File "/home/kira/web2py/gluon/restricted.py", line 212, in restricted\n    exec ccode in environment\n  File "/home/kira/web2py/applications/projectlibrary/controllers/default.py", line 251, in <module>\n    import shutill\n  File "/home/kira/web2py/gluon/custom_import.py", line 81, in custom_importer\n    raise ImportError, \'Cannot import module %s\' % str(e)\nImportError: Cannot import module \'shutill\'\n'
p167
s.