(dp1
S'output'
p2
S"<type 'exceptions.TypeError'> unsupported operand type(s) for &: 'int' and 'Field'"
p3
sS'layer'
p4
S'/home/kira/web2py/applications/projectlibrary/controllers/default.py'
p5
sS'code'
p6
S'# -*- coding: utf-8 -*-\n# this file is released under public domain and you can use without limitations\n\n#########################################################################\n## This is a samples controller\n## - index is the default action of any application\n## - user is required for authentication and authorization\n## - download is for downloading files uploaded in the db (does streaming)\n## - call exposes all registered services (none by default)\n#########################################################################\n\n\ndef index():\n    form = db().select(db.project.ALL, orderby=~db.project.num_downloads)\n    \n    form1 = db().select(db.project.ALL, orderby=~db.project.date_added)\n    return dict(form=form,form1=form1)\n    """\n    example action using the internationalization operator T and flash\n    rendered by views/default/index.html or views/generic.html\n\n    if you need a simple wiki simple replace the two lines below with:\n    return auth.wiki()\n    """\n    session.flash = T("Welcome to Project Library")\n    return dict(message=T(\'Search - Download - Upload\'))\n\n\ndef user():\n    """\n    exposes:\n    http://..../[app]/default/user/login\n    http://..../[app]/default/user/logout\n    http://..../[app]/default/user/register\n    http://..../[app]/default/user/profile\n    http://..../[app]/default/user/retrieve_password\n    http://..../[app]/default/user/change_password\n    use @auth.requires_login()\n        @auth.requires_membership(\'group name\')\n        @auth.requires_permission(\'read\',\'table name\',record_id)\n    to decorate functions that need access control\n    """\n    return dict(form=auth())\n\n\ndef download():\n    """\n    allows downloading of uploaded files\n    http://..../[app]/default/download/[filename]\n    """\n    return response.download(request, db)\n\n\ndef call():\n    """\n    exposes services. for example:\n    http://..../[app]/default/call/jsonrpc\n    decorate with @services.jsonrpc the functions to expose\n    supports xml, json, xmlrpc, jsonrpc, amfrpc, rss, csv\n    """\n    return service()\n\n\n@auth.requires_signature()\ndef data():\n    """\n    http://..../[app]/default/data/tables\n    http://..../[app]/default/data/create/[table]\n    http://..../[app]/default/data/read/[table]/[id]\n    http://..../[app]/default/data/update/[table]/[id]\n    http://..../[app]/default/data/delete/[table]/[id]\n    http://..../[app]/default/data/select/[table]\n    http://..../[app]/default/data/search/[table]\n    but URLs must be signed, i.e. linked with\n      A(\'table\',_href=URL(\'data/tables\',user_signature=True))\n    or with the signed load operator\n      LOAD(\'default\',\'data.load\',args=\'tables\',ajax=True,user_signature=True)\n    """\n    return dict(form=crud())\n\ndef auth_logout():\n\tprint \'1\'\n\tform=db(db.flak.user_id==auth.user.id).select()\n\tfor some in form:\n\t\tsome.all_flag=False\n\t\tsome.comments_flag=False\n\t\tsome.rating_flag=False\n\t\tsome.download_flag=False\n\t\tsome.update_record()\n\tredirect(URL(\'logout\'))\n\t\n\n\ndef search_func():\n\tform = db().select(db.project.ALL, orderby=db.project.project_name)\n\tform1=db().select(db.auth_user.ALL)\n\tform2=db().select(db.files.ALL)\n\tt= request.vars.s\n\treturn dict(t=t,form=form,form1=form1,form2=form2)\n\ndef register():\n\tform = crud.create(db.auth_user)\n\treturn dict(form=form)\n\n@auth.requires_login()\ndef sub():\n\tuser=db.auth_user(request.args(0,cast=int)) or redirect(URL(\'index\'))\n\tif auth.user.email!=user.id:\n\t\tsad=db(db.subscribe.cur_user==auth.user.id & db.subscribe.sub_user==user.id).select()\n\t\tif sad[0].is_sub==0:\n\t\t\ts="You are now subscribed to  "+str(user.email)\n\t\t\tsession.flash=s\n\t\t\tdb.subscribe.insert(cur_user=auth.user.id,sub_user=user.id,is_sub=1)\n\t\telse:\n\t\t\ts="You are already subscribed to  "+str(user.email)\n\t\t\tsession.flash=s\n\n\tredirect(URL("allprofile",user.id))\n\treturn dict()\n\t\t\t\n\n\ndef noti():\n\tseen=db(db.flak.user_id==auth.user.id).select()\n\treturn dict(seen=seen)\n\ndef profile():\n\tredirect(URL(\'allprofile\',args=auth.user.id))\n\ndef editprojects():\n\tform = db(db.auth_user.id==auth.user.id).select()\n\trow=db(db.allowed_users.other_email==auth.user.email).select()\n\tproject=db(db.project.projectadmin_email==auth.user.email).select()\n\treturn dict(row=row,form=form,project=project)\n\n\ndef editprofile():\n\tform = db(db.auth_user.id==auth.user.id).select()\n\trow=db(db.allowed_users.other_email==auth.user.email).select()\n\tdb.auth_user.email.writable=False\n\treturn dict(form1=auth.profile(),row=row,form=form)\n\ndef allprofile():\n\tform = db(db.auth_user.id==request.args(0,cast=int)).select()\n\trow1=db(db.allowed_users.other_email==form[0].email).select()\n\n\tif auth.user:\n\t\trow=db(db.allowed_users.other_email==auth.user.email).select()\n\t\treturn dict(form=form,row=row,row1=row1)\n\telse:\n\t\treturn dict(form=form,row1=row1)\n\ndef byuploads():\n\tform = db().select(db.auth_user.ALL, orderby=~db.auth_user.upload_count)\n\treturn dict(form = form)\n\ndef most_recent():\n\tform = db().select(db.project.ALL, orderby=~db.project.date_added)\n\treturn dict(form=form)\n\t\ndef bycomments():\n\tform = db().select(db.project.ALL, orderby=~db.project.num_comments)\n\treturn dict(form=form)\n\ndef bydownloads():\n\tform = db().select(db.project.ALL, orderby=~db.project.num_downloads)\n\treturn dict(form=form)\n\ndef byrating():\n\tform = db().select(db.project.ALL, orderby=~db.project.avg_rating)\n\treturn dict(form=form)\n\ndef az():\n\tform = db().select(db.project.ALL, orderby=db.project.project_name)\n\treturn dict(form=form)\ndef za():\n\tform1 = db().select(db.project.ALL, orderby=~db.project.project_name)\n\treturn dict(form1=form1)\ndef browse():\n\tform = db().select(db.project.ALL, orderby=db.project.project_name)\n\treturn dict(form=form)\n\n@auth.requires_login()\ndef uploadpage():\n\treturn dict()\n\ndef viewfiles():\n\t\n\tproject=db.project(request.args(0,cast=int)) or redirect(URL(\'index\'))\n\tmain=db(db.files.project_id==project.id).select()\n\tver1=db((db.files.project_version==1) & (db.files.project_id==project.id)).select()\n\tver2=db((db.files.project_version==2) & (db.files.project_id==project.id)).select()\n\tver3=db((db.files.project_version==3) & (db.files.project_id==project.id)).select()\n\n\treturn dict(ver1=ver1,ver2=ver2,ver3=ver3,main=main,project=project)\n\ndef delfile3():\n\tfiles=db((db.files.file_name==request.args(0,cast=str)) & (db.files.project_version==1)).select().last()\n\tdb((db.files.file_name==request.args(0,cast=str)) & (db.files.project_version==3)).delete()\n\tsession.flash="File Deleted"\n\tredirect(URL(\'viewfiles\',args=files.project_id))\ndef delfile2():\n\tfiles=db((db.files.file_name==request.args(0,cast=str)) & (db.files.project_version==1)).select().last()\n\tdb((db.files.file_name==request.args(0,cast=str)) & (db.files.project_version==2)).delete()\n\tsession.flash="File Deleted"\n\tredirect(URL(\'viewfiles\',args=files.project_id))\ndef delfile1():\n\tfiles=db((db.files.file_name==request.args(0,cast=str)) & (db.files.project_version==1)).select().last()\n\tdb((db.files.file_name==request.args(0,cast=str)) & (db.files.project_version==1)).delete()\n\tsession.flash="File Deleted"\n\tredirect(URL(\'viewfiles\',args=files.project_id))\n\n\ndef addfiles():\n\t\n\tform=SQLFORM(db.files)\n\tproject=db.project(request.args(0,cast=int)) or redirect(URL(\'index\'))\n\tif form.process().accepted:\n\t\tsession.flash=\'Files Added\'\n\t\tmain2=db(db.files.file_name==request.vars.file_name).select().last()\n\t\tmain2.project_id=project.id\n\t\tmain=db((db.files.file_name==request.vars.file_name) & (db.files.project_id==project.id)).select()\n\t\tif len(main)==3:\n\t\t\tv1=db((db.files.file_name==request.vars.file_name) & (db.files.project_id==project.id) &(db.files.project_version==1)).select()\n\t\t\tv2=db((db.files.file_name==request.vars.file_name) & (db.files.project_id==project.id) &(db.files.project_version==2)).select()\n\t\t\tv3=db((db.files.file_name==request.vars.file_name) & (db.files.project_id==project.id) &(db.files.project_version==3)).select()\n\t\t\tv1[0].project_file=v2[0].project_file\n\t\t\tv1[0].file_description=v2[0].file_description\n\t\t\tv2[0].file_description=v3[0].file_description\n\t\t\tv3[0].file_description=request.vars.file_description\n\t\t\tv2[0].project_file=v3[0].project_file\n\t\t\tv3[0].project_file=request.vars.project_file\n\t\t\tv1[0].update_record()\n\t\t\tv2[0].update_record()\n\t\t\tv3[0].update_record()\n\t\telse:\n\t\t\tmain2.project_version=len(main) + 1\n\t\t\tmain2.update_record()\n\t\trow1=db(db.auth_user.email==auth.user.email).select()\n\t\trow1[0].upload_count = row1[0].upload_count + 1\n\t\trow1[0].update_record()\n\t\tdb(db.files.project_version==0).delete()\n\n\treturn dict(project=project,form=form)\n\ndef oldproject():\n\trow=db(db.allowed_users.other_email==auth.user.email).select()\n\t\t\n\treturn dict(row=row)\n\n\t\ndef newproject():\n\tform = SQLFORM(db.project)\n\n\tif form.process().accepted:\n\t\tsome=db(db.project.project_name==request.vars.project_name).select()\n\t\trow=db(db.project.project_name==request.vars.project_name).validate_and_update(projectadmin_email=auth.user.email)\n\t\trow1=db(db.auth_user.email==auth.user.email).select()\n\t\trow1[0].upload_count = row1[0].upload_count + 1\n\t\trow1[0].update_record()\n\t\tdb.flak.insert(user_id=auth.user.id,project_id=db().select(db.project.id).last())\n\t\tredirect(URL(\'project_page\',args=some[0].id))\n\treturn dict(form=form)\n\ndef category():\n\tform = db().select(db.project.ALL, orderby=db.project.project_name)\n\treturn dict(form=form)\n\ndef listofprojects():\n\tform =db(db.project.category==request.args(0,cast=str)).select()\n\treturn dict(form=form)\n\ndef most_uploaded():\n\tform = db().select(db.auth_user.ALL)\n\treturn dict(form=form)\n\n\ndef most_rated():\n\tform = db().select(db.project.ALL)\n\treturn dict(form=form)\n\ndef most_commented():\n\tform = db().select(db.project.ALL)\n\treturn dict(form=form)\n\ndef userprojects():\n\tprojects=db(db.project.projectadmin_email==auth.user.email).select()\n\treturn dict(projects=projects)\ndef download_func3():\n\t\n\tmain=db((db.files.project_id==request.args(0,cast=int)) & (db.files.project_version==3)).select()\n\t\n\tproject = db.project(request.args(0,cast=int)) or redirect(URL(\'index\'))\n\tproject.num_downloads=project.num_downloads + 1\n\tproject.update_record()\n\tcan=db(db.flak.project_id==project.id).select()\n\tif len(can)!=0:\n\t\n\t\tcan[0].download_flag=True\n\t\tcan[0].all_flag=True\n\t\tcan[0].update_record()\n\n\tredirect(URL(\'download\',args=main[0].project_file))\ndef download_func2():\n\t\n\tmain=db((db.files.project_id==request.args(0,cast=int)) & (db.files.project_version==2)).select()\n\t\n\tproject = db.project(request.args(0,cast=int)) or redirect(URL(\'index\'))\n\tproject.num_downloads=project.num_downloads + 1\n\tproject.update_record()\n\tcan=db(db.flak.project_id==project.id).select()\n\tif len(can)!=0:\n\t\tcan[0].download_flag=True\n\t\tcan[0].all_flag=True\n\t\tcan[0].update_record()\n\n\tredirect(URL(\'download\',args=main[0].project_file))\ndef download_func1():\n\t\n\tmain=db((db.files.project_id==request.args(0,cast=int)) & (db.files.project_version==1)).select()\n\t\n\tproject = db.project(request.args(0,cast=int)) or redirect(URL(\'index\'))\n\tproject.num_downloads=project.num_downloads + 1\n\tproject.update_record()\n\tcan=db(db.flak.project_id==project.id).select()\n\tif len(can)!=0:\n\t\tcan[0].download_flag=True\n\t\tcan[0].all_flag=True\n\t\tcan[0].update_record()\n\n\tredirect(URL(\'download\',args=main[0].project_file))\n\n\ndef mostdownload():\n\tform=db().select(db.project.ALL)\n\treturn dict(form=form)\n"""\ndef clear():\n\tdb.project.truncate()\n\tdb.auth_user.truncate()\n\tdb.comments.truncate()\n\treturn dict()\n"""\n\n@auth.requires_login()\ndef delproject():\n\t\n\tproject = db.project(request.args(0,cast=int)) or redirect(URL(\'index\'))\n\n\tdb(db.allowed_users.project_name==project.project_name).delete()\n\tdb(request.args(0,cast=int)==db.project.id).delete()\n\tsession.flash = \'Project deleted\'\n\tredirect(URL(\'editprojects\'))\n\n\n@auth.requires_login()\ndef editproject():\n\tproject = db.project(request.args(0,cast=int))\n\t\n\tform = SQLFORM.factory(\n\t\t\tField(\'description\',type=\'text\',default=project.description),\n\t\t\tField(\'projectadmin_email\',writable=False,readable=False,default=auth.user.email),\n\t\t\tField(\'project_pic\',type=\'upload\',default=\'\'),\n\t\t\tField(\'type_of_project\',requires=IS_IN_SET([\'Course\',\'Thesis\',\'Research Paper\',\'MSIT\',\'Other\']),default=project.type_of_project),\n\t\t\tField(\'category\',requires=IS_IN_SET([\'Audio & Video\',\'Business & Enterprise\',\'Communications\',\'Development\',\'Home & Education\',\'Games\',\'Graphics\',\'Science & Engineering\',\'Websites\',\'Others\']),default=project.category),\n\t\t\tField(\'project_admin_year\',requires=IS_IN_SET([\'BTECH\',\'MS\',\'MTECH\',\'PHD\']),default=project.project_admin_year)\n\t\t\n\t\t\t)\n\tif form.process().accepted:\n\t\tsession.flash=\'Project Details Updated\'\n\t\tdb(db.project.id==request.args(0,cast=int)).update(project_pic=form.vars.project_pic,description=form.vars.description,type_of_project=form.vars.type_of_project,category=form.vars.category,project_admin_year=form.vars.project_admin_year)\n\t\tredirect(URL(\'editproject\',args=project.id))\n\treturn dict(form=form,project=project)\n\ndef project_page():\n\tproject = db.project(request.args(0,cast=int)) or redirect(URL(\'index\'))\n\tdb.comments.project_id.default = project.id\n\tform = SQLFORM(db.comments)\n\tcomments = db(db.comments.project_id==project.id).select()\n\treturn dict(project=project, comments=comments, form=form)\n\n@auth.requires_login()\ndef commentandrate():\n\tproject = db.project(request.args(0,cast=int)) or redirect(URL(\'index\'))\n\tdb.comments.project_id.default = project.id\n\tform = SQLFORM(db.comments)\n\tform1= SQLFORM.factory(\n\t\tField(\'rating\',type=\'integer\',requires=IS_IN_SET([1,2,3,4,5])))\n\t\n\tif form.process().accepted:\n\t\trow=db(db.comments.comment_c==request.vars.comment_c).select().last()\n\t\trow.commenter_c=auth.user.email\n\t\trow.update_record()\n\t\t\n\t\tcan=db(db.flak.project_id==project.id).select()\n\t\tif len(can)!=0:\n\t\t\tcan[0].comments_flag=True\n\t\t\tcan[0].all_flag=True\n\t\t\tcan[0].update_record()\n\t\tresponse.flash = \'your comment is posted\'\n\t\n\tif form1.process().accepted:\n\t\tresponse.flash = \'your rating has been added\'\n\t\tproject.num_rating = project.num_rating + 1\n\t\tproject.total_rating = int(project.total_rating) + int(request.vars.rating)\n\t\tcan=db(db.flak.project_id==project.id).select()\n\t\tif len(can)!=0:\n\t\t\tcan[0].rating_flag=True\n\t\t\tcan[0].all_flag=True\n\t\t\tcan[0].update_record()\n\t\tproject.update_record()\n\t\n\tcomments = db(db.comments.project_id==project.id).select()\n\t\n\treturn dict(project=project, comments=comments, form=form,form1=form1)\n\ndef collo_error():\n\treturn dict()\n"""\ndef delete_collo():\n\tprint request.args(1)\n\treturn  dict()\n"""\ndef confirm_delcollo():\n\t\n\tuser = db.allowed_users(request.args(0,cast=int)) or redirect(URL(\'index\'))\n\tproject=db(db.allowed_users.project_name==user.project_name).select()\n\tdb(request.args(0,cast=int)==db.allowed_users.id).delete()\n\tredirect(URL(\'project_page\',args=project[0].id))\n\n\n\ndef delcollo():\n\n\tproject = db.project(request.args(0,cast=int))\n\trow=db(db.allowed_users.project_name==project.project_name).select()\n\n\tif auth.user:\n\t\tif auth.user.email==project.projectadmin_email:\n\t\t\treturn dict(row=row,project=project)\n\telse:\n\t\tredirect(URL(\'collo_error\',args=project.id))\n\n\n@auth.requires_login()\ndef addcollo():\n\t\n\tproject = db.project(request.args(0,cast=int)) or redirect(URL(\'index\'))\n\t\n#\trow=db(project.project_name==db.allowed_users.project_name).select()\n\n\tform1 = SQLFORM.factory(\n\t\tField(\'add_collaborator\',type=\'string\',requires=IS_EMAIL())\n\t\t)\n \n\trow1=db(db.allowed_users.project_name==project.project_name).select()\n\t\n\tif form1.process().accepted:\n\t\tdb.allowed_users.insert(other_email=request.vars.add_collaborator)\n\t\trow=db(db.allowed_users.other_email==request.vars.add_collaborator).select().last()\n\t\trow.project_name=project.project_name\n\t\trow.projectadmin_email=auth.user.email\n\t\trow.update_record()\n\t\tredirect(URL(\'project_page\',args=project.id))\n\t\t\n\n\tif auth.user.email==project.projectadmin_email:\n\t\t\treturn dict(form1=form1,project=project,row1=row1)\n\telse:\n\t\t\tredirect(URL(\'collo_error\',args=project.id))\n\t\n\n\n\n\n\t\n"""def login():\n\tform=SQLFORM.factory(\n\t\t\tField(\'user\',type=\'string\',requires=IS_NOT_EMPTY()),\n\t\t\tField(\'password\',type=\'password\'),\n\t\t\tField(\'dateofbirth\',type=\'date\')\n\t)\n\tif form.process().accepted:\n\t\trow=db(db.register.Username==request.vars.user).select()\n\t\tif request.vars.password==row[0][\'Password\']:\n\t\t\tredirect(URL(\'upload\'))\n\t\telse:\n\t\t\tresponse.flash=\'Invalid username or password\'\n\telse:\n\t \tresponse.flash=\'Error\'\n\n\treturn dict(form=form)\n"""\n\nresponse._vars=response._caller(sub)\n'
p7
sS'snapshot'
p8
(dp9
S'exception'
p10
(dp11
S'__hash__'
p12
S"<method-wrapper '__hash__' of exceptions.TypeError object>"
p13
sS'__setattr__'
p14
S"<method-wrapper '__setattr__' of exceptions.TypeError object>"
p15
sS'__reduce_ex__'
p16
S'<built-in method __reduce_ex__ of exceptions.TypeError object>'
p17
sS'__getslice__'
p18
S"<method-wrapper '__getslice__' of exceptions.TypeError object>"
p19
sS'__getitem__'
p20
S"<method-wrapper '__getitem__' of exceptions.TypeError object>"
p21
sS'__setstate__'
p22
S'<built-in method __setstate__ of exceptions.TypeError object>'
p23
sS'__reduce__'
p24
S'<built-in method __reduce__ of exceptions.TypeError object>'
p25
sS'__str__'
p26
S"<method-wrapper '__str__' of exceptions.TypeError object>"
p27
sS'__format__'
p28
S'<built-in method __format__ of exceptions.TypeError object>'
p29
sS'__getattribute__'
p30
S"<method-wrapper '__getattribute__' of exceptions.TypeError object>"
p31
sS'__class__'
p32
S"<type 'exceptions.TypeError'>"
p33
sS'__unicode__'
p34
S'<built-in method __unicode__ of exceptions.TypeError object>'
p35
sS'__delattr__'
p36
S"<method-wrapper '__delattr__' of exceptions.TypeError object>"
p37
sS'__subclasshook__'
p38
S'<built-in method __subclasshook__ of type object>'
p39
sS'__repr__'
p40
S"<method-wrapper '__repr__' of exceptions.TypeError object>"
p41
sS'args'
p42
S'("unsupported operand type(s) for &: \'int\' and \'Field\'",)'
p43
sS'__dict__'
p44
S'{}'
p45
sS'__sizeof__'
p46
S'<built-in method __sizeof__ of exceptions.TypeError object>'
p47
sS'__doc__'
p48
S"'Inappropriate argument type.'"
p49
sS'__init__'
p50
S"<method-wrapper '__init__' of exceptions.TypeError object>"
p51
sS'__new__'
p52
S'<built-in method __new__ of type object>'
p53
ssS'evalue'
p54
S"unsupported operand type(s) for &: 'int' and 'Field'"
p55
sS'request'
p56
cgluon.html
XML_unpickle
p57
(S's\xd6T\x00\x00<div><table><tr><td style="font-weight:bold;vertical-align:top">ajax</td><td valign="top">:</td><td><div>False</div></td></tr><tr><td style="font-weight:bold;vertical-align:top">application</td><td valign="top">:</td><td><div>projectlibrary</div></td></tr><tr><td style="font-weight:bold;vertical-align:top">args</td><td valign="top">:</td><td><div><table><tr><td><div>5</div></td></tr></table></div></td></tr><tr><td style="font-weight:bold;vertical-align:top">body</td><td valign="top">:</td><td><div>&lt;cStringIO.StringO object at 0xaea38520&gt;</div></td></tr><tr><td style="font-weight:bold;vertical-align:top">cid</td><td valign="top">:</td><td><div>None</div></td></tr><tr><td style="font-weight:bold;vertical-align:top">client</td><td valign="top">:</td><td><div>127.0.0.1</div></td></tr><tr><td style="font-weight:bold;vertical-align:top">controller</td><td valign="top">:</td><td><div>default</div></td></tr><tr><td style="font-weight:bold;vertical-align:top">cookies</td><td valign="top">:</td><td><div><table><tr><td style="font-weight:bold;vertical-align:top">session_id_admin</td><td valign="top">:</td><td><div>127.0.0.1-4e042f8e-b668-410d-8991-5dc46820f7fb<table><tr><td style="font-weight:bold;vertical-align:top">comment</td><td valign="top">:</td><td><div></div></td></tr><tr><td style="font-weight:bold;vertical-align:top">domain</td><td valign="top">:</td><td><div></div></td></tr><tr><td style="font-weight:bold;vertical-align:top">expires</td><td valign="top">:</td><td><div></div></td></tr><tr><td style="font-weight:bold;vertical-align:top">httponly</td><td valign="top">:</td><td><div></div></td></tr><tr><td style="font-weight:bold;vertical-align:top">max-age</td><td valign="top">:</td><td><div></div></td></tr><tr><td style="font-weight:bold;vertical-align:top">path</td><td valign="top">:</td><td><div></div></td></tr><tr><td style="font-weight:bold;vertical-align:top">secure</td><td valign="top">:</td><td><div></div></td></tr><tr><td style="font-weight:bold;vertical-align:top">version</td><td valign="top">:</td><td><div></div></td></tr></table></div></td></tr><tr><td style="font-weight:bold;vertical-align:top">session_id_projectlibrary</td><td valign="top">:</td><td><div>127.0.0.1-56113726-7230-4374-932b-1ff6712ba586<table><tr><td style="font-weight:bold;vertical-align:top">comment</td><td valign="top">:</td><td><div></div></td></tr><tr><td style="font-weight:bold;vertical-align:top">domain</td><td valign="top">:</td><td><div></div></td></tr><tr><td style="font-weight:bold;vertical-align:top">expires</td><td valign="top">:</td><td><div></div></td></tr><tr><td style="font-weight:bold;vertical-align:top">httponly</td><td valign="top">:</td><td><div></div></td></tr><tr><td style="font-weight:bold;vertical-align:top">max-age</td><td valign="top">:</td><td><div></div></td></tr><tr><td style="font-weight:bold;vertical-align:top">path</td><td valign="top">:</td><td><div></div></td></tr><tr><td style="font-weight:bold;vertical-align:top">secure</td><td valign="top">:</td><td><div></div></td></tr><tr><td style="font-weight:bold;vertical-align:top">version</td><td valign="top">:</td><td><div></div></td></tr></table></div></td></tr><tr><td style="font-weight:bold;vertical-align:top">session_id_welcome</td><td valign="top">:</td><td><div>127.0.0.1-0b1476e2-6432-420e-a004-54f41a6292ed<table><tr><td style="font-weight:bold;vertical-align:top">comment</td><td valign="top">:</td><td><div></div></td></tr><tr><td style="font-weight:bold;vertical-align:top">domain</td><td valign="top">:</td><td><div></div></td></tr><tr><td style="font-weight:bold;vertical-align:top">expires</td><td valign="top">:</td><td><div></div></td></tr><tr><td style="font-weight:bold;vertical-align:top">httponly</td><td valign="top">:</td><td><div></div></td></tr><tr><td style="font-weight:bold;vertical-align:top">max-age</td><td valign="top">:</td><td><div></div></td></tr><tr><td style="font-weight:bold;vertical-align:top">path</td><td valign="top">:</td><td><div></div></td></tr><tr><td style="font-weight:bold;vertical-align:top">secure</td><td valign="top">:</td><td><div></div></td></tr><tr><td style="font-weight:bold;vertical-align:top">version</td><td valign="top">:</td><td><div></div></td></tr></table></div></td></tr></table></div></td></tr><tr><td style="font-weight:bold;vertical-align:top">env</td><td valign="top">:</td><td><div><table><tr><td style="font-weight:bold;vertical-align:top">app_folders</td><td valign="top">:</td><td><div>set([&#x27;/home/kira/web2py/applications/admin/&#x27;, &#x27;/home/kira/web2py/applications/welcome/&#x27;, &#x27;/home/kira/web2py/applications/projectlibrary/&#x27;])</div></td></tr><tr><td style="font-weight:bold;vertical-align:top">applications_parent</td><td valign="top">:</td><td><div>/home/kira/web2py</div></td></tr><tr><td style="font-weight:bold;vertical-align:top">cmd_args</td><td valign="top">:</td><td><div><table></table></div></td></tr><tr><td style="font-weight:bold;vertical-align:top">cmd_options</td><td valign="top">:</td><td><div>&lt;Values at 0x94ebe6c: {&#x27;verbose&#x27;: False, &#x27;ip&#x27;: &#x27;127.0.0.1&#x27;, &#x27;with_scheduler&#x27;: False, &#x27;ips&#x27;: [], &#x27;shutdown_timeout&#x27;: 5, &#x27;taskbar&#x27;: False, &#x27;port&#x27;: 8000, &#x27;maxthreads&#x27;: None, &#x27;softcron&#x27;: False, &#x27;server_name&#x27;: &#x27;kira-Ideapad-Z570&#x27;, &#x27;bpython&#x27;: False, &#x27;nogui&#x27;: False, &#x27;pid_filename&#x27;: &#x27;httpserver.pid&#x27;, &#x27;extcron&#x27;: False, &#x27;runcron&#x27;: False, &#x27;run_system_tests&#x27;: False, &#x27;test&#x27;: None, &#x27;folder&#x27;: &#x27;/home/kira/web2py&#x27;, &#x27;config&#x27;: &#x27;&#x27;, &#x27;import_models&#x27;: False, &#x27;winservice&#x27;: &#x27;&#x27;, &#x27;shell&#x27;: None, &#x27;run&#x27;: &#x27;&#x27;, &#x27;log_filename&#x27;: &#x27;httpserver.log&#x27;, &#x27;debuglevel&#x27;: 30, &#x27;args&#x27;: [&#x27;&#x27;], &#x27;socket_timeout&#x27;: 5, &#x27;ssl_ca_certificate&#x27;: None, &#x27;scheduler&#x27;: None, &#x27;profiler_filename&#x27;: None, &#x27;ssl_private_key&#x27;: &#x27;&#x27;, &#x27;scheduler_groups&#x27;: None, &#x27;password&#x27;: &#x27;asd&#x27;, &#x27;request_queue_size&#x27;: 5, &#x27;ssl_certificate&#x27;: &#x27;&#x27;, &#x27;cronjob&#x27;: False, &#x27;numthreads&#x27;: None, &#x27;quiet&#x27;: False, &#x27;interfaces&#x27;: None, &#x27;minthreads&#x27;: None, &#x27;timeout&#x27;: 10, &#x27;plain&#x27;: False, &#x27;nobanner&#x27;: False}&gt;</div></td></tr><tr><td style="font-weight:bold;vertical-align:top">db_sessions</td><td valign="top">:</td><td><div>set([])</div></td></tr><tr><td style="font-weight:bold;vertical-align:top">debugging</td><td valign="top">:</td><td><div>False</div></td></tr><tr><td style="font-weight:bold;vertical-align:top">gluon_parent</td><td valign="top">:</td><td><div>/home/kira/web2py</div></td></tr><tr><td style="font-weight:bold;vertical-align:top">http_accept</td><td valign="top">:</td><td><div>text/html,application/xhtml+xml,application/xml;q=0.9,*/*;q=0.8</div></td></tr><tr><td style="font-weight:bold;vertical-align:top">http_accept_encoding</td><td valign="top">:</td><td><div>gzip, deflate</div></td></tr><tr><td style="font-weight:bold;vertical-align:top">http_accept_language</td><td valign="top">:</td><td><div>en-us,en;q=0.5</div></td></tr><tr><td style="font-weight:bold;vertical-align:top">http_connection</td><td valign="top">:</td><td><div>keep-alive</div></td></tr><tr><td style="font-weight:bold;vertical-align:top">http_cookie</td><td valign="top">:</td><td><div>session_id_welcome=127.0.0.1-0b1476e2-6432-420e-a004-54f41a6292ed; session_id_admin=127.0.0.1-4e042f8e-b668-410d-8991-5dc46820f7fb; session_id_projectlibrary=127.0.0.1-56113726-7230-4374-932b-1ff6712ba586</div></td></tr><tr><td style="font-weight:bold;vertical-align:top">http_host</td><td valign="top">:</td><td><div>127.0.0.1:8000</div></td></tr><tr><td style="font-weight:bold;vertical-align:top">http_referer</td><td valign="top">:</td><td><div>http://127.0.0.1:8000/projectlibrary/default/allprofile/5</div></td></tr><tr><td style="font-weight:bold;vertical-align:top">http_user_agent</td><td valign="top">:</td><td><div>Mozilla/5.0 (X11; Ubuntu; Linux i686; rv:11.0) Gecko/20100101 Firefox/11.0</div></td></tr><tr><td style="font-weight:bold;vertical-align:top">is_jython</td><td valign="top">:</td><td><div>False</div></td></tr><tr><td style="font-weight:bold;vertical-align:top">is_pypy</td><td valign="top">:</td><td><div>False</div></td></tr><tr><td style="font-weight:bold;vertical-align:top">local_hosts</td><td valign="top">:</td><td><div><table><tr><td><div>kira-Ideapad-Z570</div></td></tr><tr><td><div>::1</div></td></tr><tr><td><div>127.0.1.1</div></td></tr><tr><td><div>::ffff:127.0.0.1</div></td></tr><tr><td><div>127.0.0.1</div></td></tr></table></div></td></tr><tr><td style="font-weight:bold;vertical-align:top">path_info</td><td valign="top">:</td><td><div>/projectlibrary/default/sub/5</div></td></tr><tr><td style="font-weight:bold;vertical-align:top">query_string</td><td valign="top">:</td><td><div></div></td></tr><tr><td style="font-weight:bold;vertical-align:top">remote_addr</td><td valign="top">:</td><td><div>127.0.0.1</div></td></tr><tr><td style="font-weight:bold;vertical-align:top">remote_port</td><td valign="top">:</td><td><div>48301</div></td></tr><tr><td style="font-weight:bold;vertical-align:top">request_method</td><td valign="top">:</td><td><div>GET</div></td></tr><tr><td style="font-weight:bold;vertical-align:top">request_uri</td><td valign="top">:</td><td><div>/projectlibrary/default/sub/5</div></td></tr><tr><td style="font-weight:bold;vertical-align:top">script_name</td><td valign="top">:</td><td><div></div></td></tr><tr><td style="font-weight:bold;vertical-align:top">server_name</td><td valign="top">:</td><td><div>kira-Ideapad-Z570</div></td></tr><tr><td style="font-weight:bold;vertical-align:top">server_port</td><td valign="top">:</td><td><div>8000</div></td></tr><tr><td style="font-weight:bold;vertical-align:top">server_protocol</td><td valign="top">:</td><td><div>HTTP/1.1</div></td></tr><tr><td style="font-weight:bold;vertical-align:top">server_software</td><td valign="top">:</td><td><div>Rocket 1.2.6</div></td></tr><tr><td style="font-weight:bold;vertical-align:top">web2py_path</td><td valign="top">:</td><td><div>/home/kira/web2py</div></td></tr><tr><td style="font-weight:bold;vertical-align:top">web2py_version</td><td valign="top">:</td><td><div><table><tr><td><div>2</div></td></tr><tr><td><div>4</div></td></tr><tr><td><div>2</div></td></tr><tr><td><div>stable</div></td></tr><tr><td><div>datetime.datetime(2013, 3, 4, 3, 26, 21)</div></td></tr></table></div></td></tr><tr><td style="font-weight:bold;vertical-align:top">wsgi_errors</td><td valign="top">:</td><td><div>&lt;open file &#x27;&lt;stderr&gt;&#x27;, mode &#x27;w&#x27; at 0xb72a50d0&gt;</div></td></tr><tr><td style="font-weight:bold;vertical-align:top">wsgi_file_wrapper</td><td valign="top">:</td><td><div>&lt;class wsgiref.util.FileWrapper at 0x9478b9c&gt;</div></td></tr><tr><td style="font-weight:bold;vertical-align:top">wsgi_input</td><td valign="top">:</td><td><div>&lt;socket._fileobject object at 0xadf7d8ec&gt;</div></td></tr><tr><td style="font-weight:bold;vertical-align:top">wsgi_multiprocess</td><td valign="top">:</td><td><div>False</div></td></tr><tr><td style="font-weight:bold;vertical-align:top">wsgi_multithread</td><td valign="top">:</td><td><div>True</div></td></tr><tr><td style="font-weight:bold;vertical-align:top">wsgi_run_once</td><td valign="top">:</td><td><div>False</div></td></tr><tr><td style="font-weight:bold;vertical-align:top">wsgi_url_scheme</td><td valign="top">:</td><td><div>http</div></td></tr><tr><td style="font-weight:bold;vertical-align:top">wsgi_version</td><td valign="top">:</td><td><div><table><tr><td><div>1</div></td></tr><tr><td><div>0</div></td></tr></table></div></td></tr></table></div></td></tr><tr><td style="font-weight:bold;vertical-align:top">extension</td><td valign="top">:</td><td><div>html</div></td></tr><tr><td style="font-weight:bold;vertical-align:top">folder</td><td valign="top">:</td><td><div>/home/kira/web2py/applications/projectlibrary/</div></td></tr><tr><td style="font-weight:bold;vertical-align:top">function</td><td valign="top">:</td><td><div>sub</div></td></tr><tr><td style="font-weight:bold;vertical-align:top">get_vars</td><td valign="top">:</td><td><div><table></table></div></td></tr><tr><td style="font-weight:bold;vertical-align:top">global_settings</td><td valign="top">:</td><td><div><table><tr><td style="font-weight:bold;vertical-align:top">app_folders</td><td valign="top">:</td><td><div>set([&#x27;/home/kira/web2py/applications/admin/&#x27;, &#x27;/home/kira/web2py/applications/welcome/&#x27;, &#x27;/home/kira/web2py/applications/projectlibrary/&#x27;])</div></td></tr><tr><td style="font-weight:bold;vertical-align:top">applications_parent</td><td valign="top">:</td><td><div>/home/kira/web2py</div></td></tr><tr><td style="font-weight:bold;vertical-align:top">cmd_args</td><td valign="top">:</td><td><div><table></table></div></td></tr><tr><td style="font-weight:bold;vertical-align:top">cmd_options</td><td valign="top">:</td><td><div>&lt;Values at 0x94ebe6c: {&#x27;verbose&#x27;: False, &#x27;ip&#x27;: &#x27;127.0.0.1&#x27;, &#x27;with_scheduler&#x27;: False, &#x27;ips&#x27;: [], &#x27;shutdown_timeout&#x27;: 5, &#x27;taskbar&#x27;: False, &#x27;port&#x27;: 8000, &#x27;maxthreads&#x27;: None, &#x27;softcron&#x27;: False, &#x27;server_name&#x27;: &#x27;kira-Ideapad-Z570&#x27;, &#x27;bpython&#x27;: False, &#x27;nogui&#x27;: False, &#x27;pid_filename&#x27;: &#x27;httpserver.pid&#x27;, &#x27;extcron&#x27;: False, &#x27;runcron&#x27;: False, &#x27;run_system_tests&#x27;: False, &#x27;test&#x27;: None, &#x27;folder&#x27;: &#x27;/home/kira/web2py&#x27;, &#x27;config&#x27;: &#x27;&#x27;, &#x27;import_models&#x27;: False, &#x27;winservice&#x27;: &#x27;&#x27;, &#x27;shell&#x27;: None, &#x27;run&#x27;: &#x27;&#x27;, &#x27;log_filename&#x27;: &#x27;httpserver.log&#x27;, &#x27;debuglevel&#x27;: 30, &#x27;args&#x27;: [&#x27;&#x27;], &#x27;socket_timeout&#x27;: 5, &#x27;ssl_ca_certificate&#x27;: None, &#x27;scheduler&#x27;: None, &#x27;profiler_filename&#x27;: None, &#x27;ssl_private_key&#x27;: &#x27;&#x27;, &#x27;scheduler_groups&#x27;: None, &#x27;password&#x27;: &#x27;asd&#x27;, &#x27;request_queue_size&#x27;: 5, &#x27;ssl_certificate&#x27;: &#x27;&#x27;, &#x27;cronjob&#x27;: False, &#x27;numthreads&#x27;: None, &#x27;quiet&#x27;: False, &#x27;interfaces&#x27;: None, &#x27;minthreads&#x27;: None, &#x27;timeout&#x27;: 10, &#x27;plain&#x27;: False, &#x27;nobanner&#x27;: False}&gt;</div></td></tr><tr><td style="font-weight:bold;vertical-align:top">db_sessions</td><td valign="top">:</td><td><div>set([])</div></td></tr><tr><td style="font-weight:bold;vertical-align:top">debugging</td><td valign="top">:</td><td><div>False</div></td></tr><tr><td style="font-weight:bold;vertical-align:top">gluon_parent</td><td valign="top">:</td><td><div>/home/kira/web2py</div></td></tr><tr><td style="font-weight:bold;vertical-align:top">is_jython</td><td valign="top">:</td><td><div>False</div></td></tr><tr><td style="font-weight:bold;vertical-align:top">is_pypy</td><td valign="top">:</td><td><div>False</div></td></tr><tr><td style="font-weight:bold;vertical-align:top">local_hosts</td><td valign="top">:</td><td><div><table><tr><td><div>kira-Ideapad-Z570</div></td></tr><tr><td><div>::1</div></td></tr><tr><td><div>127.0.1.1</div></td></tr><tr><td><div>::ffff:127.0.0.1</div></td></tr><tr><td><div>127.0.0.1</div></td></tr></table></div></td></tr><tr><td style="font-weight:bold;vertical-align:top">web2py_version</td><td valign="top">:</td><td><div><table><tr><td><div>2</div></td></tr><tr><td><div>4</div></td></tr><tr><td><div>2</div></td></tr><tr><td><div>stable</div></td></tr><tr><td><div>datetime.datetime(2013, 3, 4, 3, 26, 21)</div></td></tr></table></div></td></tr></table></div></td></tr><tr><td style="font-weight:bold;vertical-align:top">is_https</td><td valign="top">:</td><td><div>False</div></td></tr><tr><td style="font-weight:bold;vertical-align:top">is_local</td><td valign="top">:</td><td><div>True</div></td></tr><tr><td style="font-weight:bold;vertical-align:top">is_restful</td><td valign="top">:</td><td><div>False</div></td></tr><tr><td style="font-weight:bold;vertical-align:top">now</td><td valign="top">:</td><td><div>datetime.datetime(2013, 4, 16, 2, 59, 52, 304046)</div></td></tr><tr><td style="font-weight:bold;vertical-align:top">post_vars</td><td valign="top">:</td><td><div><table></table></div></td></tr><tr><td style="font-weight:bold;vertical-align:top">raw_args</td><td valign="top">:</td><td><div>5</div></td></tr><tr><td style="font-weight:bold;vertical-align:top">raw_extension</td><td valign="top">:</td><td><div>None</div></td></tr><tr><td style="font-weight:bold;vertical-align:top">url</td><td valign="top">:</td><td><div>/projectlibrary/default/sub/5</div></td></tr><tr><td style="font-weight:bold;vertical-align:top">utcnow</td><td valign="top">:</td><td><div>datetime.datetime(2013, 4, 15, 21, 29, 52, 304074)</div></td></tr><tr><td style="font-weight:bold;vertical-align:top">uuid</td><td valign="top">:</td><td><div>projectlibrary/127.0.0.1.2013-04-16.02-59-52.28ed8e72-02f2-4ea8-8f6b-2b3bf3a9ef75</div></td></tr><tr><td style="font-weight:bold;vertical-align:top">vars</td><td valign="top">:</td><td><div><table></table></div></td></tr><tr><td style="font-weight:bold;vertical-align:top">wsgi</td><td valign="top">:</td><td><div><table><tr><td style="font-weight:bold;vertical-align:top">environ</td><td valign="top">:</td><td><div><table><tr><td style="font-weight:bold;vertical-align:top">HTTP_ACCEPT</td><td valign="top">:</td><td><div>text/html,application/xhtml+xml,application/xml;q=0.9,*/*;q=0.8</div></td></tr><tr><td style="font-weight:bold;vertical-align:top">HTTP_ACCEPT_ENCODING</td><td valign="top">:</td><td><div>gzip, deflate</div></td></tr><tr><td style="font-weight:bold;vertical-align:top">HTTP_ACCEPT_LANGUAGE</td><td valign="top">:</td><td><div>en-us,en;q=0.5</div></td></tr><tr><td style="font-weight:bold;vertical-align:top">HTTP_CONNECTION</td><td valign="top">:</td><td><div>keep-alive</div></td></tr><tr><td style="font-weight:bold;vertical-align:top">HTTP_COOKIE</td><td valign="top">:</td><td><div>session_id_welcome=127.0.0.1-0b1476e2-6432-420e-a004-54f41a6292ed; session_id_admin=127.0.0.1-4e042f8e-b668-410d-8991-5dc46820f7fb; session_id_projectlibrary=127.0.0.1-56113726-7230-4374-932b-1ff6712ba586</div></td></tr><tr><td style="font-weight:bold;vertical-align:top">HTTP_HOST</td><td valign="top">:</td><td><div>127.0.0.1:8000</div></td></tr><tr><td style="font-weight:bold;vertical-align:top">HTTP_REFERER</td><td valign="top">:</td><td><div>http://127.0.0.1:8000/projectlibrary/default/allprofile/5</div></td></tr><tr><td style="font-weight:bold;vertical-align:top">HTTP_USER_AGENT</td><td valign="top">:</td><td><div>Mozilla/5.0 (X11; Ubuntu; Linux i686; rv:11.0) Gecko/20100101 Firefox/11.0</div></td></tr><tr><td style="font-weight:bold;vertical-align:top">PATH_INFO</td><td valign="top">:</td><td><div>/projectlibrary/default/sub/5</div></td></tr><tr><td style="font-weight:bold;vertical-align:top">QUERY_STRING</td><td valign="top">:</td><td><div></div></td></tr><tr><td style="font-weight:bold;vertical-align:top">REMOTE_ADDR</td><td valign="top">:</td><td><div>127.0.0.1</div></td></tr><tr><td style="font-weight:bold;vertical-align:top">REMOTE_PORT</td><td valign="top">:</td><td><div>48301</div></td></tr><tr><td style="font-weight:bold;vertical-align:top">REQUEST_METHOD</td><td valign="top">:</td><td><div>GET</div></td></tr><tr><td style="font-weight:bold;vertical-align:top">REQUEST_URI</td><td valign="top">:</td><td><div>/projectlibrary/default/sub/5</div></td></tr><tr><td style="font-weight:bold;vertical-align:top">SCRIPT_NAME</td><td valign="top">:</td><td><div></div></td></tr><tr><td style="font-weight:bold;vertical-align:top">SERVER_NAME</td><td valign="top">:</td><td><div>kira-Ideapad-Z570</div></td></tr><tr><td style="font-weight:bold;vertical-align:top">SERVER_PORT</td><td valign="top">:</td><td><div>8000</div></td></tr><tr><td style="font-weight:bold;vertical-align:top">SERVER_PROTOCOL</td><td valign="top">:</td><td><div>HTTP/1.1</div></td></tr><tr><td style="font-weight:bold;vertical-align:top">SERVER_SOFTWARE</td><td valign="top">:</td><td><div>Rocket 1.2.6</div></td></tr><tr><td style="font-weight:bold;vertical-align:top">wsgi.errors</td><td valign="top">:</td><td><div>&lt;open file &#x27;&lt;stderr&gt;&#x27;, mode &#x27;w&#x27; at 0xb72a50d0&gt;</div></td></tr><tr><td style="font-weight:bold;vertical-align:top">wsgi.file_wrapper</td><td valign="top">:</td><td><div>&lt;class wsgiref.util.FileWrapper at 0x9478b9c&gt;</div></td></tr><tr><td style="font-weight:bold;vertical-align:top">wsgi.input</td><td valign="top">:</td><td><div>&lt;cStringIO.StringO object at 0xaea38520&gt;</div></td></tr><tr><td style="font-weight:bold;vertical-align:top">wsgi.multiprocess</td><td valign="top">:</td><td><div>False</div></td></tr><tr><td style="font-weight:bold;vertical-align:top">wsgi.multithread</td><td valign="top">:</td><td><div>True</div></td></tr><tr><td style="font-weight:bold;vertical-align:top">wsgi.run_once</td><td valign="top">:</td><td><div>False</div></td></tr><tr><td style="font-weight:bold;vertical-align:top">wsgi.url_scheme</td><td valign="top">:</td><td><div>http</div></td></tr><tr><td style="font-weight:bold;vertical-align:top">wsgi.version</td><td valign="top">:</td><td><div>1</div></td></tr></table></div></td></tr></table></div></td></tr></table></div>'
tRp58
sS'frames'
p59
(lp60
(dp61
S'file'
p62
S'/home/kira/web2py/gluon/restricted.py'
p63
sS'dump'
p64
(dp65
S'environment'
p66
S"{'A': <class 'gluon.html.A'>, 'Auth': <class 'gluon.tools.Auth'>, 'B': <class 'gluon.html.B'>, 'BEAUTIFY': <class 'gluon.html.BEAUTIFY'>, 'BODY': <class 'gluon.html.BODY'>, 'BR': <class 'gluon.html.BR'>, 'BUTTON': <class 'gluon.html.BUTTON'>, 'CAT': <class 'gluon.html.CAT'>, 'CENTER': <class 'gluon.html.CENTER'>, 'CLEANUP': <class 'gluon.validators.CLEANUP'>, ...}"
p67
sS'ccode'
p68
S'<code object <module> at 0xaea32890, file "/home.../projectlibrary/controllers/default.py", line 13>'
p69
ssS'lnum'
p70
I212
sS'lines'
p71
(dp72
I207
S'    try:'
p73
sI208
S'        if isinstance(code, types.CodeType):'
p74
sI209
S'            ccode = code'
p75
sI210
S'        else:'
p76
sI211
S'            ccode = compile2(code, layer)'
p77
sI212
S'        exec ccode in environment'
p78
sI213
S'    except HTTP:'
p79
sI214
S'        raise'
p80
sI215
S'    except RestrictedError:'
p81
sI216
S'        # do not encapsulate (obfuscate) the original RestrictedError'
p82
ssS'call'
p83
S'(code=\'# -*- coding: utf-8 -*-\\n# this file is released ...=form)\\n"""\\n\\nresponse._vars=response._caller(sub)\\n\', environment={\'A\': <class \'gluon.html.A\'>, \'Auth\': <class \'gluon.tools.Auth\'>, \'B\': <class \'gluon.html.B\'>, \'BEAUTIFY\': <class \'gluon.html.BEAUTIFY\'>, \'BODY\': <class \'gluon.html.BODY\'>, \'BR\': <class \'gluon.html.BR\'>, \'BUTTON\': <class \'gluon.html.BUTTON\'>, \'CAT\': <class \'gluon.html.CAT\'>, \'CENTER\': <class \'gluon.html.CENTER\'>, \'CLEANUP\': <class \'gluon.validators.CLEANUP\'>, ...}, layer=\'/home/kira/web2py/applications/projectlibrary/controllers/default.py\')'
p84
sS'func'
p85
S'restricted'
p86
sa(dp87
g62
S'/home/kira/web2py/applications/projectlibrary/controllers/default.py'
p88
sg64
(dp89
sg70
I495
sg71
(dp90
I484
S'\t\trow=db(db.register.Username==request.vars.user).select()'
p91
sI485
S"\t\tif request.vars.password==row[0]['Password']:"
p92
sI486
S"\t\t\tredirect(URL('upload'))"
p93
sI487
S'\t\telse:'
p94
sI488
S"\t\t\tresponse.flash='Invalid username or password'"
p95
sI489
S'\telse:'
p96
sI490
S"\t \tresponse.flash='Error'"
p97
sI491
S''
sI492
S'\treturn dict(form=form)'
p98
sI493
S'"""'
p99
ssg83
S'()'
p100
sg85
S'<module>'
p101
sa(dp102
g62
S'/home/kira/web2py/gluon/globals.py'
p103
sg64
(dp104
S'self'
p105
S'undefined'
p106
sS'f'
S'<function sub>'
p107
ssg70
I193
sg71
(dp108
I192
S'        self._vars = None'
p109
sI193
S'        self._caller = lambda f: f()'
p110
sI194
S'        self._view_environment = None'
p111
sI195
S'        self._custom_commit = None'
p112
sI196
S'        self._custom_rollback = None'
p113
sI197
S''
sI188
S'        self.menu = []             # used by the default view layout'
p114
sI189
S'        self.files = []            # used by web2py_ajax.html'
p115
sI190
S'        self.generic_patterns = []  # patterns to allow generic views'
p116
sI191
S"        self.delimiters = ('{{', '}}')"
p117
ssg83
S'(f=<function sub>)'
p118
sg85
S'<lambda>'
p119
sa(dp120
g62
S'/home/kira/web2py/gluon/tools.py'
p121
sg64
(dp122
S'action'
p123
S'<function sub>'
p124
sS'a'
S'()'
p125
sS'b'
g45
ssg70
I2942
sg71
(dp126
I2944
S'            f.__name__ = action.__name__'
p127
sI2945
S'            f.__dict__.update(action.__dict__)'
p128
sI2946
S'            return f'
p129
sI2937
S'                    flag = condition'
p130
sI2938
S'                if not flag:'
p131
sI2939
S'                    current.session.flash = self.messages.access_denied'
p132
sI2940
S'                    return call_or_redirect('
p133
sI2941
S'                        self.settings.on_failed_authorization)'
p134
sI2942
S'                return action(*a, **b)'
p135
sI2943
S'            f.__doc__ = action.__doc__'
p136
ssg83
S'(*a=(), **b={})'
p137
sg85
S'f'
sa(dp138
g62
S'/home/kira/web2py/applications/projectlibrary/controllers/default.py'
p139
sg64
(dp140
S'auth.user.id'
p141
S'2'
sS'db.subscribe'
p142
S'<Table subscribe (id,cur_user,sub_user,is_sub)>'
p143
sS').select'
p144
g106
sS'global auth'
p145
S'<gluon.tools.Auth object>'
p146
sS'sad'
p147
g106
sS'auth.user'
p148
S"<Row {'profile_pic': 'auth_user.profile_pic.b4e8...oad_count': 14, 'registration_key': '', 'id': 2}>"
p149
sS'user'
p150
S"<Row {'first_name': 'readable', 'last_name': 'no... 'registration_key': '', 'email': 'r@gmail.com'}>"
p151
sS'global db'
p152
S'<DAL uri="sqlite://storage.sqlite">'
p153
sS'user.id'
p154
S'5'
sS'db.subscribe.sub_user'
p155
S'<gluon.dal.Field object>'
p156
sS'db.subscribe.cur_user'
p157
S'<gluon.dal.Field object>'
p158
ssg70
I109
sg71
(dp159
I104
S''
sI105
S'@auth.requires_login()'
p160
sI106
S'def sub():'
p161
sI107
S"\tuser=db.auth_user(request.args(0,cast=int)) or redirect(URL('index'))"
p162
sI108
S'\tif auth.user.email!=user.id:'
p163
sI109
S'\t\tsad=db(db.subscribe.cur_user==auth.user.id & db.subscribe.sub_user==user.id).select()'
p164
sI110
S'\t\tif sad[0].is_sub==0:'
p165
sI111
S'\t\t\ts="You are now subscribed to  "+str(user.email)'
p166
sI112
S'\t\t\tsession.flash=s'
p167
sI113
S'\t\t\tdb.subscribe.insert(cur_user=auth.user.id,sub_user=user.id,is_sub=1)'
p168
ssg83
S'()'
p169
sg85
S'sub'
p170
sasS'pyver'
p171
S'Python 2.7.3: /usr/bin/python (prefix: /usr)'
p172
sS'session'
p173
g57
(S'sm\x0b\x00\x00<div><table><tr><td style="font-weight:bold;vertical-align:top">auth</td><td valign="top">:</td><td><div><table><tr><td style="font-weight:bold;vertical-align:top">expiration</td><td valign="top">:</td><td><div>3600</div></td></tr><tr><td style="font-weight:bold;vertical-align:top">hmac_key</td><td valign="top">:</td><td><div>a71a730e-e120-40a6-b6ec-d7d9ab94d829</div></td></tr><tr><td style="font-weight:bold;vertical-align:top">last_visit</td><td valign="top">:</td><td><div>datetime.datetime(2013, 4, 16, 2, 55, 10, 38800)</div></td></tr><tr><td style="font-weight:bold;vertical-align:top">remember</td><td valign="top">:</td><td><div>False</div></td></tr><tr><td style="font-weight:bold;vertical-align:top">user</td><td valign="top">:</td><td><div><table><tr><td style="font-weight:bold;vertical-align:top">country</td><td valign="top">:</td><td><div>india</div></td></tr><tr><td style="font-weight:bold;vertical-align:top">email</td><td valign="top">:</td><td><div>shikher@gmail.com</div></td></tr><tr><td style="font-weight:bold;vertical-align:top">first_name</td><td valign="top">:</td><td><div>kira</div></td></tr><tr><td style="font-weight:bold;vertical-align:top">id</td><td valign="top">:</td><td><div>2</div></td></tr><tr><td style="font-weight:bold;vertical-align:top">last_name</td><td valign="top">:</td><td><div>somal</div></td></tr><tr><td style="font-weight:bold;vertical-align:top">profile_pic</td><td valign="top">:</td><td><div>auth_user.profile_pic.b4e81f5ceb789411.494d475f303734332e6a7067.jpg</div></td></tr><tr><td style="font-weight:bold;vertical-align:top">registration_date</td><td valign="top">:</td><td><div>None</div></td></tr><tr><td style="font-weight:bold;vertical-align:top">registration_id</td><td valign="top">:</td><td><div></div></td></tr><tr><td style="font-weight:bold;vertical-align:top">registration_key</td><td valign="top">:</td><td><div></div></td></tr><tr><td style="font-weight:bold;vertical-align:top">reset_password_key</td><td valign="top">:</td><td><div></div></td></tr><tr><td style="font-weight:bold;vertical-align:top">upload_count</td><td valign="top">:</td><td><div>14</div></td></tr></table></div></td></tr><tr><td style="font-weight:bold;vertical-align:top">user_groups</td><td valign="top">:</td><td><div><table><tr><td style="font-weight:bold;vertical-align:top">1</td><td valign="top">:</td><td><div>user_2</div></td></tr><tr><td style="font-weight:bold;vertical-align:top">4</td><td valign="top">:</td><td><div>user_2</div></td></tr></table></div></td></tr></table></div></td></tr><tr><td style="font-weight:bold;vertical-align:top">flash</td><td valign="top">:</td><td><div>None</div></td></tr><tr><td style="font-weight:bold;vertical-align:top">last_orderby</td><td valign="top">:</td><td><div>None</div></td></tr><tr><td style="font-weight:bold;vertical-align:top">last_query</td><td valign="top">:</td><td><div>db.flak.id&gt;0</div></td></tr></table></div>'
tRp174
sS'etype'
p175
S"<type 'exceptions.TypeError'>"
p176
sS'date'
p177
S'Tue Apr 16 02:59:52 2013'
p178
sS'response'
p179
g57
(S'sW!\x00\x00<div><table><tr><td style="font-weight:bold;vertical-align:top">body</td><td valign="top">:</td><td><div>&lt;cStringIO.StringO object at 0xaf231c00&gt;</div></td></tr><tr><td style="font-weight:bold;vertical-align:top">cookies</td><td valign="top">:</td><td><div><table><tr><td style="font-weight:bold;vertical-align:top">session_id_projectlibrary</td><td valign="top">:</td><td><div>127.0.0.1-56113726-7230-4374-932b-1ff6712ba586<table><tr><td style="font-weight:bold;vertical-align:top">comment</td><td valign="top">:</td><td><div></div></td></tr><tr><td style="font-weight:bold;vertical-align:top">domain</td><td valign="top">:</td><td><div></div></td></tr><tr><td style="font-weight:bold;vertical-align:top">expires</td><td valign="top">:</td><td><div></div></td></tr><tr><td style="font-weight:bold;vertical-align:top">httponly</td><td valign="top">:</td><td><div></div></td></tr><tr><td style="font-weight:bold;vertical-align:top">max-age</td><td valign="top">:</td><td><div></div></td></tr><tr><td style="font-weight:bold;vertical-align:top">path</td><td valign="top">:</td><td><div>/</div></td></tr><tr><td style="font-weight:bold;vertical-align:top">secure</td><td valign="top">:</td><td><div></div></td></tr><tr><td style="font-weight:bold;vertical-align:top">version</td><td valign="top">:</td><td><div></div></td></tr></table></div></td></tr></table></div></td></tr><tr><td style="font-weight:bold;vertical-align:top">delimiters</td><td valign="top">:</td><td><div><table><tr><td><div>{{</div></td></tr><tr><td><div>}}</div></td></tr></table></div></td></tr><tr><td style="font-weight:bold;vertical-align:top">files</td><td valign="top">:</td><td><div><table></table></div></td></tr><tr><td style="font-weight:bold;vertical-align:top">flash</td><td valign="top">:</td><td><div></div></td></tr><tr><td style="font-weight:bold;vertical-align:top">generic_patterns</td><td valign="top">:</td><td><div><table><tr><td><div>*</div></td></tr></table></div></td></tr><tr><td style="font-weight:bold;vertical-align:top">google_analytics_id</td><td valign="top">:</td><td><div>None</div></td></tr><tr><td style="font-weight:bold;vertical-align:top">headers</td><td valign="top">:</td><td><div><table><tr><td style="font-weight:bold;vertical-align:top">X-Powered-By</td><td valign="top">:</td><td><div>web2py</div></td></tr></table></div></td></tr><tr><td style="font-weight:bold;vertical-align:top">logo</td><td valign="top">:</td><td><div><a class="brand" href="http://www.web2py.com/"><b>web<span>2</span>py</b>&trade;&nbsp;</a></div></td></tr><tr><td style="font-weight:bold;vertical-align:top">menu</td><td valign="top">:</td><td><div><table><tr><td><div><table><tr><td><div>Home</div></td></tr><tr><td><div>False</div></td></tr><tr><td><div>/projectlibrary/default/index</div></td></tr><tr><td><div><table></table></div></td></tr></table></div></td></tr><tr><td><div><table><tr><td><div>Upload</div></td></tr><tr><td><div>False</div></td></tr><tr><td><div>/projectlibrary/default/uploadpage</div></td></tr><tr><td><div><table></table></div></td></tr></table></div></td></tr><tr><td><div><table><tr><td><div>Browse</div></td></tr><tr><td><div>False</div></td></tr><tr><td><div>/projectlibrary/default/browse</div></td></tr><tr><td><div><table><tr><td><div><table><tr><td><div>A-Z</div></td></tr><tr><td><div>False</div></td></tr><tr><td><div>/projectlibrary/default/az</div></td></tr></table></div></td></tr><tr><td><div><table><tr><td><div>Z-A</div></td></tr><tr><td><div>False</div></td></tr><tr><td><div>/projectlibrary/default/za</div></td></tr></table></div></td></tr><tr><td><div><table><tr><td><div>By Comments</div></td></tr><tr><td><div>False</div></td></tr><tr><td><div>/projectlibrary/default/bycomments</div></td></tr><tr><td><div>[(&lt;lazyT &#x27;Most commented&#x27;&gt;, False, &#x27;/projectlibrary/default/most_commented&#x27;)]</div></td></tr></table></div></td></tr><tr><td><div><table><tr><td><div>By Rating</div></td></tr><tr><td><div>False</div></td></tr><tr><td><div>/projectlibrary/default/byrating</div></td></tr></table></div></td></tr><tr><td><div><table><tr><td><div>By Category</div></td></tr><tr><td><div>False</div></td></tr><tr><td><div>/projectlibrary/default/category</div></td></tr></table></div></td></tr><tr><td><div><table><tr><td><div>By Downloads</div></td></tr><tr><td><div>False</div></td></tr><tr><td><div>/projectlibrary/default/bydownloads</div></td></tr><tr><td><div>[(&lt;lazyT &#x27;Most Downloaded&#x27;&gt;, False, &#x27;/projectlibrary/default/mostdownload&#x27;)]</div></td></tr></table></div></td></tr><tr><td><div><table><tr><td><div>By Uploads</div></td></tr><tr><td><div>False</div></td></tr><tr><td><div>/projectlibrary/default/byuploads</div></td></tr><tr><td><div>[(&lt;lazyT &#x27;Most Uploads&#x27;&gt;, False, &#x27;/projectlibrary/default/most_uploaded&#x27;)]</div></td></tr></table></div></td></tr><tr><td><div><table><tr><td><div>Most Recent</div></td></tr><tr><td><div>False</div></td></tr><tr><td><div>/projectlibrary/default/most_recent</div></td></tr></table></div></td></tr></table></div></td></tr></table></div></td></tr><tr><td><div><table><tr><td><div>Most Downloaded</div></td></tr><tr><td><div>False</div></td></tr><tr><td><div>/projectlibrary/default/mostdownload</div></td></tr></table></div></td></tr><tr><td><div><table><tr><td><div>Most Uploads</div></td></tr><tr><td><div>False</div></td></tr><tr><td><div>/projectlibrary/default/most_uploaded</div></td></tr></table></div></td></tr></table></div></td></tr><tr><td style="font-weight:bold;vertical-align:top">meta</td><td valign="top">:</td><td><div><table><tr><td style="font-weight:bold;vertical-align:top">author</td><td valign="top">:</td><td><div>Your Name &lt;you@example.com&gt;</div></td></tr><tr><td style="font-weight:bold;vertical-align:top">description</td><td valign="top">:</td><td><div>a cool new app</div></td></tr><tr><td style="font-weight:bold;vertical-align:top">generator</td><td valign="top">:</td><td><div>Web2py Web Framework</div></td></tr><tr><td style="font-weight:bold;vertical-align:top">keywords</td><td valign="top">:</td><td><div>web2py, python, framework</div></td></tr></table></div></td></tr><tr><td style="font-weight:bold;vertical-align:top">models_to_run</td><td valign="top">:</td><td><div><table><tr><td><div>^\\w+\\.py$</div></td></tr><tr><td><div>^default/\\w+\\.py$</div></td></tr><tr><td><div>^default/sub/\\w+\\.py$</div></td></tr></table></div></td></tr><tr><td style="font-weight:bold;vertical-align:top">postprocessing</td><td valign="top">:</td><td><div><table></table></div></td></tr><tr><td style="font-weight:bold;vertical-align:top">session_cookie_expires</td><td valign="top">:</td><td><div>None</div></td></tr><tr><td style="font-weight:bold;vertical-align:top">session_data_name</td><td valign="top">:</td><td><div>session_data_projectlibrary</div></td></tr><tr><td style="font-weight:bold;vertical-align:top">session_file</td><td valign="top">:</td><td><div>&lt;open file &#x27;/home/kira/web2py/applications/projectlibrary/sessions/127.0.0.1-56113726-7230-4374-932b-1ff6712ba586&#x27;, mode &#x27;rb+&#x27; at 0xaf4ea548&gt;</div></td></tr><tr><td style="font-weight:bold;vertical-align:top">session_filename</td><td valign="top">:</td><td><div>/home/kira/web2py/applications/projectlibrary/sessions/127.0.0.1-56113726-7230-4374-932b-1ff6712ba586</div></td></tr><tr><td style="font-weight:bold;vertical-align:top">session_id</td><td valign="top">:</td><td><div>127.0.0.1-56113726-7230-4374-932b-1ff6712ba586</div></td></tr><tr><td style="font-weight:bold;vertical-align:top">session_id_name</td><td valign="top">:</td><td><div>session_id_projectlibrary</div></td></tr><tr><td style="font-weight:bold;vertical-align:top">session_locked</td><td valign="top">:</td><td><div>True</div></td></tr><tr><td style="font-weight:bold;vertical-align:top">session_new</td><td valign="top">:</td><td><div>False</div></td></tr><tr><td style="font-weight:bold;vertical-align:top">session_storage_type</td><td valign="top">:</td><td><div>file</div></td></tr><tr><td style="font-weight:bold;vertical-align:top">status</td><td valign="top">:</td><td><div>200</div></td></tr><tr><td style="font-weight:bold;vertical-align:top">subtitle</td><td valign="top">:</td><td><div>customize me!</div></td></tr><tr><td style="font-weight:bold;vertical-align:top">title</td><td valign="top">:</td><td><div>Projectlibrary</div></td></tr><tr><td style="font-weight:bold;vertical-align:top">view</td><td valign="top">:</td><td><div>default/sub.html</div></td></tr></table></div>'
tRp180
sS'locals'
p181
(dp182
S'user'
p183
S"<Row {'first_name': 'readable', 'last_name': 'no... 'registration_key': '', 'email': 'r@gmail.com'}>"
p184
sssS'traceback'
p185
S'Traceback (most recent call last):\n  File "/home/kira/web2py/gluon/restricted.py", line 212, in restricted\n    exec ccode in environment\n  File "/home/kira/web2py/applications/projectlibrary/controllers/default.py", line 495, in <module>\n  File "/home/kira/web2py/gluon/globals.py", line 193, in <lambda>\n    self._caller = lambda f: f()\n  File "/home/kira/web2py/gluon/tools.py", line 2942, in f\n    return action(*a, **b)\n  File "/home/kira/web2py/applications/projectlibrary/controllers/default.py", line 109, in sub\n    sad=db(db.subscribe.cur_user==auth.user.id & db.subscribe.sub_user==user.id).select()\nTypeError: unsupported operand type(s) for &: \'int\' and \'Field\'\n'
p186
s.