(dp1
S'output'
p2
S"<type 'exceptions.TypeError'> 'bool' object is not callable"
p3
sS'layer'
p4
S'/home/kira/web2py/applications/projectlibrary/controllers/default.py'
p5
sS'code'
p6
S'# -*- coding: utf-8 -*-\n# this file is released under public domain and you can use without limitations\n\n#########################################################################\n## This is a samples controller\n## - index is the default action of any application\n## - user is required for authentication and authorization\n## - download is for downloading files uploaded in the db (does streaming)\n## - call exposes all registered services (none by default)\n#########################################################################\n\n\ndef index():\n    """\n    example action using the internationalization operator T and flash\n    rendered by views/default/index.html or views/generic.html\n\n    if you need a simple wiki simple replace the two lines below with:\n    return auth.wiki()\n    """\n    response.flash = T("Welcome to web2py!")\n    return dict(message=T(\'Hello World\'))\n\n\ndef user():\n    """\n    exposes:\n    http://..../[app]/default/user/login\n    http://..../[app]/default/user/logout\n    http://..../[app]/default/user/register\n    http://..../[app]/default/user/profile\n    http://..../[app]/default/user/retrieve_password\n    http://..../[app]/default/user/change_password\n    use @auth.requires_login()\n        @auth.requires_membership(\'group name\')\n        @auth.requires_permission(\'read\',\'table name\',record_id)\n    to decorate functions that need access control\n    """\n    return dict(form=auth())\n\n\ndef download():\n    """\n    allows downloading of uploaded files\n    http://..../[app]/default/download/[filename]\n    """\n    return response.download(request, db)\n\n\ndef call():\n    """\n    exposes services. for example:\n    http://..../[app]/default/call/jsonrpc\n    decorate with @services.jsonrpc the functions to expose\n    supports xml, json, xmlrpc, jsonrpc, amfrpc, rss, csv\n    """\n    return service()\n\n\n@auth.requires_signature()\ndef data():\n    """\n    http://..../[app]/default/data/tables\n    http://..../[app]/default/data/create/[table]\n    http://..../[app]/default/data/read/[table]/[id]\n    http://..../[app]/default/data/update/[table]/[id]\n    http://..../[app]/default/data/delete/[table]/[id]\n    http://..../[app]/default/data/select/[table]\n    http://..../[app]/default/data/search/[table]\n    but URLs must be signed, i.e. linked with\n      A(\'table\',_href=URL(\'data/tables\',user_signature=True))\n    or with the signed load operator\n      LOAD(\'default\',\'data.load\',args=\'tables\',ajax=True,user_signature=True)\n    """\n    return dict(form=crud())\n\ndef register():\n\ta=crud.create(db.register)\n\treturn dict(a=a)\n\ndef upload():\n\tform=crud.create(db.project)\n\tif form.process().accepted:\n\t\trow=db(db.register.Username==request.vars.Project_Admin).select()\n\t\tif request.vars.Password==row[0][\'Password\']:\n\t\t\tresponse.flash=\'Form accepted\'\n\t\telse:\n\t\t\tresponse.flash=\'Invalid username or password\'\n\telse:\n\t \tresponse.flash=\'Error\'\n\n\treturn dict(form=form)\n\ndef mainpage():\n\treturn dict()\n\n#def a():\n#\tsongs=db(db.Song.Singer==3).select(db.Song.Name)\n#\treturn dict(songs=songs)\n#import datetime\n#def b():\n#\trecord=db((db.Artist.job==\'Singer\') & (db.Artist.Name==\'Balu\') & (db.Artist.id==db.Song.Singer) ).select(db.Song.Name)\n#\treturn dict(record=record)\n#def c():\n#\trecord=db((db.Artist.Name==\'Balu\') & (db.Artist.job==\'Singer\')& (db.Artist.id==db.Song.Singer) & (db.Song.Movie==db.Movie.id) & (db.Movie.Name==\'Shankarabharanam\')).select(db.Song.Name)\n#\treturn dict(record=record)\n#def d():\n#\trecord=db((db.Artist.Name==\'Balu\') & (db.Artist.job==\'Singer\')& (db.Artist.id==db.Song.Singer) & (db.Song.Movie==db.Movie.id) & (db.Movie.Movie_release<datetime.date(2000,1,1))).select((db.Song.Name),(db.Song.Actor_singing))\n#\tx=[]\n#\tfor i in range(len(record)):\n#\t\tr=db(db.Artist.id==record[i][\'Actor_singing\']).select(db.Artist.Name)\n#\t\tx.append(r[0][\'Name\'])\n#\t\n#\treturn locals()\n#def e():\n#\trecord=db((db.Rating.Rating>=4) & (db.Rating.Song==db.Song.id) & (db.Song.Singer==db.Artist.id) & (db.Artist.job==\'Singer\')).select(db.Song.Name,db.Artist.Name)\n#\treturn dict(record=record)\n#def f_input():\n#\tform=SQLFORM.factory(\n#\tdb.Field(\'idno\',db.Artist,requires=IS_IN_DB(db,\'Artist.id\',\'Artist.id\'),label=\'Select id\'))\n#\tif form.accepts(request.vars,session):\n#\t\tredirect(URL(r=request,f=\'show_f/%s\' %request.post_vars[\'idno\']))\n#\telif form.errors:\n#\t        response.flash(\'There is error in the form\')\n#\treturn dict(form=form)\n#def show_f():\n#\tArtist=(request.args(0,cast=int))\n#\trecord=db(db.Artist.id==Artist).select(db.Artist.job)\n#\tfor i in record:\n#\t\tif i[\'job\']==\'Actor\':\n#\t\t\tans=db(db.Movie.Hero==Artist).select(db.Movie.Name)\n#\t\telif i[\'job\']==\'Singer\':\n#\t\t\tans=db(db.Song.Singer==Artist).select(db.Song.Name)\n#\t\telif i[\'Job\']==\'Director\':\n#\t\t\tans=db(db.Movie.Director==Artist).select(db.Movie.Name)\n#\t\treturn dict(i=i,ans=ans)\n\nresponse._vars=response._caller(upload)\n'
p7
sS'snapshot'
p8
(dp9
S'exception'
p10
(dp11
S'__hash__'
p12
S"<method-wrapper '__hash__' of exceptions.TypeError object>"
p13
sS'__setattr__'
p14
S"<method-wrapper '__setattr__' of exceptions.TypeError object>"
p15
sS'__reduce_ex__'
p16
S'<built-in method __reduce_ex__ of exceptions.TypeError object>'
p17
sS'__getslice__'
p18
S"<method-wrapper '__getslice__' of exceptions.TypeError object>"
p19
sS'__getitem__'
p20
S"<method-wrapper '__getitem__' of exceptions.TypeError object>"
p21
sS'__setstate__'
p22
S'<built-in method __setstate__ of exceptions.TypeError object>'
p23
sS'__reduce__'
p24
S'<built-in method __reduce__ of exceptions.TypeError object>'
p25
sS'__str__'
p26
S"<method-wrapper '__str__' of exceptions.TypeError object>"
p27
sS'__format__'
p28
S'<built-in method __format__ of exceptions.TypeError object>'
p29
sS'__getattribute__'
p30
S"<method-wrapper '__getattribute__' of exceptions.TypeError object>"
p31
sS'__class__'
p32
S"<type 'exceptions.TypeError'>"
p33
sS'__unicode__'
p34
S'<built-in method __unicode__ of exceptions.TypeError object>'
p35
sS'__delattr__'
p36
S"<method-wrapper '__delattr__' of exceptions.TypeError object>"
p37
sS'__subclasshook__'
p38
S'<built-in method __subclasshook__ of type object>'
p39
sS'__repr__'
p40
S"<method-wrapper '__repr__' of exceptions.TypeError object>"
p41
sS'args'
p42
S'("\'bool\' object is not callable",)'
p43
sS'__dict__'
p44
S'{}'
p45
sS'__sizeof__'
p46
S'<built-in method __sizeof__ of exceptions.TypeError object>'
p47
sS'__doc__'
p48
S"'Inappropriate argument type.'"
p49
sS'__init__'
p50
S"<method-wrapper '__init__' of exceptions.TypeError object>"
p51
sS'__new__'
p52
S'<built-in method __new__ of type object>'
p53
ssS'evalue'
p54
S"'bool' object is not callable"
p55
sS'request'
p56
cgluon.html
XML_unpickle
p57
(S's"]\x00\x00<div><table><tr><td style="font-weight:bold;vertical-align:top">ajax</td><td valign="top">:</td><td><div>False</div></td></tr><tr><td style="font-weight:bold;vertical-align:top">application</td><td valign="top">:</td><td><div>projectlibrary</div></td></tr><tr><td style="font-weight:bold;vertical-align:top">args</td><td valign="top">:</td><td><div><table></table></div></td></tr><tr><td style="font-weight:bold;vertical-align:top">body</td><td valign="top">:</td><td><div>&lt;open file &#x27;&lt;fdopen&gt;&#x27;, mode &#x27;w+b&#x27; at 0xaf47cc80&gt;</div></td></tr><tr><td style="font-weight:bold;vertical-align:top">cid</td><td valign="top">:</td><td><div>None</div></td></tr><tr><td style="font-weight:bold;vertical-align:top">client</td><td valign="top">:</td><td><div>127.0.0.1</div></td></tr><tr><td style="font-weight:bold;vertical-align:top">controller</td><td valign="top">:</td><td><div>default</div></td></tr><tr><td style="font-weight:bold;vertical-align:top">cookies</td><td valign="top">:</td><td><div><table><tr><td style="font-weight:bold;vertical-align:top">session_id_admin</td><td valign="top">:</td><td><div>127.0.0.1-0953c632-b691-4c4d-8993-7f0e604b3980<table><tr><td style="font-weight:bold;vertical-align:top">comment</td><td valign="top">:</td><td><div></div></td></tr><tr><td style="font-weight:bold;vertical-align:top">domain</td><td valign="top">:</td><td><div></div></td></tr><tr><td style="font-weight:bold;vertical-align:top">expires</td><td valign="top">:</td><td><div></div></td></tr><tr><td style="font-weight:bold;vertical-align:top">httponly</td><td valign="top">:</td><td><div></div></td></tr><tr><td style="font-weight:bold;vertical-align:top">max-age</td><td valign="top">:</td><td><div></div></td></tr><tr><td style="font-weight:bold;vertical-align:top">path</td><td valign="top">:</td><td><div></div></td></tr><tr><td style="font-weight:bold;vertical-align:top">secure</td><td valign="top">:</td><td><div></div></td></tr><tr><td style="font-weight:bold;vertical-align:top">version</td><td valign="top">:</td><td><div></div></td></tr></table></div></td></tr><tr><td style="font-weight:bold;vertical-align:top">session_id_projectlibrary</td><td valign="top">:</td><td><div>127.0.0.1-9e5f880a-7948-4501-b923-9ae2a9c43c63<table><tr><td style="font-weight:bold;vertical-align:top">comment</td><td valign="top">:</td><td><div></div></td></tr><tr><td style="font-weight:bold;vertical-align:top">domain</td><td valign="top">:</td><td><div></div></td></tr><tr><td style="font-weight:bold;vertical-align:top">expires</td><td valign="top">:</td><td><div></div></td></tr><tr><td style="font-weight:bold;vertical-align:top">httponly</td><td valign="top">:</td><td><div></div></td></tr><tr><td style="font-weight:bold;vertical-align:top">max-age</td><td valign="top">:</td><td><div></div></td></tr><tr><td style="font-weight:bold;vertical-align:top">path</td><td valign="top">:</td><td><div></div></td></tr><tr><td style="font-weight:bold;vertical-align:top">secure</td><td valign="top">:</td><td><div></div></td></tr><tr><td style="font-weight:bold;vertical-align:top">version</td><td valign="top">:</td><td><div></div></td></tr></table></div></td></tr><tr><td style="font-weight:bold;vertical-align:top">session_id_welcome</td><td valign="top">:</td><td><div>127.0.0.1-8e4e3dd7-e664-42fa-9b08-a00489c82f5a<table><tr><td style="font-weight:bold;vertical-align:top">comment</td><td valign="top">:</td><td><div></div></td></tr><tr><td style="font-weight:bold;vertical-align:top">domain</td><td valign="top">:</td><td><div></div></td></tr><tr><td style="font-weight:bold;vertical-align:top">expires</td><td valign="top">:</td><td><div></div></td></tr><tr><td style="font-weight:bold;vertical-align:top">httponly</td><td valign="top">:</td><td><div></div></td></tr><tr><td style="font-weight:bold;vertical-align:top">max-age</td><td valign="top">:</td><td><div></div></td></tr><tr><td style="font-weight:bold;vertical-align:top">path</td><td valign="top">:</td><td><div></div></td></tr><tr><td style="font-weight:bold;vertical-align:top">secure</td><td valign="top">:</td><td><div></div></td></tr><tr><td style="font-weight:bold;vertical-align:top">version</td><td valign="top">:</td><td><div></div></td></tr></table></div></td></tr></table></div></td></tr><tr><td style="font-weight:bold;vertical-align:top">env</td><td valign="top">:</td><td><div><table><tr><td style="font-weight:bold;vertical-align:top">app_folders</td><td valign="top">:</td><td><div>set([&#x27;/home/kira/web2py/applications/admin/&#x27;, &#x27;/home/kira/web2py/applications/welcome/&#x27;, &#x27;/home/kira/web2py/applications/projectlibrary/&#x27;])</div></td></tr><tr><td style="font-weight:bold;vertical-align:top">applications_parent</td><td valign="top">:</td><td><div>/home/kira/web2py</div></td></tr><tr><td style="font-weight:bold;vertical-align:top">cmd_args</td><td valign="top">:</td><td><div><table></table></div></td></tr><tr><td style="font-weight:bold;vertical-align:top">cmd_options</td><td valign="top">:</td><td><div>&lt;Values at 0xa9cbc8c: {&#x27;verbose&#x27;: False, &#x27;ip&#x27;: &#x27;127.0.0.1&#x27;, &#x27;with_scheduler&#x27;: False, &#x27;ips&#x27;: [], &#x27;shutdown_timeout&#x27;: 5, &#x27;taskbar&#x27;: False, &#x27;port&#x27;: 8000, &#x27;maxthreads&#x27;: None, &#x27;softcron&#x27;: False, &#x27;server_name&#x27;: &#x27;kira-Ideapad-Z570&#x27;, &#x27;bpython&#x27;: False, &#x27;nogui&#x27;: False, &#x27;pid_filename&#x27;: &#x27;httpserver.pid&#x27;, &#x27;extcron&#x27;: False, &#x27;runcron&#x27;: False, &#x27;run_system_tests&#x27;: False, &#x27;test&#x27;: None, &#x27;folder&#x27;: &#x27;/home/kira/web2py&#x27;, &#x27;config&#x27;: &#x27;&#x27;, &#x27;import_models&#x27;: False, &#x27;winservice&#x27;: &#x27;&#x27;, &#x27;shell&#x27;: None, &#x27;run&#x27;: &#x27;&#x27;, &#x27;log_filename&#x27;: &#x27;httpserver.log&#x27;, &#x27;debuglevel&#x27;: 30, &#x27;args&#x27;: [&#x27;&#x27;], &#x27;socket_timeout&#x27;: 5, &#x27;ssl_ca_certificate&#x27;: None, &#x27;scheduler&#x27;: None, &#x27;profiler_filename&#x27;: None, &#x27;ssl_private_key&#x27;: &#x27;&#x27;, &#x27;scheduler_groups&#x27;: None, &#x27;password&#x27;: &#x27;project&#x27;, &#x27;request_queue_size&#x27;: 5, &#x27;ssl_certificate&#x27;: &#x27;&#x27;, &#x27;cronjob&#x27;: False, &#x27;numthreads&#x27;: None, &#x27;quiet&#x27;: False, &#x27;interfaces&#x27;: None, &#x27;minthreads&#x27;: None, &#x27;timeout&#x27;: 10, &#x27;plain&#x27;: False, &#x27;nobanner&#x27;: False}&gt;</div></td></tr><tr><td style="font-weight:bold;vertical-align:top">content_length</td><td valign="top">:</td><td><div>807</div></td></tr><tr><td style="font-weight:bold;vertical-align:top">content_type</td><td valign="top">:</td><td><div>multipart/form-data; boundary=---------------------------2279693682381654771160849468</div></td></tr><tr><td style="font-weight:bold;vertical-align:top">db_sessions</td><td valign="top">:</td><td><div>set([])</div></td></tr><tr><td style="font-weight:bold;vertical-align:top">debugging</td><td valign="top">:</td><td><div>False</div></td></tr><tr><td style="font-weight:bold;vertical-align:top">gluon_parent</td><td valign="top">:</td><td><div>/home/kira/web2py</div></td></tr><tr><td style="font-weight:bold;vertical-align:top">http_accept</td><td valign="top">:</td><td><div>text/html,application/xhtml+xml,application/xml;q=0.9,*/*;q=0.8</div></td></tr><tr><td style="font-weight:bold;vertical-align:top">http_accept_encoding</td><td valign="top">:</td><td><div>gzip, deflate</div></td></tr><tr><td style="font-weight:bold;vertical-align:top">http_accept_language</td><td valign="top">:</td><td><div>en-us,en;q=0.5</div></td></tr><tr><td style="font-weight:bold;vertical-align:top">http_connection</td><td valign="top">:</td><td><div>keep-alive</div></td></tr><tr><td style="font-weight:bold;vertical-align:top">http_content_length</td><td valign="top">:</td><td><div>807</div></td></tr><tr><td style="font-weight:bold;vertical-align:top">http_content_type</td><td valign="top">:</td><td><div>multipart/form-data; boundary=---------------------------2279693682381654771160849468</div></td></tr><tr><td style="font-weight:bold;vertical-align:top">http_cookie</td><td valign="top">:</td><td><div>session_id_welcome=127.0.0.1-8e4e3dd7-e664-42fa-9b08-a00489c82f5a; session_id_admin=127.0.0.1-0953c632-b691-4c4d-8993-7f0e604b3980; session_id_projectlibrary=127.0.0.1-9e5f880a-7948-4501-b923-9ae2a9c43c63</div></td></tr><tr><td style="font-weight:bold;vertical-align:top">http_host</td><td valign="top">:</td><td><div>127.0.0.1:8000</div></td></tr><tr><td style="font-weight:bold;vertical-align:top">http_referer</td><td valign="top">:</td><td><div>http://127.0.0.1:8000/projectlibrary/default/upload.html</div></td></tr><tr><td style="font-weight:bold;vertical-align:top">http_user_agent</td><td valign="top">:</td><td><div>Mozilla/5.0 (X11; Ubuntu; Linux i686; rv:11.0) Gecko/20100101 Firefox/11.0</div></td></tr><tr><td style="font-weight:bold;vertical-align:top">is_jython</td><td valign="top">:</td><td><div>False</div></td></tr><tr><td style="font-weight:bold;vertical-align:top">is_pypy</td><td valign="top">:</td><td><div>False</div></td></tr><tr><td style="font-weight:bold;vertical-align:top">local_hosts</td><td valign="top">:</td><td><div><table><tr><td><div>kira-Ideapad-Z570</div></td></tr><tr><td><div>::1</div></td></tr><tr><td><div>127.0.1.1</div></td></tr><tr><td><div>::ffff:127.0.0.1</div></td></tr><tr><td><div>127.0.0.1</div></td></tr></table></div></td></tr><tr><td style="font-weight:bold;vertical-align:top">path_info</td><td valign="top">:</td><td><div>/projectlibrary/default/upload.html</div></td></tr><tr><td style="font-weight:bold;vertical-align:top">query_string</td><td valign="top">:</td><td><div></div></td></tr><tr><td style="font-weight:bold;vertical-align:top">remote_addr</td><td valign="top">:</td><td><div>127.0.0.1</div></td></tr><tr><td style="font-weight:bold;vertical-align:top">remote_port</td><td valign="top">:</td><td><div>40199</div></td></tr><tr><td style="font-weight:bold;vertical-align:top">request_method</td><td valign="top">:</td><td><div>POST</div></td></tr><tr><td style="font-weight:bold;vertical-align:top">request_uri</td><td valign="top">:</td><td><div>/projectlibrary/default/upload.html</div></td></tr><tr><td style="font-weight:bold;vertical-align:top">script_name</td><td valign="top">:</td><td><div></div></td></tr><tr><td style="font-weight:bold;vertical-align:top">server_name</td><td valign="top">:</td><td><div>kira-Ideapad-Z570</div></td></tr><tr><td style="font-weight:bold;vertical-align:top">server_port</td><td valign="top">:</td><td><div>8000</div></td></tr><tr><td style="font-weight:bold;vertical-align:top">server_protocol</td><td valign="top">:</td><td><div>HTTP/1.1</div></td></tr><tr><td style="font-weight:bold;vertical-align:top">server_software</td><td valign="top">:</td><td><div>Rocket 1.2.6</div></td></tr><tr><td style="font-weight:bold;vertical-align:top">web2py_path</td><td valign="top">:</td><td><div>/home/kira/web2py</div></td></tr><tr><td style="font-weight:bold;vertical-align:top">web2py_version</td><td valign="top">:</td><td><div><table><tr><td><div>2</div></td></tr><tr><td><div>4</div></td></tr><tr><td><div>2</div></td></tr><tr><td><div>stable</div></td></tr><tr><td><div>datetime.datetime(2013, 3, 4, 3, 26, 21)</div></td></tr></table></div></td></tr><tr><td style="font-weight:bold;vertical-align:top">wsgi_errors</td><td valign="top">:</td><td><div>&lt;open file &#x27;&lt;stderr&gt;&#x27;, mode &#x27;w&#x27; at 0xb73700d0&gt;</div></td></tr><tr><td style="font-weight:bold;vertical-align:top">wsgi_file_wrapper</td><td valign="top">:</td><td><div>&lt;class wsgiref.util.FileWrapper at 0xa911b9c&gt;</div></td></tr><tr><td style="font-weight:bold;vertical-align:top">wsgi_input</td><td valign="top">:</td><td><div>&lt;socket._fileobject object at 0xaf5949ec&gt;</div></td></tr><tr><td style="font-weight:bold;vertical-align:top">wsgi_multiprocess</td><td valign="top">:</td><td><div>False</div></td></tr><tr><td style="font-weight:bold;vertical-align:top">wsgi_multithread</td><td valign="top">:</td><td><div>True</div></td></tr><tr><td style="font-weight:bold;vertical-align:top">wsgi_run_once</td><td valign="top">:</td><td><div>False</div></td></tr><tr><td style="font-weight:bold;vertical-align:top">wsgi_url_scheme</td><td valign="top">:</td><td><div>http</div></td></tr><tr><td style="font-weight:bold;vertical-align:top">wsgi_version</td><td valign="top">:</td><td><div><table><tr><td><div>1</div></td></tr><tr><td><div>0</div></td></tr></table></div></td></tr></table></div></td></tr><tr><td style="font-weight:bold;vertical-align:top">extension</td><td valign="top">:</td><td><div>html</div></td></tr><tr><td style="font-weight:bold;vertical-align:top">folder</td><td valign="top">:</td><td><div>/home/kira/web2py/applications/projectlibrary/</div></td></tr><tr><td style="font-weight:bold;vertical-align:top">function</td><td valign="top">:</td><td><div>upload</div></td></tr><tr><td style="font-weight:bold;vertical-align:top">get_vars</td><td valign="top">:</td><td><div><table></table></div></td></tr><tr><td style="font-weight:bold;vertical-align:top">global_settings</td><td valign="top">:</td><td><div><table><tr><td style="font-weight:bold;vertical-align:top">app_folders</td><td valign="top">:</td><td><div>set([&#x27;/home/kira/web2py/applications/admin/&#x27;, &#x27;/home/kira/web2py/applications/welcome/&#x27;, &#x27;/home/kira/web2py/applications/projectlibrary/&#x27;])</div></td></tr><tr><td style="font-weight:bold;vertical-align:top">applications_parent</td><td valign="top">:</td><td><div>/home/kira/web2py</div></td></tr><tr><td style="font-weight:bold;vertical-align:top">cmd_args</td><td valign="top">:</td><td><div><table></table></div></td></tr><tr><td style="font-weight:bold;vertical-align:top">cmd_options</td><td valign="top">:</td><td><div>&lt;Values at 0xa9cbc8c: {&#x27;verbose&#x27;: False, &#x27;ip&#x27;: &#x27;127.0.0.1&#x27;, &#x27;with_scheduler&#x27;: False, &#x27;ips&#x27;: [], &#x27;shutdown_timeout&#x27;: 5, &#x27;taskbar&#x27;: False, &#x27;port&#x27;: 8000, &#x27;maxthreads&#x27;: None, &#x27;softcron&#x27;: False, &#x27;server_name&#x27;: &#x27;kira-Ideapad-Z570&#x27;, &#x27;bpython&#x27;: False, &#x27;nogui&#x27;: False, &#x27;pid_filename&#x27;: &#x27;httpserver.pid&#x27;, &#x27;extcron&#x27;: False, &#x27;runcron&#x27;: False, &#x27;run_system_tests&#x27;: False, &#x27;test&#x27;: None, &#x27;folder&#x27;: &#x27;/home/kira/web2py&#x27;, &#x27;config&#x27;: &#x27;&#x27;, &#x27;import_models&#x27;: False, &#x27;winservice&#x27;: &#x27;&#x27;, &#x27;shell&#x27;: None, &#x27;run&#x27;: &#x27;&#x27;, &#x27;log_filename&#x27;: &#x27;httpserver.log&#x27;, &#x27;debuglevel&#x27;: 30, &#x27;args&#x27;: [&#x27;&#x27;], &#x27;socket_timeout&#x27;: 5, &#x27;ssl_ca_certificate&#x27;: None, &#x27;scheduler&#x27;: None, &#x27;profiler_filename&#x27;: None, &#x27;ssl_private_key&#x27;: &#x27;&#x27;, &#x27;scheduler_groups&#x27;: None, &#x27;password&#x27;: &#x27;project&#x27;, &#x27;request_queue_size&#x27;: 5, &#x27;ssl_certificate&#x27;: &#x27;&#x27;, &#x27;cronjob&#x27;: False, &#x27;numthreads&#x27;: None, &#x27;quiet&#x27;: False, &#x27;interfaces&#x27;: None, &#x27;minthreads&#x27;: None, &#x27;timeout&#x27;: 10, &#x27;plain&#x27;: False, &#x27;nobanner&#x27;: False}&gt;</div></td></tr><tr><td style="font-weight:bold;vertical-align:top">db_sessions</td><td valign="top">:</td><td><div>set([])</div></td></tr><tr><td style="font-weight:bold;vertical-align:top">debugging</td><td valign="top">:</td><td><div>False</div></td></tr><tr><td style="font-weight:bold;vertical-align:top">gluon_parent</td><td valign="top">:</td><td><div>/home/kira/web2py</div></td></tr><tr><td style="font-weight:bold;vertical-align:top">is_jython</td><td valign="top">:</td><td><div>False</div></td></tr><tr><td style="font-weight:bold;vertical-align:top">is_pypy</td><td valign="top">:</td><td><div>False</div></td></tr><tr><td style="font-weight:bold;vertical-align:top">local_hosts</td><td valign="top">:</td><td><div><table><tr><td><div>kira-Ideapad-Z570</div></td></tr><tr><td><div>::1</div></td></tr><tr><td><div>127.0.1.1</div></td></tr><tr><td><div>::ffff:127.0.0.1</div></td></tr><tr><td><div>127.0.0.1</div></td></tr></table></div></td></tr><tr><td style="font-weight:bold;vertical-align:top">web2py_version</td><td valign="top">:</td><td><div><table><tr><td><div>2</div></td></tr><tr><td><div>4</div></td></tr><tr><td><div>2</div></td></tr><tr><td><div>stable</div></td></tr><tr><td><div>datetime.datetime(2013, 3, 4, 3, 26, 21)</div></td></tr></table></div></td></tr></table></div></td></tr><tr><td style="font-weight:bold;vertical-align:top">is_https</td><td valign="top">:</td><td><div>False</div></td></tr><tr><td style="font-weight:bold;vertical-align:top">is_local</td><td valign="top">:</td><td><div>True</div></td></tr><tr><td style="font-weight:bold;vertical-align:top">is_restful</td><td valign="top">:</td><td><div>False</div></td></tr><tr><td style="font-weight:bold;vertical-align:top">now</td><td valign="top">:</td><td><div>datetime.datetime(2013, 3, 25, 1, 12, 39, 371284)</div></td></tr><tr><td style="font-weight:bold;vertical-align:top">post_vars</td><td valign="top">:</td><td><div><table><tr><td style="font-weight:bold;vertical-align:top">Password</td><td valign="top">:</td><td><div>asd</div></td></tr><tr><td style="font-weight:bold;vertical-align:top">Project_Admin</td><td valign="top">:</td><td><div>1</div></td></tr><tr><td style="font-weight:bold;vertical-align:top">Project_Name</td><td valign="top">:</td><td><div>first project</div></td></tr></table></div></td></tr><tr><td style="font-weight:bold;vertical-align:top">raw_args</td><td valign="top">:</td><td><div></div></td></tr><tr><td style="font-weight:bold;vertical-align:top">raw_extension</td><td valign="top">:</td><td><div>html</div></td></tr><tr><td style="font-weight:bold;vertical-align:top">url</td><td valign="top">:</td><td><div>/projectlibrary/default/upload.html</div></td></tr><tr><td style="font-weight:bold;vertical-align:top">utcnow</td><td valign="top">:</td><td><div>datetime.datetime(2013, 3, 24, 19, 42, 39, 371308)</div></td></tr><tr><td style="font-weight:bold;vertical-align:top">uuid</td><td valign="top">:</td><td><div>projectlibrary/127.0.0.1.2013-03-25.01-12-39.743da699-5fc6-4646-9233-38ca9037a1c4</div></td></tr><tr><td style="font-weight:bold;vertical-align:top">vars</td><td valign="top">:</td><td><div><table><tr><td style="font-weight:bold;vertical-align:top">Password</td><td valign="top">:</td><td><div>asd</div></td></tr><tr><td style="font-weight:bold;vertical-align:top">Project_Admin</td><td valign="top">:</td><td><div>1</div></td></tr><tr><td style="font-weight:bold;vertical-align:top">Project_Name</td><td valign="top">:</td><td><div>first project</div></td></tr></table></div></td></tr><tr><td style="font-weight:bold;vertical-align:top">wsgi</td><td valign="top">:</td><td><div><table><tr><td style="font-weight:bold;vertical-align:top">environ</td><td valign="top">:</td><td><div><table><tr><td style="font-weight:bold;vertical-align:top">CONTENT_LENGTH</td><td valign="top">:</td><td><div>807</div></td></tr><tr><td style="font-weight:bold;vertical-align:top">CONTENT_TYPE</td><td valign="top">:</td><td><div>multipart/form-data; boundary=---------------------------2279693682381654771160849468</div></td></tr><tr><td style="font-weight:bold;vertical-align:top">HTTP_ACCEPT</td><td valign="top">:</td><td><div>text/html,application/xhtml+xml,application/xml;q=0.9,*/*;q=0.8</div></td></tr><tr><td style="font-weight:bold;vertical-align:top">HTTP_ACCEPT_ENCODING</td><td valign="top">:</td><td><div>gzip, deflate</div></td></tr><tr><td style="font-weight:bold;vertical-align:top">HTTP_ACCEPT_LANGUAGE</td><td valign="top">:</td><td><div>en-us,en;q=0.5</div></td></tr><tr><td style="font-weight:bold;vertical-align:top">HTTP_CONNECTION</td><td valign="top">:</td><td><div>keep-alive</div></td></tr><tr><td style="font-weight:bold;vertical-align:top">HTTP_CONTENT_LENGTH</td><td valign="top">:</td><td><div>807</div></td></tr><tr><td style="font-weight:bold;vertical-align:top">HTTP_CONTENT_TYPE</td><td valign="top">:</td><td><div>multipart/form-data; boundary=---------------------------2279693682381654771160849468</div></td></tr><tr><td style="font-weight:bold;vertical-align:top">HTTP_COOKIE</td><td valign="top">:</td><td><div>session_id_welcome=127.0.0.1-8e4e3dd7-e664-42fa-9b08-a00489c82f5a; session_id_admin=127.0.0.1-0953c632-b691-4c4d-8993-7f0e604b3980; session_id_projectlibrary=127.0.0.1-9e5f880a-7948-4501-b923-9ae2a9c43c63</div></td></tr><tr><td style="font-weight:bold;vertical-align:top">HTTP_HOST</td><td valign="top">:</td><td><div>127.0.0.1:8000</div></td></tr><tr><td style="font-weight:bold;vertical-align:top">HTTP_REFERER</td><td valign="top">:</td><td><div>http://127.0.0.1:8000/projectlibrary/default/upload.html</div></td></tr><tr><td style="font-weight:bold;vertical-align:top">HTTP_USER_AGENT</td><td valign="top">:</td><td><div>Mozilla/5.0 (X11; Ubuntu; Linux i686; rv:11.0) Gecko/20100101 Firefox/11.0</div></td></tr><tr><td style="font-weight:bold;vertical-align:top">PATH_INFO</td><td valign="top">:</td><td><div>/projectlibrary/default/upload.html</div></td></tr><tr><td style="font-weight:bold;vertical-align:top">QUERY_STRING</td><td valign="top">:</td><td><div></div></td></tr><tr><td style="font-weight:bold;vertical-align:top">REMOTE_ADDR</td><td valign="top">:</td><td><div>127.0.0.1</div></td></tr><tr><td style="font-weight:bold;vertical-align:top">REMOTE_PORT</td><td valign="top">:</td><td><div>40199</div></td></tr><tr><td style="font-weight:bold;vertical-align:top">REQUEST_METHOD</td><td valign="top">:</td><td><div>POST</div></td></tr><tr><td style="font-weight:bold;vertical-align:top">REQUEST_URI</td><td valign="top">:</td><td><div>/projectlibrary/default/upload.html</div></td></tr><tr><td style="font-weight:bold;vertical-align:top">SCRIPT_NAME</td><td valign="top">:</td><td><div></div></td></tr><tr><td style="font-weight:bold;vertical-align:top">SERVER_NAME</td><td valign="top">:</td><td><div>kira-Ideapad-Z570</div></td></tr><tr><td style="font-weight:bold;vertical-align:top">SERVER_PORT</td><td valign="top">:</td><td><div>8000</div></td></tr><tr><td style="font-weight:bold;vertical-align:top">SERVER_PROTOCOL</td><td valign="top">:</td><td><div>HTTP/1.1</div></td></tr><tr><td style="font-weight:bold;vertical-align:top">SERVER_SOFTWARE</td><td valign="top">:</td><td><div>Rocket 1.2.6</div></td></tr><tr><td style="font-weight:bold;vertical-align:top">wsgi.errors</td><td valign="top">:</td><td><div>&lt;open file &#x27;&lt;stderr&gt;&#x27;, mode &#x27;w&#x27; at 0xb73700d0&gt;</div></td></tr><tr><td style="font-weight:bold;vertical-align:top">wsgi.file_wrapper</td><td valign="top">:</td><td><div>&lt;class wsgiref.util.FileWrapper at 0xa911b9c&gt;</div></td></tr><tr><td style="font-weight:bold;vertical-align:top">wsgi.input</td><td valign="top">:</td><td><div>&lt;open file &#x27;&lt;fdopen&gt;&#x27;, mode &#x27;w+b&#x27; at 0xaf47cc80&gt;</div></td></tr><tr><td style="font-weight:bold;vertical-align:top">wsgi.multiprocess</td><td valign="top">:</td><td><div>False</div></td></tr><tr><td style="font-weight:bold;vertical-align:top">wsgi.multithread</td><td valign="top">:</td><td><div>True</div></td></tr><tr><td style="font-weight:bold;vertical-align:top">wsgi.run_once</td><td valign="top">:</td><td><div>False</div></td></tr><tr><td style="font-weight:bold;vertical-align:top">wsgi.url_scheme</td><td valign="top">:</td><td><div>http</div></td></tr><tr><td style="font-weight:bold;vertical-align:top">wsgi.version</td><td valign="top">:</td><td><div>1</div></td></tr></table></div></td></tr></table></div></td></tr></table></div>'
tRp58
sS'frames'
p59
(lp60
(dp61
S'file'
p62
S'/home/kira/web2py/gluon/restricted.py'
p63
sS'dump'
p64
(dp65
S'environment'
p66
S"{'A': <class 'gluon.html.A'>, 'Auth': <class 'gluon.tools.Auth'>, 'B': <class 'gluon.html.B'>, 'BEAUTIFY': <class 'gluon.html.BEAUTIFY'>, 'BODY': <class 'gluon.html.BODY'>, 'BR': <class 'gluon.html.BR'>, 'BUTTON': <class 'gluon.html.BUTTON'>, 'CAT': <class 'gluon.html.CAT'>, 'CENTER': <class 'gluon.html.CENTER'>, 'CLEANUP': <class 'gluon.validators.CLEANUP'>, ...}"
p67
sS'ccode'
p68
S'<code object <module> at 0xaedbfd10, file "/home.../projectlibrary/controllers/default.py", line 13>'
p69
ssS'lnum'
p70
I212
sS'lines'
p71
(dp72
I207
S'    try:'
p73
sI208
S'        if isinstance(code, types.CodeType):'
p74
sI209
S'            ccode = code'
p75
sI210
S'        else:'
p76
sI211
S'            ccode = compile2(code, layer)'
p77
sI212
S'        exec ccode in environment'
p78
sI213
S'    except HTTP:'
p79
sI214
S'        raise'
p80
sI215
S'    except RestrictedError:'
p81
sI216
S'        # do not encapsulate (obfuscate) the original RestrictedError'
p82
ssS'call'
p83
S"(code='# -*- coding: utf-8 -*-\\n# this file is released ...ns=ans)\\n\\nresponse._vars=response._caller(upload)\\n', environment={'A': <class 'gluon.html.A'>, 'Auth': <class 'gluon.tools.Auth'>, 'B': <class 'gluon.html.B'>, 'BEAUTIFY': <class 'gluon.html.BEAUTIFY'>, 'BODY': <class 'gluon.html.BODY'>, 'BR': <class 'gluon.html.BR'>, 'BUTTON': <class 'gluon.html.BUTTON'>, 'CAT': <class 'gluon.html.CAT'>, 'CENTER': <class 'gluon.html.CENTER'>, 'CLEANUP': <class 'gluon.validators.CLEANUP'>, ...}, layer='/home/kira/web2py/applications/projectlibrary/controllers/default.py')"
p84
sS'func'
p85
S'restricted'
p86
sa(dp87
g62
S'/home/kira/web2py/applications/projectlibrary/controllers/default.py'
p88
sg64
(dp89
sg70
I138
sg71
(dp90
I128
S'#\trecord=db(db.Artist.id==Artist).select(db.Artist.job)'
p91
sI129
S'#\tfor i in record:'
p92
sI130
S"#\t\tif i['job']=='Actor':"
p93
sI131
S'#\t\t\tans=db(db.Movie.Hero==Artist).select(db.Movie.Name)'
p94
sI132
S"#\t\telif i['job']=='Singer':"
p95
sI133
S'#\t\t\tans=db(db.Song.Singer==Artist).select(db.Song.Name)'
p96
sI134
S"#\t\telif i['Job']=='Director':"
p97
sI135
S'#\t\t\tans=db(db.Movie.Director==Artist).select(db.Movie.Name)'
p98
sI136
S'#\t\treturn dict(i=i,ans=ans)'
p99
sI127
S'#\tArtist=(request.args(0,cast=int))'
p100
ssg83
S'()'
p101
sg85
S'<module>'
p102
sa(dp103
g62
S'/home/kira/web2py/gluon/globals.py'
p104
sg64
(dp105
S'self'
p106
S'undefined'
p107
sS'f'
S'<function upload>'
p108
ssg70
I193
sg71
(dp109
I192
S'        self._vars = None'
p110
sI193
S'        self._caller = lambda f: f()'
p111
sI194
S'        self._view_environment = None'
p112
sI195
S'        self._custom_commit = None'
p113
sI196
S'        self._custom_rollback = None'
p114
sI197
S''
sI188
S'        self.menu = []             # used by the default view layout'
p115
sI189
S'        self.files = []            # used by web2py_ajax.html'
p116
sI190
S'        self.generic_patterns = []  # patterns to allow generic views'
p117
sI191
S"        self.delimiters = ('{{', '}}')"
p118
ssg83
S'(f=<function upload>)'
p119
sg85
S'<lambda>'
p120
sa(dp121
g62
S'/home/kira/web2py/applications/projectlibrary/controllers/default.py'
p122
sg64
(dp123
S'form.process'
p124
S'<bound method SQLFORM.process of <gluon.sqlhtml.SQLFORM object>>'
p125
sS').accepted'
p126
g107
sS'form'
p127
S'<gluon.sqlhtml.SQLFORM object>'
p128
ssg70
I83
sg71
(dp129
I78
S'\ta=crud.create(db.register)'
p130
sI79
S'\treturn dict(a=a)'
p131
sI80
S''
sI81
S'def upload():'
p132
sI82
S'\tform=crud.create(db.project)'
p133
sI83
S'\tif form.process().accepted:'
p134
sI84
S'\t\trow=db(db.register.Username==request.vars.Project_Admin).select()'
p135
sI85
S"\t\tif request.vars.Password==row[0]['Password']:"
p136
sI86
S"\t\t\tresponse.flash='Form accepted'"
p137
sI87
S'\t\telse:'
p138
ssg83
S'()'
p139
sg85
S'upload'
p140
sa(dp141
g62
S'/home/kira/web2py/gluon/html.py'
p142
sg64
(dp143
S'self'
p144
S'<gluon.sqlhtml.SQLFORM object>'
p145
sS'self.validate'
p146
S'<bound method SQLFORM.validate of <gluon.sqlhtml.SQLFORM object>>'
p147
sS'kwargs'
p148
S"{'dbio': True}"
p149
ssg70
I2178
sg71
(dp150
I2176
S"        kwargs['dbio'] = kwargs.get('dbio', True)"
p151
sI2177
S'                                    # necessary for SQLHTML forms'
p152
sI2178
S'        self.validate(**kwargs)'
p153
sI2179
S'        return self'
p154
sI2180
S''
sI2181
S'    REDIRECT_JS = "window.location=\'%s\';return false"'
p155
sI2182
S''
sI2173
S'        def action():'
p156
sI2174
S'            return dict(form=SQLFORM(db.table).process(onsuccess=my_callback)'
p157
sI2175
S'        """'
p158
ssg83
S"(self=<gluon.sqlhtml.SQLFORM object>, **kwargs={'dbio': True})"
p159
sg85
S'process'
p160
sa(dp161
g62
S'/home/kira/web2py/gluon/html.py'
p162
sg64
(dp163
S'self'
p164
S'<gluon.sqlhtml.SQLFORM object>'
p165
sS'self.accepts'
p166
S'<bound method SQLFORM.accepts of <gluon.sqlhtml.SQLFORM object>>'
p167
sS'kwargs'
p168
S"{'dbio': True, 'request_vars': <Storage {'Project_Admin': '1', 'Project_Name': ...Password': 'asd', '_formname': 'project/create'}>, 'session': <Storage {'_formkey[project/create]': 'e7659b2e-...owser': {'version': '11.0', 'name': 'Firefox'}}}>}"
p169
ssg70
I2117
sg71
(dp170
I2112
S"        for key in ('message_onsuccess', 'message_onfailure', 'onsuccess',"
p171
sI2113
S"                    'onfailure', 'next', 'message_onchange', 'onchange'):"
p172
sI2114
S'            if key in kwargs:'
p173
sI2115
S'                del kwargs[key]'
p174
sI2116
S''
sI2117
S'        if self.accepts(**kwargs):'
p175
sI2118
S"            if onsuccess == 'flash':"
p176
sI2119
S'                if next:'
p177
sI2120
S'                    current.session.flash = message_onsuccess'
p178
sI2121
S'                else:'
p179
ssg83
S"(self=<gluon.sqlhtml.SQLFORM object>, **kwargs={'dbio': True, 'request_vars': <Storage {'Project_Admin': '1', 'Project_Name': ...Password': 'asd', '_formname': 'project/create'}>, 'session': <Storage {'_formkey[project/create]': 'e7659b2e-...owser': {'version': '11.0', 'name': 'Firefox'}}}>})"
p180
sg85
S'validate'
p181
sa(dp182
g62
S'/home/kira/web2py/gluon/sqlhtml.py'
p183
sg64
(dp184
S'kwargs'
p185
g45
ssg70
I1333
sg71
(dp186
I1328
S'            session,'
p187
sI1329
S'            formname,'
p188
sI1330
S'            keepvalues,'
p189
sI1331
S'            onvalidation,'
p190
sI1332
S'            hideerror=hideerror,'
p191
sI1333
S'            **kwargs'
p192
sI1334
S'        )'
p193
sI1335
S''
sI1336
S'        self.deleted = \\'
p194
sI1337
S'            request_vars.get(self.FIELDNAME_REQUEST_DELETE, False)'
p195
ssg83
S"(self=<gluon.sqlhtml.SQLFORM object>, request_vars=<Storage {'Project_Admin': '1', 'Project_Name': ...Password': 'asd', '_formname': 'project/create'}>, session=<Storage {'_formkey[project/create]': 'e7659b2e-...owser': {'version': '11.0', 'name': 'Firefox'}}}>, formname='project/create', keepvalues=False, onvalidation=None, dbio=True, hideerror=False, detect_record_change=False, **kwargs={})"
p196
sg85
S'accepts'
p197
sa(dp198
g62
S'/home/kira/web2py/gluon/html.py'
p199
sg64
(dp200
S'status'
p201
S'True'
p202
sS'self'
p203
S'<gluon.sqlhtml.SQLFORM object>'
p204
sS'self._traverse'
p205
S'<bound method SQLFORM._traverse of <gluon.sqlhtml.SQLFORM object>>'
p206
sS'hideerror'
p207
S'False'
p208
ssg70
I2000
sg71
(dp209
I1995
S'        if status and session:'
p210
sI1996
S'            # check if editing a record that has been modified by the server'
p211
sI1997
S"            if hasattr(self, 'record_hash') and self.record_hash != formkey:"
p212
sI1998
S'                status = False'
p213
sI1999
S'                self.record_changed = changed = True'
p214
sI2000
S'        status = self._traverse(status, hideerror)'
p215
sI2001
S'        status = self.assert_status(status, request_vars)'
p216
sI2002
S'        if onvalidation:'
p217
sI2003
S'            if isinstance(onvalidation, dict):'
p218
sI2004
S"                onsuccess = onvalidation.get('onsuccess', None)"
p219
ssg83
S"(self=<gluon.sqlhtml.SQLFORM object>, request_vars=<Storage {'Project_Admin': '1', 'Project_Name': ...Password': 'asd', '_formname': 'project/create'}>, session=<Storage {'_formkey[project/create]': 'e7659b2e-...owser': {'version': '11.0', 'name': 'Firefox'}}}>, formname='project/create', keepvalues=False, onvalidation=None, hideerror=False, **kwargs={})"
p220
sg85
g197
sa(dp221
g62
S'/home/kira/web2py/gluon/html.py'
p222
sg64
(dp223
S'status'
p224
g202
sS'newstatus'
p225
g202
sS'c'
S'<gluon.html.TABLE object>'
p226
sS'hideerror'
p227
g208
sS'c._traverse'
p228
S'<bound method TABLE._traverse of <gluon.html.TABLE object>>'
p229
ssg70
I846
sg71
(dp230
I841
S'                c.session = self.session'
p231
sI842
S'                c.formname = self.formname'
p232
sI843
S'                if hideerror and not \\'
p233
sI844
S"                        self.attributes.get('hideerror', False):"
p234
sI845
S"                    c['hideerror'] = hideerror"
p235
sI846
S'                newstatus = c._traverse(status, hideerror) and newstatus'
p236
sI847
S''
sI848
S'        # for input, textarea, select, option'
p237
sI849
S"        # deal with 'value' and 'validation'"
p238
sI850
S''
ssg83
S'(self=<gluon.sqlhtml.SQLFORM object>, status=True, hideerror=False)'
p239
sg85
S'_traverse'
p240
sa(dp241
g62
S'/home/kira/web2py/gluon/html.py'
p242
sg64
(dp243
S'status'
p244
g202
sS'newstatus'
p245
g202
sS'c'
S'<gluon.html.TR object>'
p246
sS'hideerror'
p247
g208
sS'c._traverse'
p248
S'<bound method TR._traverse of <gluon.html.TR object>>'
p249
ssg70
I846
sg71
(dp250
I841
S'                c.session = self.session'
p251
sI842
S'                c.formname = self.formname'
p252
sI843
S'                if hideerror and not \\'
p253
sI844
S"                        self.attributes.get('hideerror', False):"
p254
sI845
S"                    c['hideerror'] = hideerror"
p255
sI846
S'                newstatus = c._traverse(status, hideerror) and newstatus'
p256
sI847
S''
sI848
S'        # for input, textarea, select, option'
p257
sI849
S"        # deal with 'value' and 'validation'"
p258
sI850
S''
ssg83
S'(self=<gluon.html.TABLE object>, status=True, hideerror=False)'
p259
sg85
g240
sa(dp260
g62
S'/home/kira/web2py/gluon/html.py'
p261
sg64
(dp262
S'status'
p263
g202
sS'newstatus'
p264
g202
sS'c'
S'<gluon.html.TD object>'
p265
sS'hideerror'
p266
g208
sS'c._traverse'
p267
S'<bound method TD._traverse of <gluon.html.TD object>>'
p268
ssg70
I846
sg71
(dp269
I841
S'                c.session = self.session'
p270
sI842
S'                c.formname = self.formname'
p271
sI843
S'                if hideerror and not \\'
p272
sI844
S"                        self.attributes.get('hideerror', False):"
p273
sI845
S"                    c['hideerror'] = hideerror"
p274
sI846
S'                newstatus = c._traverse(status, hideerror) and newstatus'
p275
sI847
S''
sI848
S'        # for input, textarea, select, option'
p276
sI849
S"        # deal with 'value' and 'validation'"
p277
sI850
S''
ssg83
S'(self=<gluon.html.TR object>, status=True, hideerror=False)'
p278
sg85
g240
sa(dp279
g62
S'/home/kira/web2py/gluon/html.py'
p280
sg64
(dp281
S'status'
p282
g202
sS'newstatus'
p283
g202
sS'c'
S'<gluon.html.INPUT object>'
p284
sS'hideerror'
p285
g208
sS'c._traverse'
p286
S'<bound method INPUT._traverse of <gluon.html.INPUT object>>'
p287
ssg70
I846
sg71
(dp288
I841
S'                c.session = self.session'
p289
sI842
S'                c.formname = self.formname'
p290
sI843
S'                if hideerror and not \\'
p291
sI844
S"                        self.attributes.get('hideerror', False):"
p292
sI845
S"                    c['hideerror'] = hideerror"
p293
sI846
S'                newstatus = c._traverse(status, hideerror) and newstatus'
p294
sI847
S''
sI848
S'        # for input, textarea, select, option'
p295
sI849
S"        # deal with 'value' and 'validation'"
p296
sI850
S''
ssg83
S'(self=<gluon.html.TD object>, status=True, hideerror=False)'
p297
sg85
g240
sa(dp298
g62
S'/home/kira/web2py/gluon/html.py'
p299
sg64
(dp300
S'newstatus'
p301
g202
sS'self'
p302
S'<gluon.html.INPUT object>'
p303
sS'self._validate'
p304
S'<bound method INPUT._validate of <gluon.html.INPUT object>>'
p305
ssg70
I853
sg71
(dp306
I848
S'        # for input, textarea, select, option'
p307
sI849
S"        # deal with 'value' and 'validation'"
p308
sI850
S''
sI851
S"        name = self['_name']"
p309
sI852
S'        if newstatus:'
p310
sI853
S'            newstatus = self._validate()'
p311
sI854
S'            self._postprocessing()'
p312
sI855
S"        elif 'old_value' in self.attributes:"
p313
sI856
S"            self['value'] = self['old_value']"
p314
sI857
S'            self._postprocessing()'
p315
ssg83
S'(self=<gluon.html.INPUT object>, status=True, hideerror=False)'
p316
sg85
g240
sa(dp317
g62
S'/home/kira/web2py/gluon/html.py'
p318
sg64
(dp319
S'errors'
p320
g107
sS'value'
p321
S"'first project'"
p322
sS'validator'
p323
g202
ssg70
I1749
sg71
(dp324
I1744
S"        requires = self['requires']"
p325
sI1745
S'        if requires:'
p326
sI1746
S'            if not isinstance(requires, (list, tuple)):'
p327
sI1747
S'                requires = [requires]'
p328
sI1748
S'            for validator in requires:'
p329
sI1749
S'                (value, errors) = validator(value)'
p330
sI1750
S'                if not errors is None:'
p331
sI1751
S'                    self.vars[name] = value'
p332
sI1752
S'                    self.errors[name] = errors'
p333
sI1753
S'                    break'
p334
ssg83
S'(self=<gluon.html.INPUT object>)'
p335
sg85
S'_validate'
p336
sasS'pyver'
p337
S'Python 2.7.3: /usr/bin/python (prefix: /usr)'
p338
sS'session'
p339
g57
(S's\x1a\x00\x00\x00<div><table></table></div>'
tRp340
sS'etype'
p341
S"<type 'exceptions.TypeError'>"
p342
sS'date'
p343
S'Mon Mar 25 01:12:39 2013'
p344
sS'response'
p345
g57
(S's\x07-\x00\x00<div><table><tr><td style="font-weight:bold;vertical-align:top">body</td><td valign="top">:</td><td><div>&lt;cStringIO.StringO object at 0xae578580&gt;</div></td></tr><tr><td style="font-weight:bold;vertical-align:top">cookies</td><td valign="top">:</td><td><div><table><tr><td style="font-weight:bold;vertical-align:top">session_id_projectlibrary</td><td valign="top">:</td><td><div>127.0.0.1-9e5f880a-7948-4501-b923-9ae2a9c43c63<table><tr><td style="font-weight:bold;vertical-align:top">comment</td><td valign="top">:</td><td><div></div></td></tr><tr><td style="font-weight:bold;vertical-align:top">domain</td><td valign="top">:</td><td><div></div></td></tr><tr><td style="font-weight:bold;vertical-align:top">expires</td><td valign="top">:</td><td><div></div></td></tr><tr><td style="font-weight:bold;vertical-align:top">httponly</td><td valign="top">:</td><td><div></div></td></tr><tr><td style="font-weight:bold;vertical-align:top">max-age</td><td valign="top">:</td><td><div></div></td></tr><tr><td style="font-weight:bold;vertical-align:top">path</td><td valign="top">:</td><td><div>/</div></td></tr><tr><td style="font-weight:bold;vertical-align:top">secure</td><td valign="top">:</td><td><div></div></td></tr><tr><td style="font-weight:bold;vertical-align:top">version</td><td valign="top">:</td><td><div></div></td></tr></table></div></td></tr></table></div></td></tr><tr><td style="font-weight:bold;vertical-align:top">delimiters</td><td valign="top">:</td><td><div><table><tr><td><div>{{</div></td></tr><tr><td><div>}}</div></td></tr></table></div></td></tr><tr><td style="font-weight:bold;vertical-align:top">files</td><td valign="top">:</td><td><div><table></table></div></td></tr><tr><td style="font-weight:bold;vertical-align:top">flash</td><td valign="top">:</td><td><div></div></td></tr><tr><td style="font-weight:bold;vertical-align:top">generic_patterns</td><td valign="top">:</td><td><div><table><tr><td><div>*</div></td></tr></table></div></td></tr><tr><td style="font-weight:bold;vertical-align:top">google_analytics_id</td><td valign="top">:</td><td><div>None</div></td></tr><tr><td style="font-weight:bold;vertical-align:top">headers</td><td valign="top">:</td><td><div><table><tr><td style="font-weight:bold;vertical-align:top">X-Powered-By</td><td valign="top">:</td><td><div>web2py</div></td></tr></table></div></td></tr><tr><td style="font-weight:bold;vertical-align:top">logo</td><td valign="top">:</td><td><div><a class="brand" href="http://www.web2py.com/"><b>web<span>2</span>py</b>&trade;&nbsp;</a></div></td></tr><tr><td style="font-weight:bold;vertical-align:top">menu</td><td valign="top">:</td><td><div><table><tr><td><div><table><tr><td><div>Home</div></td></tr><tr><td><div>False</div></td></tr><tr><td><div>/projectlibrary/default/index</div></td></tr><tr><td><div><table></table></div></td></tr></table></div></td></tr><tr><td><div><table><tr><td><div><span class="highlighted">web2py</span></div></td></tr><tr><td><div>False</div></td></tr><tr><td><div>http://web2py.com</div></td></tr><tr><td><div><table><tr><td><div><table><tr><td><div>My Sites</div></td></tr><tr><td><div>False</div></td></tr><tr><td><div>/admin/default/site</div></td></tr></table></div></td></tr><tr><td><div><table><tr><td><div>This App</div></td></tr><tr><td><div>False</div></td></tr><tr><td><div>/admin/default/design/projectlibrary</div></td></tr><tr><td><div>[(&lt;lazyT &#x27;Controller&#x27;&gt;, False, &#x27;/admin/default/edit/projectlibrary/controllers/default.py&#x27;), (&lt;lazyT &#x27;View&#x27;&gt;, False, &#x27;/admin/default/edit/projectlibrary/views/default/upload.html&#x27;), (&lt;lazyT &#x27;Layout&#x27;&gt;, False, &#x27;/admin/default/edit/projectlibrary/views/layout.html&#x27;), (&lt;lazyT &#x27;Stylesheet&#x27;&gt;, False, &#x27;/admin/default/edit/projectlibrary/static/css/web2py.css&#x27;), (&lt;lazyT &#x27;DB Model&#x27;&gt;, False, &#x27;/admin/default/edit/projectlibrary/models/db.py&#x27;), (&lt;lazyT &#x27;Menu Model&#x27;&gt;, False, &#x27;/admin/default/edit/projectlibrary/models/menu.py&#x27;), (&lt;lazyT &#x27;Database&#x27;&gt;, False, &#x27;/projectlibrary/appadmin/index&#x27;), (&lt;lazyT &#x27;Errors&#x27;&gt;, False, &#x27;/admin/default/errors/projectlibrary&#x27;), (&lt;lazyT &#x27;About&#x27;&gt;, False, &#x27;/admin/default/about/projectlibrary&#x27;)]</div></td></tr></table></div></td></tr><tr><td><div><table><tr><td><div>web2py.com</div></td></tr><tr><td><div>False</div></td></tr><tr><td><div>http://www.web2py.com</div></td></tr><tr><td><div>[(&lt;lazyT &#x27;Download&#x27;&gt;, False, &#x27;http://www.web2py.com/examples/default/download&#x27;), (&lt;lazyT &#x27;Support&#x27;&gt;, False, &#x27;http://www.web2py.com/examples/default/support&#x27;), (&lt;lazyT &#x27;Demo&#x27;&gt;, False, &#x27;http://web2py.com/demo_admin&#x27;), (&lt;lazyT &#x27;Quick Examples&#x27;&gt;, False, &#x27;http://web2py.com/examples/default/examples&#x27;), (&lt;lazyT &#x27;FAQ&#x27;&gt;, False, &#x27;http://web2py.com/AlterEgo&#x27;), (&lt;lazyT &#x27;Videos&#x27;&gt;, False, &#x27;http://www.web2py.com/examples/default/videos/&#x27;), (&lt;lazyT &#x27;Free Applications&#x27;&gt;, False, &#x27;http://web2py.com/appliances&#x27;), (&lt;lazyT &#x27;Plugins&#x27;&gt;, False, &#x27;http://web2py.com/plugins&#x27;), (&lt;lazyT &#x27;Layouts&#x27;&gt;, False, &#x27;http://web2py.com/layouts&#x27;), (&lt;lazyT &#x27;Recipes&#x27;&gt;, False, &#x27;http://web2pyslices.com/&#x27;), (&lt;lazyT &#x27;Semantic&#x27;&gt;, False, &#x27;http://web2py.com/semantic&#x27;)]</div></td></tr></table></div></td></tr><tr><td><div><table><tr><td><div>Documentation</div></td></tr><tr><td><div>False</div></td></tr><tr><td><div>http://www.web2py.com/book</div></td></tr><tr><td><div>[(&lt;lazyT &#x27;Preface&#x27;&gt;, False, &#x27;http://www.web2py.com/book/default/chapter/00&#x27;), (&lt;lazyT &#x27;Introduction&#x27;&gt;, False, &#x27;http://www.web2py.com/book/default/chapter/01&#x27;), (&lt;lazyT &#x27;Python&#x27;&gt;, False, &#x27;http://www.web2py.com/book/default/chapter/02&#x27;), (&lt;lazyT &#x27;Overview&#x27;&gt;, False, &#x27;http://www.web2py.com/book/default/chapter/03&#x27;), (&lt;lazyT &#x27;The Core&#x27;&gt;, False, &#x27;http://www.web2py.com/book/default/chapter/04&#x27;), (&lt;lazyT &#x27;The Views&#x27;&gt;, False, &#x27;http://www.web2py.com/book/default/chapter/05&#x27;), (&lt;lazyT &#x27;Database&#x27;&gt;, False, &#x27;http://www.web2py.com/book/default/chapter/06&#x27;), (&lt;lazyT &#x27;Forms and Validators&#x27;&gt;, False, &#x27;http://www.web2py.com/book/default/chapter/07&#x27;), (&lt;lazyT &#x27;Email and SMS&#x27;&gt;, False, &#x27;http://www.web2py.com/book/default/chapter/08&#x27;), (&lt;lazyT &#x27;Access Control&#x27;&gt;, False, &#x27;http://www.web2py.com/book/default/chapter/09&#x27;), (&lt;lazyT &#x27;Services&#x27;&gt;, False, &#x27;http://www.web2py.com/book/default/chapter/10&#x27;), (&lt;lazyT &#x27;Ajax Recipes&#x27;&gt;, False, &#x27;http://www.web2py.com/book/default/chapter/11&#x27;), (&lt;lazyT &#x27;Components and Plugins&#x27;&gt;, False, &#x27;http://www.web2py.com/book/default/chapter/12&#x27;), (&lt;lazyT &#x27;Deployment Recipes&#x27;&gt;, False, &#x27;http://www.web2py.com/book/default/chapter/13&#x27;), (&lt;lazyT &#x27;Other Recipes&#x27;&gt;, False, &#x27;http://www.web2py.com/book/default/chapter/14&#x27;), (&lt;lazyT &#x27;Buy this book&#x27;&gt;, False, &#x27;http://stores.lulu.com/web2py&#x27;)]</div></td></tr></table></div></td></tr><tr><td><div><table><tr><td><div>Community</div></td></tr><tr><td><div>False</div></td></tr><tr><td><div>None</div></td></tr><tr><td><div>[(&lt;lazyT &#x27;Groups&#x27;&gt;, False, &#x27;http://www.web2py.com/examples/default/usergroups&#x27;), (&lt;lazyT &#x27;Twitter&#x27;&gt;, False, &#x27;http://twitter.com/web2py&#x27;), (&lt;lazyT &#x27;Live Chat&#x27;&gt;, False, &#x27;http://webchat.freenode.net/?channels=web2py&#x27;)]</div></td></tr></table></div></td></tr><tr><td><div><table><tr><td><div>Plugins</div></td></tr><tr><td><div>False</div></td></tr><tr><td><div>None</div></td></tr><tr><td><div>[(&#x27;plugin_wiki&#x27;, False, &#x27;http://web2py.com/examples/default/download&#x27;), (&lt;lazyT &#x27;Other Plugins&#x27;&gt;, False, &#x27;http://web2py.com/plugins&#x27;), (&lt;lazyT &#x27;Layout Plugins&#x27;&gt;, False, &#x27;http://web2py.com/layouts&#x27;)]</div></td></tr></table></div></td></tr></table></div></td></tr></table></div></td></tr></table></div></td></tr><tr><td style="font-weight:bold;vertical-align:top">meta</td><td valign="top">:</td><td><div><table><tr><td style="font-weight:bold;vertical-align:top">author</td><td valign="top">:</td><td><div>Your Name &lt;you@example.com&gt;</div></td></tr><tr><td style="font-weight:bold;vertical-align:top">description</td><td valign="top">:</td><td><div>a cool new app</div></td></tr><tr><td style="font-weight:bold;vertical-align:top">generator</td><td valign="top">:</td><td><div>Web2py Web Framework</div></td></tr><tr><td style="font-weight:bold;vertical-align:top">keywords</td><td valign="top">:</td><td><div>web2py, python, framework</div></td></tr></table></div></td></tr><tr><td style="font-weight:bold;vertical-align:top">models_to_run</td><td valign="top">:</td><td><div><table><tr><td><div>^\\w+\\.py$</div></td></tr><tr><td><div>^default/\\w+\\.py$</div></td></tr><tr><td><div>^default/upload/\\w+\\.py$</div></td></tr></table></div></td></tr><tr><td style="font-weight:bold;vertical-align:top">postprocessing</td><td valign="top">:</td><td><div><table></table></div></td></tr><tr><td style="font-weight:bold;vertical-align:top">session_cookie_expires</td><td valign="top">:</td><td><div>None</div></td></tr><tr><td style="font-weight:bold;vertical-align:top">session_data_name</td><td valign="top">:</td><td><div>session_data_projectlibrary</div></td></tr><tr><td style="font-weight:bold;vertical-align:top">session_file</td><td valign="top">:</td><td><div>&lt;open file &#x27;/home/kira/web2py/applications/projectlibrary/sessions/127.0.0.1-9e5f880a-7948-4501-b923-9ae2a9c43c63&#x27;, mode &#x27;rb+&#x27; at 0xaf1aa230&gt;</div></td></tr><tr><td style="font-weight:bold;vertical-align:top">session_filename</td><td valign="top">:</td><td><div>/home/kira/web2py/applications/projectlibrary/sessions/127.0.0.1-9e5f880a-7948-4501-b923-9ae2a9c43c63</div></td></tr><tr><td style="font-weight:bold;vertical-align:top">session_id</td><td valign="top">:</td><td><div>127.0.0.1-9e5f880a-7948-4501-b923-9ae2a9c43c63</div></td></tr><tr><td style="font-weight:bold;vertical-align:top">session_id_name</td><td valign="top">:</td><td><div>session_id_projectlibrary</div></td></tr><tr><td style="font-weight:bold;vertical-align:top">session_locked</td><td valign="top">:</td><td><div>True</div></td></tr><tr><td style="font-weight:bold;vertical-align:top">session_new</td><td valign="top">:</td><td><div>False</div></td></tr><tr><td style="font-weight:bold;vertical-align:top">session_storage_type</td><td valign="top">:</td><td><div>file</div></td></tr><tr><td style="font-weight:bold;vertical-align:top">status</td><td valign="top">:</td><td><div>200</div></td></tr><tr><td style="font-weight:bold;vertical-align:top">subtitle</td><td valign="top">:</td><td><div>customize me!</div></td></tr><tr><td style="font-weight:bold;vertical-align:top">title</td><td valign="top">:</td><td><div>Projectlibrary</div></td></tr><tr><td style="font-weight:bold;vertical-align:top">view</td><td valign="top">:</td><td><div>default/upload.html</div></td></tr></table></div>'
tRp346
sS'locals'
p347
(dp348
S'name'
p349
S"'Project_Name'"
p350
sS'self'
p351
S'<gluon.html.INPUT object>'
p352
sS'value'
p353
S"'first project'"
p354
sS'validator'
p355
g202
sS'request_vars_get'
p356
S'<built-in method get of Storage object>'
p357
sS'requires'
p358
S'[True]'
p359
sssS'traceback'
p360
S'Traceback (most recent call last):\n  File "/home/kira/web2py/gluon/restricted.py", line 212, in restricted\n    exec ccode in environment\n  File "/home/kira/web2py/applications/projectlibrary/controllers/default.py", line 138, in <module>\n  File "/home/kira/web2py/gluon/globals.py", line 193, in <lambda>\n    self._caller = lambda f: f()\n  File "/home/kira/web2py/applications/projectlibrary/controllers/default.py", line 83, in upload\n    if form.process().accepted:\n  File "/home/kira/web2py/gluon/html.py", line 2178, in process\n    self.validate(**kwargs)\n  File "/home/kira/web2py/gluon/html.py", line 2117, in validate\n    if self.accepts(**kwargs):\n  File "/home/kira/web2py/gluon/sqlhtml.py", line 1333, in accepts\n    **kwargs\n  File "/home/kira/web2py/gluon/html.py", line 2000, in accepts\n    status = self._traverse(status, hideerror)\n  File "/home/kira/web2py/gluon/html.py", line 846, in _traverse\n    newstatus = c._traverse(status, hideerror) and newstatus\n  File "/home/kira/web2py/gluon/html.py", line 846, in _traverse\n    newstatus = c._traverse(status, hideerror) and newstatus\n  File "/home/kira/web2py/gluon/html.py", line 846, in _traverse\n    newstatus = c._traverse(status, hideerror) and newstatus\n  File "/home/kira/web2py/gluon/html.py", line 846, in _traverse\n    newstatus = c._traverse(status, hideerror) and newstatus\n  File "/home/kira/web2py/gluon/html.py", line 853, in _traverse\n    newstatus = self._validate()\n  File "/home/kira/web2py/gluon/html.py", line 1749, in _validate\n    (value, errors) = validator(value)\nTypeError: \'bool\' object is not callable\n'
p361
s.