(dp1
S'output'
p2
S''
sS'layer'
p3
S'Framework'
p4
sS'code'
p5
S''
sS'snapshot'
p6
(dp7
S'exception'
p8
(dp9
S'__hash__'
p10
S"<method-wrapper '__hash__' of exceptions.NameError object>"
p11
sS'__setattr__'
p12
S"<method-wrapper '__setattr__' of exceptions.NameError object>"
p13
sS'__reduce_ex__'
p14
S'<built-in method __reduce_ex__ of exceptions.NameError object>'
p15
sS'__getslice__'
p16
S"<method-wrapper '__getslice__' of exceptions.NameError object>"
p17
sS'__getitem__'
p18
S"<method-wrapper '__getitem__' of exceptions.NameError object>"
p19
sS'__setstate__'
p20
S'<built-in method __setstate__ of exceptions.NameError object>'
p21
sS'__reduce__'
p22
S'<built-in method __reduce__ of exceptions.NameError object>'
p23
sS'__str__'
p24
S"<method-wrapper '__str__' of exceptions.NameError object>"
p25
sS'__format__'
p26
S'<built-in method __format__ of exceptions.NameError object>'
p27
sS'__getattribute__'
p28
S"<method-wrapper '__getattribute__' of exceptions.NameError object>"
p29
sS'__class__'
p30
S"<type 'exceptions.NameError'>"
p31
sS'__unicode__'
p32
S'<built-in method __unicode__ of exceptions.NameError object>'
p33
sS'__delattr__'
p34
S"<method-wrapper '__delattr__' of exceptions.NameError object>"
p35
sS'__subclasshook__'
p36
S'<built-in method __subclasshook__ of type object>'
p37
sS'__repr__'
p38
S"<method-wrapper '__repr__' of exceptions.NameError object>"
p39
sS'args'
p40
S'("name \'layout\' is not defined",)'
p41
sS'__dict__'
p42
S'{}'
p43
sS'__sizeof__'
p44
S'<built-in method __sizeof__ of exceptions.NameError object>'
p45
sS'__doc__'
p46
S"'Name not found globally.'"
p47
sS'__init__'
p48
S"<method-wrapper '__init__' of exceptions.NameError object>"
p49
sS'__new__'
p50
S'<built-in method __new__ of type object>'
p51
ssS'evalue'
p52
S"name 'layout' is not defined"
p53
sS'request'
p54
cgluon.html
XML_unpickle
p55
(S's\x1eZ\x00\x00<div><table><tr><td style="font-weight:bold;vertical-align:top">ajax</td><td valign="top">:</td><td><div>False</div></td></tr><tr><td style="font-weight:bold;vertical-align:top">application</td><td valign="top">:</td><td><div>projectlibrary</div></td></tr><tr><td style="font-weight:bold;vertical-align:top">args</td><td valign="top">:</td><td><div><table></table></div></td></tr><tr><td style="font-weight:bold;vertical-align:top">body</td><td valign="top">:</td><td><div>&lt;cStringIO.StringO object at 0xaeb396e0&gt;</div></td></tr><tr><td style="font-weight:bold;vertical-align:top">cid</td><td valign="top">:</td><td><div>None</div></td></tr><tr><td style="font-weight:bold;vertical-align:top">client</td><td valign="top">:</td><td><div>127.0.0.1</div></td></tr><tr><td style="font-weight:bold;vertical-align:top">controller</td><td valign="top">:</td><td><div>default</div></td></tr><tr><td style="font-weight:bold;vertical-align:top">cookies</td><td valign="top">:</td><td><div><table><tr><td style="font-weight:bold;vertical-align:top">session_id_201201091</td><td valign="top">:</td><td><div>127.0.0.1-8be00e08-5c4a-417a-b8ec-05ea606298de<table><tr><td style="font-weight:bold;vertical-align:top">comment</td><td valign="top">:</td><td><div></div></td></tr><tr><td style="font-weight:bold;vertical-align:top">domain</td><td valign="top">:</td><td><div></div></td></tr><tr><td style="font-weight:bold;vertical-align:top">expires</td><td valign="top">:</td><td><div></div></td></tr><tr><td style="font-weight:bold;vertical-align:top">httponly</td><td valign="top">:</td><td><div></div></td></tr><tr><td style="font-weight:bold;vertical-align:top">max-age</td><td valign="top">:</td><td><div></div></td></tr><tr><td style="font-weight:bold;vertical-align:top">path</td><td valign="top">:</td><td><div></div></td></tr><tr><td style="font-weight:bold;vertical-align:top">secure</td><td valign="top">:</td><td><div></div></td></tr><tr><td style="font-weight:bold;vertical-align:top">version</td><td valign="top">:</td><td><div></div></td></tr></table></div></td></tr><tr><td style="font-weight:bold;vertical-align:top">session_id_admin</td><td valign="top">:</td><td><div>127.0.0.1-608017b3-0c52-4941-9f56-63d56f2c9a88<table><tr><td style="font-weight:bold;vertical-align:top">comment</td><td valign="top">:</td><td><div></div></td></tr><tr><td style="font-weight:bold;vertical-align:top">domain</td><td valign="top">:</td><td><div></div></td></tr><tr><td style="font-weight:bold;vertical-align:top">expires</td><td valign="top">:</td><td><div></div></td></tr><tr><td style="font-weight:bold;vertical-align:top">httponly</td><td valign="top">:</td><td><div></div></td></tr><tr><td style="font-weight:bold;vertical-align:top">max-age</td><td valign="top">:</td><td><div></div></td></tr><tr><td style="font-weight:bold;vertical-align:top">path</td><td valign="top">:</td><td><div></div></td></tr><tr><td style="font-weight:bold;vertical-align:top">secure</td><td valign="top">:</td><td><div></div></td></tr><tr><td style="font-weight:bold;vertical-align:top">version</td><td valign="top">:</td><td><div></div></td></tr></table></div></td></tr><tr><td style="font-weight:bold;vertical-align:top">session_id_projectlibrary</td><td valign="top">:</td><td><div>127.0.0.1-4d787df0-e5a5-4a1e-a913-c8d65835d079<table><tr><td style="font-weight:bold;vertical-align:top">comment</td><td valign="top">:</td><td><div></div></td></tr><tr><td style="font-weight:bold;vertical-align:top">domain</td><td valign="top">:</td><td><div></div></td></tr><tr><td style="font-weight:bold;vertical-align:top">expires</td><td valign="top">:</td><td><div></div></td></tr><tr><td style="font-weight:bold;vertical-align:top">httponly</td><td valign="top">:</td><td><div></div></td></tr><tr><td style="font-weight:bold;vertical-align:top">max-age</td><td valign="top">:</td><td><div></div></td></tr><tr><td style="font-weight:bold;vertical-align:top">path</td><td valign="top">:</td><td><div></div></td></tr><tr><td style="font-weight:bold;vertical-align:top">secure</td><td valign="top">:</td><td><div></div></td></tr><tr><td style="font-weight:bold;vertical-align:top">version</td><td valign="top">:</td><td><div></div></td></tr></table></div></td></tr><tr><td style="font-weight:bold;vertical-align:top">session_id_welcome</td><td valign="top">:</td><td><div>127.0.0.1-3e3e3bd8-b51a-4b7c-9c75-ee140cd822e9<table><tr><td style="font-weight:bold;vertical-align:top">comment</td><td valign="top">:</td><td><div></div></td></tr><tr><td style="font-weight:bold;vertical-align:top">domain</td><td valign="top">:</td><td><div></div></td></tr><tr><td style="font-weight:bold;vertical-align:top">expires</td><td valign="top">:</td><td><div></div></td></tr><tr><td style="font-weight:bold;vertical-align:top">httponly</td><td valign="top">:</td><td><div></div></td></tr><tr><td style="font-weight:bold;vertical-align:top">max-age</td><td valign="top">:</td><td><div></div></td></tr><tr><td style="font-weight:bold;vertical-align:top">path</td><td valign="top">:</td><td><div></div></td></tr><tr><td style="font-weight:bold;vertical-align:top">secure</td><td valign="top">:</td><td><div></div></td></tr><tr><td style="font-weight:bold;vertical-align:top">version</td><td valign="top">:</td><td><div></div></td></tr></table></div></td></tr></table></div></td></tr><tr><td style="font-weight:bold;vertical-align:top">env</td><td valign="top">:</td><td><div><table><tr><td style="font-weight:bold;vertical-align:top">app_folders</td><td valign="top">:</td><td><div>set([&#x27;/home/kira/web2py/applications/examples/&#x27;, &#x27;/home/kira/web2py/applications/admin/&#x27;, &#x27;/home/kira/web2py/applications/welcome/&#x27;, &#x27;/home/kira/web2py/applications/projectlibrary/&#x27;])</div></td></tr><tr><td style="font-weight:bold;vertical-align:top">applications_parent</td><td valign="top">:</td><td><div>/home/kira/web2py</div></td></tr><tr><td style="font-weight:bold;vertical-align:top">cmd_args</td><td valign="top">:</td><td><div><table></table></div></td></tr><tr><td style="font-weight:bold;vertical-align:top">cmd_options</td><td valign="top">:</td><td><div>&lt;Values at 0x8d51f4c: {&#x27;verbose&#x27;: False, &#x27;ip&#x27;: &#x27;127.0.0.1&#x27;, &#x27;with_scheduler&#x27;: False, &#x27;ips&#x27;: [], &#x27;shutdown_timeout&#x27;: 5, &#x27;taskbar&#x27;: False, &#x27;port&#x27;: 8000, &#x27;maxthreads&#x27;: None, &#x27;softcron&#x27;: False, &#x27;server_name&#x27;: &#x27;kira-Ideapad-Z570&#x27;, &#x27;bpython&#x27;: False, &#x27;nogui&#x27;: False, &#x27;pid_filename&#x27;: &#x27;httpserver.pid&#x27;, &#x27;extcron&#x27;: False, &#x27;runcron&#x27;: False, &#x27;run_system_tests&#x27;: False, &#x27;test&#x27;: None, &#x27;folder&#x27;: &#x27;/home/kira/web2py&#x27;, &#x27;config&#x27;: &#x27;&#x27;, &#x27;import_models&#x27;: False, &#x27;winservice&#x27;: &#x27;&#x27;, &#x27;shell&#x27;: None, &#x27;run&#x27;: &#x27;&#x27;, &#x27;log_filename&#x27;: &#x27;httpserver.log&#x27;, &#x27;debuglevel&#x27;: 30, &#x27;args&#x27;: [&#x27;&#x27;], &#x27;socket_timeout&#x27;: 5, &#x27;ssl_ca_certificate&#x27;: None, &#x27;scheduler&#x27;: None, &#x27;profiler_filename&#x27;: None, &#x27;ssl_private_key&#x27;: &#x27;&#x27;, &#x27;scheduler_groups&#x27;: None, &#x27;password&#x27;: &#x27;project&#x27;, &#x27;request_queue_size&#x27;: 5, &#x27;ssl_certificate&#x27;: &#x27;&#x27;, &#x27;cronjob&#x27;: False, &#x27;numthreads&#x27;: None, &#x27;quiet&#x27;: False, &#x27;interfaces&#x27;: None, &#x27;minthreads&#x27;: None, &#x27;timeout&#x27;: 10, &#x27;plain&#x27;: False, &#x27;nobanner&#x27;: False}&gt;</div></td></tr><tr><td style="font-weight:bold;vertical-align:top">db_sessions</td><td valign="top">:</td><td><div>set([])</div></td></tr><tr><td style="font-weight:bold;vertical-align:top">debugging</td><td valign="top">:</td><td><div>False</div></td></tr><tr><td style="font-weight:bold;vertical-align:top">gluon_parent</td><td valign="top">:</td><td><div>/home/kira/web2py</div></td></tr><tr><td style="font-weight:bold;vertical-align:top">http_accept</td><td valign="top">:</td><td><div>text/html,application/xhtml+xml,application/xml;q=0.9,*/*;q=0.8</div></td></tr><tr><td style="font-weight:bold;vertical-align:top">http_accept_encoding</td><td valign="top">:</td><td><div>gzip, deflate</div></td></tr><tr><td style="font-weight:bold;vertical-align:top">http_accept_language</td><td valign="top">:</td><td><div>en-us,en;q=0.5</div></td></tr><tr><td style="font-weight:bold;vertical-align:top">http_connection</td><td valign="top">:</td><td><div>keep-alive</div></td></tr><tr><td style="font-weight:bold;vertical-align:top">http_cookie</td><td valign="top">:</td><td><div>session_id_welcome=127.0.0.1-3e3e3bd8-b51a-4b7c-9c75-ee140cd822e9; session_id_201201091=127.0.0.1-8be00e08-5c4a-417a-b8ec-05ea606298de; session_id_projectlibrary=127.0.0.1-4d787df0-e5a5-4a1e-a913-c8d65835d079; session_id_admin=127.0.0.1-608017b3-0c52-4941-9f56-63d56f2c9a88</div></td></tr><tr><td style="font-weight:bold;vertical-align:top">http_host</td><td valign="top">:</td><td><div>127.0.0.1:8000</div></td></tr><tr><td style="font-weight:bold;vertical-align:top">http_referer</td><td valign="top">:</td><td><div>http://127.0.0.1:8000/admin/default/design/projectlibrary</div></td></tr><tr><td style="font-weight:bold;vertical-align:top">http_user_agent</td><td valign="top">:</td><td><div>Mozilla/5.0 (X11; Ubuntu; Linux i686; rv:11.0) Gecko/20100101 Firefox/11.0</div></td></tr><tr><td style="font-weight:bold;vertical-align:top">is_jython</td><td valign="top">:</td><td><div>False</div></td></tr><tr><td style="font-weight:bold;vertical-align:top">is_pypy</td><td valign="top">:</td><td><div>False</div></td></tr><tr><td style="font-weight:bold;vertical-align:top">local_hosts</td><td valign="top">:</td><td><div><table><tr><td><div>kira-Ideapad-Z570</div></td></tr><tr><td><div>::1</div></td></tr><tr><td><div>127.0.1.1</div></td></tr><tr><td><div>::ffff:127.0.0.1</div></td></tr><tr><td><div>127.0.0.1</div></td></tr></table></div></td></tr><tr><td style="font-weight:bold;vertical-align:top">path_info</td><td valign="top">:</td><td><div>/projectlibrary/default/register_func</div></td></tr><tr><td style="font-weight:bold;vertical-align:top">query_string</td><td valign="top">:</td><td><div></div></td></tr><tr><td style="font-weight:bold;vertical-align:top">remote_addr</td><td valign="top">:</td><td><div>127.0.0.1</div></td></tr><tr><td style="font-weight:bold;vertical-align:top">remote_port</td><td valign="top">:</td><td><div>50046</div></td></tr><tr><td style="font-weight:bold;vertical-align:top">request_method</td><td valign="top">:</td><td><div>GET</div></td></tr><tr><td style="font-weight:bold;vertical-align:top">request_uri</td><td valign="top">:</td><td><div>/projectlibrary/default/register_func</div></td></tr><tr><td style="font-weight:bold;vertical-align:top">script_name</td><td valign="top">:</td><td><div></div></td></tr><tr><td style="font-weight:bold;vertical-align:top">server_name</td><td valign="top">:</td><td><div>kira-Ideapad-Z570</div></td></tr><tr><td style="font-weight:bold;vertical-align:top">server_port</td><td valign="top">:</td><td><div>8000</div></td></tr><tr><td style="font-weight:bold;vertical-align:top">server_protocol</td><td valign="top">:</td><td><div>HTTP/1.1</div></td></tr><tr><td style="font-weight:bold;vertical-align:top">server_software</td><td valign="top">:</td><td><div>Rocket 1.2.6</div></td></tr><tr><td style="font-weight:bold;vertical-align:top">web2py_path</td><td valign="top">:</td><td><div>/home/kira/web2py</div></td></tr><tr><td style="font-weight:bold;vertical-align:top">web2py_version</td><td valign="top">:</td><td><div><table><tr><td><div>2</div></td></tr><tr><td><div>4</div></td></tr><tr><td><div>2</div></td></tr><tr><td><div>stable</div></td></tr><tr><td><div>datetime.datetime(2013, 3, 4, 3, 26, 21)</div></td></tr></table></div></td></tr><tr><td style="font-weight:bold;vertical-align:top">wsgi_errors</td><td valign="top">:</td><td><div>&lt;open file &#x27;&lt;stderr&gt;&#x27;, mode &#x27;w&#x27; at 0xb73090d0&gt;</div></td></tr><tr><td style="font-weight:bold;vertical-align:top">wsgi_file_wrapper</td><td valign="top">:</td><td><div>&lt;class wsgiref.util.FileWrapper at 0x8cdebfc&gt;</div></td></tr><tr><td style="font-weight:bold;vertical-align:top">wsgi_input</td><td valign="top">:</td><td><div>&lt;socket._fileobject object at 0xae7be02c&gt;</div></td></tr><tr><td style="font-weight:bold;vertical-align:top">wsgi_multiprocess</td><td valign="top">:</td><td><div>False</div></td></tr><tr><td style="font-weight:bold;vertical-align:top">wsgi_multithread</td><td valign="top">:</td><td><div>True</div></td></tr><tr><td style="font-weight:bold;vertical-align:top">wsgi_run_once</td><td valign="top">:</td><td><div>False</div></td></tr><tr><td style="font-weight:bold;vertical-align:top">wsgi_url_scheme</td><td valign="top">:</td><td><div>http</div></td></tr><tr><td style="font-weight:bold;vertical-align:top">wsgi_version</td><td valign="top">:</td><td><div><table><tr><td><div>1</div></td></tr><tr><td><div>0</div></td></tr></table></div></td></tr></table></div></td></tr><tr><td style="font-weight:bold;vertical-align:top">extension</td><td valign="top">:</td><td><div>html</div></td></tr><tr><td style="font-weight:bold;vertical-align:top">folder</td><td valign="top">:</td><td><div>/home/kira/web2py/applications/projectlibrary/</div></td></tr><tr><td style="font-weight:bold;vertical-align:top">function</td><td valign="top">:</td><td><div>register_func</div></td></tr><tr><td style="font-weight:bold;vertical-align:top">get_vars</td><td valign="top">:</td><td><div><table></table></div></td></tr><tr><td style="font-weight:bold;vertical-align:top">global_settings</td><td valign="top">:</td><td><div><table><tr><td style="font-weight:bold;vertical-align:top">app_folders</td><td valign="top">:</td><td><div>set([&#x27;/home/kira/web2py/applications/examples/&#x27;, &#x27;/home/kira/web2py/applications/admin/&#x27;, &#x27;/home/kira/web2py/applications/welcome/&#x27;, &#x27;/home/kira/web2py/applications/projectlibrary/&#x27;])</div></td></tr><tr><td style="font-weight:bold;vertical-align:top">applications_parent</td><td valign="top">:</td><td><div>/home/kira/web2py</div></td></tr><tr><td style="font-weight:bold;vertical-align:top">cmd_args</td><td valign="top">:</td><td><div><table></table></div></td></tr><tr><td style="font-weight:bold;vertical-align:top">cmd_options</td><td valign="top">:</td><td><div>&lt;Values at 0x8d51f4c: {&#x27;verbose&#x27;: False, &#x27;ip&#x27;: &#x27;127.0.0.1&#x27;, &#x27;with_scheduler&#x27;: False, &#x27;ips&#x27;: [], &#x27;shutdown_timeout&#x27;: 5, &#x27;taskbar&#x27;: False, &#x27;port&#x27;: 8000, &#x27;maxthreads&#x27;: None, &#x27;softcron&#x27;: False, &#x27;server_name&#x27;: &#x27;kira-Ideapad-Z570&#x27;, &#x27;bpython&#x27;: False, &#x27;nogui&#x27;: False, &#x27;pid_filename&#x27;: &#x27;httpserver.pid&#x27;, &#x27;extcron&#x27;: False, &#x27;runcron&#x27;: False, &#x27;run_system_tests&#x27;: False, &#x27;test&#x27;: None, &#x27;folder&#x27;: &#x27;/home/kira/web2py&#x27;, &#x27;config&#x27;: &#x27;&#x27;, &#x27;import_models&#x27;: False, &#x27;winservice&#x27;: &#x27;&#x27;, &#x27;shell&#x27;: None, &#x27;run&#x27;: &#x27;&#x27;, &#x27;log_filename&#x27;: &#x27;httpserver.log&#x27;, &#x27;debuglevel&#x27;: 30, &#x27;args&#x27;: [&#x27;&#x27;], &#x27;socket_timeout&#x27;: 5, &#x27;ssl_ca_certificate&#x27;: None, &#x27;scheduler&#x27;: None, &#x27;profiler_filename&#x27;: None, &#x27;ssl_private_key&#x27;: &#x27;&#x27;, &#x27;scheduler_groups&#x27;: None, &#x27;password&#x27;: &#x27;project&#x27;, &#x27;request_queue_size&#x27;: 5, &#x27;ssl_certificate&#x27;: &#x27;&#x27;, &#x27;cronjob&#x27;: False, &#x27;numthreads&#x27;: None, &#x27;quiet&#x27;: False, &#x27;interfaces&#x27;: None, &#x27;minthreads&#x27;: None, &#x27;timeout&#x27;: 10, &#x27;plain&#x27;: False, &#x27;nobanner&#x27;: False}&gt;</div></td></tr><tr><td style="font-weight:bold;vertical-align:top">db_sessions</td><td valign="top">:</td><td><div>set([])</div></td></tr><tr><td style="font-weight:bold;vertical-align:top">debugging</td><td valign="top">:</td><td><div>False</div></td></tr><tr><td style="font-weight:bold;vertical-align:top">gluon_parent</td><td valign="top">:</td><td><div>/home/kira/web2py</div></td></tr><tr><td style="font-weight:bold;vertical-align:top">is_jython</td><td valign="top">:</td><td><div>False</div></td></tr><tr><td style="font-weight:bold;vertical-align:top">is_pypy</td><td valign="top">:</td><td><div>False</div></td></tr><tr><td style="font-weight:bold;vertical-align:top">local_hosts</td><td valign="top">:</td><td><div><table><tr><td><div>kira-Ideapad-Z570</div></td></tr><tr><td><div>::1</div></td></tr><tr><td><div>127.0.1.1</div></td></tr><tr><td><div>::ffff:127.0.0.1</div></td></tr><tr><td><div>127.0.0.1</div></td></tr></table></div></td></tr><tr><td style="font-weight:bold;vertical-align:top">web2py_version</td><td valign="top">:</td><td><div><table><tr><td><div>2</div></td></tr><tr><td><div>4</div></td></tr><tr><td><div>2</div></td></tr><tr><td><div>stable</div></td></tr><tr><td><div>datetime.datetime(2013, 3, 4, 3, 26, 21)</div></td></tr></table></div></td></tr></table></div></td></tr><tr><td style="font-weight:bold;vertical-align:top">is_https</td><td valign="top">:</td><td><div>False</div></td></tr><tr><td style="font-weight:bold;vertical-align:top">is_local</td><td valign="top">:</td><td><div>True</div></td></tr><tr><td style="font-weight:bold;vertical-align:top">is_restful</td><td valign="top">:</td><td><div>False</div></td></tr><tr><td style="font-weight:bold;vertical-align:top">now</td><td valign="top">:</td><td><div>datetime.datetime(2013, 3, 24, 18, 46, 35, 530430)</div></td></tr><tr><td style="font-weight:bold;vertical-align:top">post_vars</td><td valign="top">:</td><td><div><table></table></div></td></tr><tr><td style="font-weight:bold;vertical-align:top">raw_args</td><td valign="top">:</td><td><div></div></td></tr><tr><td style="font-weight:bold;vertical-align:top">raw_extension</td><td valign="top">:</td><td><div>None</div></td></tr><tr><td style="font-weight:bold;vertical-align:top">url</td><td valign="top">:</td><td><div>/projectlibrary/default/register_func</div></td></tr><tr><td style="font-weight:bold;vertical-align:top">utcnow</td><td valign="top">:</td><td><div>datetime.datetime(2013, 3, 24, 13, 16, 35, 530489)</div></td></tr><tr><td style="font-weight:bold;vertical-align:top">uuid</td><td valign="top">:</td><td><div>projectlibrary/127.0.0.1.2013-03-24.18-46-35.eff75b73-c36d-4575-8487-25664012c979</div></td></tr><tr><td style="font-weight:bold;vertical-align:top">vars</td><td valign="top">:</td><td><div><table></table></div></td></tr><tr><td style="font-weight:bold;vertical-align:top">wsgi</td><td valign="top">:</td><td><div><table><tr><td style="font-weight:bold;vertical-align:top">environ</td><td valign="top">:</td><td><div><table><tr><td style="font-weight:bold;vertical-align:top">HTTP_ACCEPT</td><td valign="top">:</td><td><div>text/html,application/xhtml+xml,application/xml;q=0.9,*/*;q=0.8</div></td></tr><tr><td style="font-weight:bold;vertical-align:top">HTTP_ACCEPT_ENCODING</td><td valign="top">:</td><td><div>gzip, deflate</div></td></tr><tr><td style="font-weight:bold;vertical-align:top">HTTP_ACCEPT_LANGUAGE</td><td valign="top">:</td><td><div>en-us,en;q=0.5</div></td></tr><tr><td style="font-weight:bold;vertical-align:top">HTTP_CONNECTION</td><td valign="top">:</td><td><div>keep-alive</div></td></tr><tr><td style="font-weight:bold;vertical-align:top">HTTP_COOKIE</td><td valign="top">:</td><td><div>session_id_welcome=127.0.0.1-3e3e3bd8-b51a-4b7c-9c75-ee140cd822e9; session_id_201201091=127.0.0.1-8be00e08-5c4a-417a-b8ec-05ea606298de; session_id_projectlibrary=127.0.0.1-4d787df0-e5a5-4a1e-a913-c8d65835d079; session_id_admin=127.0.0.1-608017b3-0c52-4941-9f56-63d56f2c9a88</div></td></tr><tr><td style="font-weight:bold;vertical-align:top">HTTP_HOST</td><td valign="top">:</td><td><div>127.0.0.1:8000</div></td></tr><tr><td style="font-weight:bold;vertical-align:top">HTTP_REFERER</td><td valign="top">:</td><td><div>http://127.0.0.1:8000/admin/default/design/projectlibrary</div></td></tr><tr><td style="font-weight:bold;vertical-align:top">HTTP_USER_AGENT</td><td valign="top">:</td><td><div>Mozilla/5.0 (X11; Ubuntu; Linux i686; rv:11.0) Gecko/20100101 Firefox/11.0</div></td></tr><tr><td style="font-weight:bold;vertical-align:top">PATH_INFO</td><td valign="top">:</td><td><div>/projectlibrary/default/register_func</div></td></tr><tr><td style="font-weight:bold;vertical-align:top">QUERY_STRING</td><td valign="top">:</td><td><div></div></td></tr><tr><td style="font-weight:bold;vertical-align:top">REMOTE_ADDR</td><td valign="top">:</td><td><div>127.0.0.1</div></td></tr><tr><td style="font-weight:bold;vertical-align:top">REMOTE_PORT</td><td valign="top">:</td><td><div>50046</div></td></tr><tr><td style="font-weight:bold;vertical-align:top">REQUEST_METHOD</td><td valign="top">:</td><td><div>GET</div></td></tr><tr><td style="font-weight:bold;vertical-align:top">REQUEST_URI</td><td valign="top">:</td><td><div>/projectlibrary/default/register_func</div></td></tr><tr><td style="font-weight:bold;vertical-align:top">SCRIPT_NAME</td><td valign="top">:</td><td><div></div></td></tr><tr><td style="font-weight:bold;vertical-align:top">SERVER_NAME</td><td valign="top">:</td><td><div>kira-Ideapad-Z570</div></td></tr><tr><td style="font-weight:bold;vertical-align:top">SERVER_PORT</td><td valign="top">:</td><td><div>8000</div></td></tr><tr><td style="font-weight:bold;vertical-align:top">SERVER_PROTOCOL</td><td valign="top">:</td><td><div>HTTP/1.1</div></td></tr><tr><td style="font-weight:bold;vertical-align:top">SERVER_SOFTWARE</td><td valign="top">:</td><td><div>Rocket 1.2.6</div></td></tr><tr><td style="font-weight:bold;vertical-align:top">wsgi.errors</td><td valign="top">:</td><td><div>&lt;open file &#x27;&lt;stderr&gt;&#x27;, mode &#x27;w&#x27; at 0xb73090d0&gt;</div></td></tr><tr><td style="font-weight:bold;vertical-align:top">wsgi.file_wrapper</td><td valign="top">:</td><td><div>&lt;class wsgiref.util.FileWrapper at 0x8cdebfc&gt;</div></td></tr><tr><td style="font-weight:bold;vertical-align:top">wsgi.input</td><td valign="top">:</td><td><div>&lt;cStringIO.StringO object at 0xaeb396e0&gt;</div></td></tr><tr><td style="font-weight:bold;vertical-align:top">wsgi.multiprocess</td><td valign="top">:</td><td><div>False</div></td></tr><tr><td style="font-weight:bold;vertical-align:top">wsgi.multithread</td><td valign="top">:</td><td><div>True</div></td></tr><tr><td style="font-weight:bold;vertical-align:top">wsgi.run_once</td><td valign="top">:</td><td><div>False</div></td></tr><tr><td style="font-weight:bold;vertical-align:top">wsgi.url_scheme</td><td valign="top">:</td><td><div>http</div></td></tr><tr><td style="font-weight:bold;vertical-align:top">wsgi.version</td><td valign="top">:</td><td><div>1</div></td></tr></table></div></td></tr></table></div></td></tr></table></div>'
tRp56
sS'frames'
p57
(lp58
(dp59
S'file'
p60
S'/home/kira/web2py/gluon/main.py'
p61
sS'dump'
p62
(dp63
S'global serve_controller'
p64
S'<function serve_controller>'
p65
sS'session'
p66
S"<Storage {'last_query': 'db.project.id>0', '_for...ssion_hash': '76100c6b6436220844eb8c084d8b195b'}>"
p67
sS'request'
p68
S"<Storage {'function': 'register_func', 'body': <...ons/projectlibrary/', 'post_vars': <Storage {}>}>"
p69
sS'response'
p70
S"<Storage {'body': <cStringIO.StringO object at 0...af45d41c>, 'view': 'default/register_func.html'}>"
p71
ssS'lnum'
p72
I544
sS'lines'
p73
(dp74
I544
S'                serve_controller(request, response, session)'
p75
sI545
S''
sI546
S'            except HTTP, http_response:'
p76
sI547
S''
sI548
S'                if static_file:'
p77
sI539
S'                if global_settings.debugging and app != "admin":'
p78
sI540
S'                    import gluon.debug'
p79
sI541
S'                    # activate the debugger'
p80
sI542
S'                    gluon.debug.dbg.do_debug(mainpyfile=request.folder)'
p81
sI543
S''
ssS'call'
p82
S"(environ={'HTTP_ACCEPT': 'text/html,application/xhtml+xml,application/xml;q=0.9,*/*;q=0.8', 'HTTP_ACCEPT_ENCODING': 'gzip, deflate', 'HTTP_ACCEPT_LANGUAGE': 'en-us,en;q=0.5', 'HTTP_CONNECTION': 'keep-alive', 'HTTP_COOKIE': 'session_id_welcome=127.0.0.1-3e3e3bd8-b51a-4b7c-...in=127.0.0.1-608017b3-0c52-4941-9f56-63d56f2c9a88', 'HTTP_HOST': '127.0.0.1:8000', 'HTTP_REFERER': 'http://127.0.0.1:8000/admin/default/design/projectlibrary', 'HTTP_USER_AGENT': 'Mozilla/5.0 (X11; Ubuntu; Linux i686; rv:11.0) Gecko/20100101 Firefox/11.0', 'PATH_INFO': '/projectlibrary/default/register_func', 'QUERY_STRING': '', ...}, responder=<function responder2>)"
p83
sS'func'
p84
S'wsgibase'
p85
sa(dp86
g60
S'/home/kira/web2py/gluon/main.py'
p87
sg62
(dp88
S'response._view_environment'
p89
S"{'A': <class 'gluon.html.A'>, 'Auth': <class 'gluon.tools.Auth'>, 'B': <class 'gluon.html.B'>, 'BEAUTIFY': <class 'gluon.html.BEAUTIFY'>, 'BODY': <class 'gluon.html.BODY'>, 'BR': <class 'gluon.html.BR'>, 'BUTTON': <class 'gluon.html.BUTTON'>, 'CAT': <class 'gluon.html.CAT'>, 'CENTER': <class 'gluon.html.CENTER'>, 'CLEANUP': <class 'gluon.validators.CLEANUP'>, ...}"
p90
sS'response'
p91
S"<Storage {'body': <cStringIO.StringO object at 0...af45d41c>, 'view': 'default/register_func.html'}>"
p92
sS'global run_view_in'
p93
S'<function run_view_in>'
p94
ssg72
I228
sg73
(dp95
I224
S'    page = run_controller_in(request.controller, request.function, environment)'
p96
sI225
S'    if isinstance(page, dict):'
p97
sI226
S'        response._vars = page'
p98
sI227
S'        response._view_environment.update(page)'
p99
sI228
S'        run_view_in(response._view_environment)'
p100
sI229
S'        page = response.body.getvalue()'
p101
sI230
S'    # logic to garbage collect after exec, not always, once every 100 requests'
p102
sI231
S'    global requests'
p103
sI232
S"    requests = ('requests' in globals()) and (requests + 1) % 100 or 0"
p104
sI223
S'    response._view_environment = copy.copy(environment)'
p105
ssg82
S"(request=<Storage {'function': 'register_func', 'body': <...ons/projectlibrary/', 'post_vars': <Storage {}>}>, response=<Storage {'body': <cStringIO.StringO object at 0...af45d41c>, 'view': 'default/register_func.html'}>, session=<Storage {'last_query': 'db.project.id>0', '_for...ssion_hash': '76100c6b6436220844eb8c084d8b195b'}>)"
p106
sg84
S'serve_controller'
p107
sa(dp108
g60
S'/home/kira/web2py/gluon/compileapp.py'
p109
sg62
(dp110
S'environment'
p111
S"{'A': <class 'gluon.html.A'>, 'Auth': <class 'gluon.tools.Auth'>, 'B': <class 'gluon.html.B'>, 'BEAUTIFY': <class 'gluon.html.BEAUTIFY'>, 'BODY': <class 'gluon.html.BODY'>, 'BR': <class 'gluon.html.BR'>, 'BUTTON': <class 'gluon.html.BUTTON'>, 'CAT': <class 'gluon.html.CAT'>, 'CENTER': <class 'gluon.html.CENTER'>, 'CLEANUP': <class 'gluon.validators.CLEANUP'>, ...}"
p112
sS'context'
p113
S'undefined'
p114
ssg72
I672
sg73
(dp115
I672
S'                                   context=environment)'
p116
sI673
S'        restricted(ccode, environment, layer)'
p117
sI674
S''
sI675
S''
sI676
S'def remove_compiled_application(folder):'
p118
sI667
S"                                            pjoin(folder, 'views'),"
p119
sI668
S'                                            context=environment), layer))'
p120
sI669
S'        else:'
p121
sI670
S'            ccode = parse_template(view,'
p122
sI671
S"                                   pjoin(folder, 'views'),"
p123
ssg82
S"(environment={'A': <class 'gluon.html.A'>, 'Auth': <class 'gluon.tools.Auth'>, 'B': <class 'gluon.html.B'>, 'BEAUTIFY': <class 'gluon.html.BEAUTIFY'>, 'BODY': <class 'gluon.html.BODY'>, 'BR': <class 'gluon.html.BR'>, 'BUTTON': <class 'gluon.html.BUTTON'>, 'CAT': <class 'gluon.html.CAT'>, 'CENTER': <class 'gluon.html.CENTER'>, 'CLEANUP': <class 'gluon.validators.CLEANUP'>, ...})"
p124
sg84
S'run_view_in'
p125
sa(dp126
g60
S'/home/kira/web2py/gluon/template.py'
p127
sg62
(dp128
S'builtinstr'
p129
S"<type 'str'>"
p130
sS'global TemplateParser'
p131
S"<class 'gluon.template.TemplateParser'>"
p132
sS'delimiters'
p133
S"('{{', '}}')"
p134
sS'context'
p135
S"{'A': <class 'gluon.html.A'>, 'Auth': <class 'gluon.tools.Auth'>, 'B': <class 'gluon.html.B'>, 'BEAUTIFY': <class 'gluon.html.BEAUTIFY'>, 'BODY': <class 'gluon.html.BODY'>, 'BR': <class 'gluon.html.BR'>, 'BUTTON': <class 'gluon.html.BUTTON'>, 'CAT': <class 'gluon.html.CAT'>, 'CENTER': <class 'gluon.html.CENTER'>, 'CLEANUP': <class 'gluon.validators.CLEANUP'>, ...}"
p136
sS'text'
p137
S"'{{extend layout.html}}\\n{{=a}}\\n'"
p138
sS'path'
p139
S"'/home/kira/web2py/applications/projectlibrary/views'"
p140
sS'lexers'
p141
g43
ssg72
I785
sg73
(dp142
I780
S"            raise RestrictedError(filename, '', 'Unable to find the file')"
p143
sI781
S'    else:'
p144
sI782
S'        text = filename.read()'
p145
sI783
S''
sI784
S'    # Use the file contents to get a parsed template and return it.'
p146
sI785
S'    return str(TemplateParser(text, context=context, path=path, lexers=lexers, delimiters=delimiters))'
p147
sI786
S''
sI787
S''
sI788
S'def get_parsed(text):'
p148
sI789
S'    """'
p149
ssg82
S"(filename='default/register_func.html', path='/home/kira/web2py/applications/projectlibrary/views', context={'A': <class 'gluon.html.A'>, 'Auth': <class 'gluon.tools.Auth'>, 'B': <class 'gluon.html.B'>, 'BEAUTIFY': <class 'gluon.html.BEAUTIFY'>, 'BODY': <class 'gluon.html.BODY'>, 'BR': <class 'gluon.html.BR'>, 'BUTTON': <class 'gluon.html.BUTTON'>, 'CAT': <class 'gluon.html.CAT'>, 'CENTER': <class 'gluon.html.CENTER'>, 'CLEANUP': <class 'gluon.validators.CLEANUP'>, ...}, lexers={}, delimiters=('{{', '}}'))"
p150
sg84
S'parse_template'
p151
sa(dp152
g60
S'/home/kira/web2py/gluon/template.py'
p153
sg62
(dp154
S'text'
p155
S"'{{extend layout.html}}\\n{{=a}}\\n'"
p156
sS'self'
p157
S'<gluon.template.TemplateParser object>'
p158
sS'self.parse'
p159
S'<bound method TemplateParser.parse of <gluon.template.TemplateParser object>>'
p160
ssg72
I316
sg73
(dp161
I320
S'        Return the parsed template with correct indentation.'
p162
sI311
S'        # This variable will hold a reference to every block'
p163
sI312
S'        # that we come across in this template'
p164
sI313
S'        self.blocks = {}'
p165
sI314
S''
sI315
S'        # Begin parsing.'
p166
sI316
S'        self.parse(text)'
p167
sI317
S''
sI318
S'    def to_string(self):'
p168
sI319
S'        """'
p169
ssg82
S"(self=<gluon.template.TemplateParser object>, text='{{extend layout.html}}\\n{{=a}}\\n', name='ParserContainer', context={'A': <class 'gluon.html.A'>, 'Auth': <class 'gluon.tools.Auth'>, 'B': <class 'gluon.html.B'>, 'BEAUTIFY': <class 'gluon.html.BEAUTIFY'>, 'BODY': <class 'gluon.html.BODY'>, 'BR': <class 'gluon.html.BR'>, 'BUTTON': <class 'gluon.html.BUTTON'>, 'CAT': <class 'gluon.html.CAT'>, 'CENTER': <class 'gluon.html.CENTER'>, 'CLEANUP': <class 'gluon.validators.CLEANUP'>, ...}, path='/home/kira/web2py/applications/projectlibrary/views', writer='response.write', lexers={}, delimiters=('{{', '}}'), _super_nodes=[])"
p170
sg84
g48
sa(dp171
g60
S'/home/kira/web2py/gluon/template.py'
p172
sg62
(dp173
S'self'
p174
S'<gluon.template.TemplateParser object>'
p175
sS'extend'
p176
S"'layout.html'"
p177
sS'self.extend'
p178
S'<bound method TemplateParser.extend of <gluon.template.TemplateParser object>>'
p179
ssg72
I756
sg73
(dp180
I751
S'            # Sometimes I miss C-Style pointers... I want my asterisk...'
p181
sI752
S'            self.child_super_nodes.remove(node)'
p182
sI753
S''
sI754
S'        # If we need to extend a template.'
p183
sI755
S'        if extend:'
p184
sI756
S'            self.extend(extend)'
p185
sI757
S''
sI758
S'# We need this for integration with gluon'
p186
sI759
S''
sI760
S''
ssg82
S"(self=<gluon.template.TemplateParser object>, text='{{extend layout.html}}\\n{{=a}}\\n')"
p187
sg84
S'parse'
p188
sa(dp189
g60
S'/home/kira/web2py/gluon/template.py'
p190
sg62
(dp191
S'text'
p192
g114
sS'self'
p193
S'<gluon.template.TemplateParser object>'
p194
sS'self._get_file_text'
p195
S'<bound method TemplateParser._get_file_text of <gluon.template.TemplateParser object>>'
p196
sS'filename'
p197
S"'layout.html'"
p198
ssg72
I471
sg73
(dp199
I466
S'    def extend(self, filename):'
p200
sI467
S'        """'
p201
sI468
S'        Extend ``filename``. Anything not declared in a block defined by the'
p202
sI469
S'        parent will be placed in the parent templates ``{{include}}`` block.'
p203
sI470
S'        """'
p204
sI471
S'        text = self._get_file_text(filename)'
p205
sI472
S''
sI473
S'        # Create out nodes list to send to the parent'
p206
sI474
S'        super_nodes = []'
p207
sI475
S'        # We want to include any non-handled nodes.'
p208
ssg82
S"(self=<gluon.template.TemplateParser object>, filename='layout.html')"
p209
sg84
S'extend'
p210
sa(dp211
g60
S'/home/kira/web2py/gluon/template.py'
p212
sg62
(dp213
S'builtineval'
p214
S'<built-in function eval>'
p215
sS'context'
p216
S"{'A': <class 'gluon.html.A'>, 'Auth': <class 'gluon.tools.Auth'>, 'B': <class 'gluon.html.B'>, 'BEAUTIFY': <class 'gluon.html.BEAUTIFY'>, 'BODY': <class 'gluon.html.BODY'>, 'BR': <class 'gluon.html.BR'>, 'BUTTON': <class 'gluon.html.BUTTON'>, 'CAT': <class 'gluon.html.CAT'>, 'CENTER': <class 'gluon.html.CENTER'>, 'CLEANUP': <class 'gluon.validators.CLEANUP'>, ...}"
p217
sS'filename'
p218
S"'layout.html'"
p219
ssg72
I436
sg73
(dp220
I431
S'        if current and not "response" in context:'
p221
sI432
S'            context["response"] = getattr(current, \'response\', None)'
p222
sI433
S''
sI434
S'        # Get the filename; filename looks like ``"template.html"``.'
p223
sI435
S'        # We need to eval to remove the quotes and get the string type.'
p224
sI436
S'        filename = eval(filename, context)'
p225
sI437
S''
sI438
S'        # Get the path of the file on the system.'
p226
sI439
S'        filepath = self.path and os.path.join(self.path, filename) or filename'
p227
sI440
S''
ssg82
S"(self=<gluon.template.TemplateParser object>, filename='layout.html')"
p228
sg84
S'_get_file_text'
p229
sa(dp230
g60
S'/home/kira/web2py/<string>'
p231
sg62
(dp232
sg72
I1
sg73
(dp233
sg82
S'()'
p234
sg84
S'<module>'
p235
sasS'pyver'
p236
S'Python 2.7.3: /usr/bin/python (prefix: /usr)'
p237
sS'session'
p238
g55
(S's\x18\x01\x00\x00<div><table><tr><td style="font-weight:bold;vertical-align:top">last_orderby</td><td valign="top">:</td><td><div>None</div></td></tr><tr><td style="font-weight:bold;vertical-align:top">last_query</td><td valign="top">:</td><td><div>db.project.id&gt;0</div></td></tr></table></div>'
tRp239
sS'etype'
p240
S"<type 'exceptions.NameError'>"
p241
sS'date'
p242
S'Sun Mar 24 18:46:35 2013'
p243
sS'response'
p244
g55
(S's\x1c-\x00\x00<div><table><tr><td style="font-weight:bold;vertical-align:top">body</td><td valign="top">:</td><td><div>&lt;cStringIO.StringO object at 0xaeb399c0&gt;</div></td></tr><tr><td style="font-weight:bold;vertical-align:top">cookies</td><td valign="top">:</td><td><div><table><tr><td style="font-weight:bold;vertical-align:top">session_id_projectlibrary</td><td valign="top">:</td><td><div>127.0.0.1-4d787df0-e5a5-4a1e-a913-c8d65835d079<table><tr><td style="font-weight:bold;vertical-align:top">comment</td><td valign="top">:</td><td><div></div></td></tr><tr><td style="font-weight:bold;vertical-align:top">domain</td><td valign="top">:</td><td><div></div></td></tr><tr><td style="font-weight:bold;vertical-align:top">expires</td><td valign="top">:</td><td><div></div></td></tr><tr><td style="font-weight:bold;vertical-align:top">httponly</td><td valign="top">:</td><td><div></div></td></tr><tr><td style="font-weight:bold;vertical-align:top">max-age</td><td valign="top">:</td><td><div></div></td></tr><tr><td style="font-weight:bold;vertical-align:top">path</td><td valign="top">:</td><td><div>/</div></td></tr><tr><td style="font-weight:bold;vertical-align:top">secure</td><td valign="top">:</td><td><div></div></td></tr><tr><td style="font-weight:bold;vertical-align:top">version</td><td valign="top">:</td><td><div></div></td></tr></table></div></td></tr></table></div></td></tr><tr><td style="font-weight:bold;vertical-align:top">delimiters</td><td valign="top">:</td><td><div><table><tr><td><div>{{</div></td></tr><tr><td><div>}}</div></td></tr></table></div></td></tr><tr><td style="font-weight:bold;vertical-align:top">files</td><td valign="top">:</td><td><div><table></table></div></td></tr><tr><td style="font-weight:bold;vertical-align:top">flash</td><td valign="top">:</td><td><div></div></td></tr><tr><td style="font-weight:bold;vertical-align:top">generic_patterns</td><td valign="top">:</td><td><div><table><tr><td><div>*</div></td></tr></table></div></td></tr><tr><td style="font-weight:bold;vertical-align:top">google_analytics_id</td><td valign="top">:</td><td><div>None</div></td></tr><tr><td style="font-weight:bold;vertical-align:top">headers</td><td valign="top">:</td><td><div><table><tr><td style="font-weight:bold;vertical-align:top">X-Powered-By</td><td valign="top">:</td><td><div>web2py</div></td></tr></table></div></td></tr><tr><td style="font-weight:bold;vertical-align:top">logo</td><td valign="top">:</td><td><div><a class="brand" href="http://www.web2py.com/"><b>web<span>2</span>py</b>&trade;&nbsp;</a></div></td></tr><tr><td style="font-weight:bold;vertical-align:top">menu</td><td valign="top">:</td><td><div><table><tr><td><div><table><tr><td><div>Home</div></td></tr><tr><td><div>False</div></td></tr><tr><td><div>/projectlibrary/default/index</div></td></tr><tr><td><div><table></table></div></td></tr></table></div></td></tr><tr><td><div><table><tr><td><div><span class="highlighted">web2py</span></div></td></tr><tr><td><div>False</div></td></tr><tr><td><div>http://web2py.com</div></td></tr><tr><td><div><table><tr><td><div><table><tr><td><div>My Sites</div></td></tr><tr><td><div>False</div></td></tr><tr><td><div>/admin/default/site</div></td></tr></table></div></td></tr><tr><td><div><table><tr><td><div>This App</div></td></tr><tr><td><div>False</div></td></tr><tr><td><div>/admin/default/design/projectlibrary</div></td></tr><tr><td><div>[(&lt;lazyT &#x27;Controller&#x27;&gt;, False, &#x27;/admin/default/edit/projectlibrary/controllers/default.py&#x27;), (&lt;lazyT &#x27;View&#x27;&gt;, False, &#x27;/admin/default/edit/projectlibrary/views/default/register_func.html&#x27;), (&lt;lazyT &#x27;Layout&#x27;&gt;, False, &#x27;/admin/default/edit/projectlibrary/views/layout.html&#x27;), (&lt;lazyT &#x27;Stylesheet&#x27;&gt;, False, &#x27;/admin/default/edit/projectlibrary/static/css/web2py.css&#x27;), (&lt;lazyT &#x27;DB Model&#x27;&gt;, False, &#x27;/admin/default/edit/projectlibrary/models/db.py&#x27;), (&lt;lazyT &#x27;Menu Model&#x27;&gt;, False, &#x27;/admin/default/edit/projectlibrary/models/menu.py&#x27;), (&lt;lazyT &#x27;Database&#x27;&gt;, False, &#x27;/projectlibrary/appadmin/index&#x27;), (&lt;lazyT &#x27;Errors&#x27;&gt;, False, &#x27;/admin/default/errors/projectlibrary&#x27;), (&lt;lazyT &#x27;About&#x27;&gt;, False, &#x27;/admin/default/about/projectlibrary&#x27;)]</div></td></tr></table></div></td></tr><tr><td><div><table><tr><td><div>web2py.com</div></td></tr><tr><td><div>False</div></td></tr><tr><td><div>http://www.web2py.com</div></td></tr><tr><td><div>[(&lt;lazyT &#x27;Download&#x27;&gt;, False, &#x27;http://www.web2py.com/examples/default/download&#x27;), (&lt;lazyT &#x27;Support&#x27;&gt;, False, &#x27;http://www.web2py.com/examples/default/support&#x27;), (&lt;lazyT &#x27;Demo&#x27;&gt;, False, &#x27;http://web2py.com/demo_admin&#x27;), (&lt;lazyT &#x27;Quick Examples&#x27;&gt;, False, &#x27;http://web2py.com/examples/default/examples&#x27;), (&lt;lazyT &#x27;FAQ&#x27;&gt;, False, &#x27;http://web2py.com/AlterEgo&#x27;), (&lt;lazyT &#x27;Videos&#x27;&gt;, False, &#x27;http://www.web2py.com/examples/default/videos/&#x27;), (&lt;lazyT &#x27;Free Applications&#x27;&gt;, False, &#x27;http://web2py.com/appliances&#x27;), (&lt;lazyT &#x27;Plugins&#x27;&gt;, False, &#x27;http://web2py.com/plugins&#x27;), (&lt;lazyT &#x27;Layouts&#x27;&gt;, False, &#x27;http://web2py.com/layouts&#x27;), (&lt;lazyT &#x27;Recipes&#x27;&gt;, False, &#x27;http://web2pyslices.com/&#x27;), (&lt;lazyT &#x27;Semantic&#x27;&gt;, False, &#x27;http://web2py.com/semantic&#x27;)]</div></td></tr></table></div></td></tr><tr><td><div><table><tr><td><div>Documentation</div></td></tr><tr><td><div>False</div></td></tr><tr><td><div>http://www.web2py.com/book</div></td></tr><tr><td><div>[(&lt;lazyT &#x27;Preface&#x27;&gt;, False, &#x27;http://www.web2py.com/book/default/chapter/00&#x27;), (&lt;lazyT &#x27;Introduction&#x27;&gt;, False, &#x27;http://www.web2py.com/book/default/chapter/01&#x27;), (&lt;lazyT &#x27;Python&#x27;&gt;, False, &#x27;http://www.web2py.com/book/default/chapter/02&#x27;), (&lt;lazyT &#x27;Overview&#x27;&gt;, False, &#x27;http://www.web2py.com/book/default/chapter/03&#x27;), (&lt;lazyT &#x27;The Core&#x27;&gt;, False, &#x27;http://www.web2py.com/book/default/chapter/04&#x27;), (&lt;lazyT &#x27;The Views&#x27;&gt;, False, &#x27;http://www.web2py.com/book/default/chapter/05&#x27;), (&lt;lazyT &#x27;Database&#x27;&gt;, False, &#x27;http://www.web2py.com/book/default/chapter/06&#x27;), (&lt;lazyT &#x27;Forms and Validators&#x27;&gt;, False, &#x27;http://www.web2py.com/book/default/chapter/07&#x27;), (&lt;lazyT &#x27;Email and SMS&#x27;&gt;, False, &#x27;http://www.web2py.com/book/default/chapter/08&#x27;), (&lt;lazyT &#x27;Access Control&#x27;&gt;, False, &#x27;http://www.web2py.com/book/default/chapter/09&#x27;), (&lt;lazyT &#x27;Services&#x27;&gt;, False, &#x27;http://www.web2py.com/book/default/chapter/10&#x27;), (&lt;lazyT &#x27;Ajax Recipes&#x27;&gt;, False, &#x27;http://www.web2py.com/book/default/chapter/11&#x27;), (&lt;lazyT &#x27;Components and Plugins&#x27;&gt;, False, &#x27;http://www.web2py.com/book/default/chapter/12&#x27;), (&lt;lazyT &#x27;Deployment Recipes&#x27;&gt;, False, &#x27;http://www.web2py.com/book/default/chapter/13&#x27;), (&lt;lazyT &#x27;Other Recipes&#x27;&gt;, False, &#x27;http://www.web2py.com/book/default/chapter/14&#x27;), (&lt;lazyT &#x27;Buy this book&#x27;&gt;, False, &#x27;http://stores.lulu.com/web2py&#x27;)]</div></td></tr></table></div></td></tr><tr><td><div><table><tr><td><div>Community</div></td></tr><tr><td><div>False</div></td></tr><tr><td><div>None</div></td></tr><tr><td><div>[(&lt;lazyT &#x27;Groups&#x27;&gt;, False, &#x27;http://www.web2py.com/examples/default/usergroups&#x27;), (&lt;lazyT &#x27;Twitter&#x27;&gt;, False, &#x27;http://twitter.com/web2py&#x27;), (&lt;lazyT &#x27;Live Chat&#x27;&gt;, False, &#x27;http://webchat.freenode.net/?channels=web2py&#x27;)]</div></td></tr></table></div></td></tr><tr><td><div><table><tr><td><div>Plugins</div></td></tr><tr><td><div>False</div></td></tr><tr><td><div>None</div></td></tr><tr><td><div>[(&#x27;plugin_wiki&#x27;, False, &#x27;http://web2py.com/examples/default/download&#x27;), (&lt;lazyT &#x27;Other Plugins&#x27;&gt;, False, &#x27;http://web2py.com/plugins&#x27;), (&lt;lazyT &#x27;Layout Plugins&#x27;&gt;, False, &#x27;http://web2py.com/layouts&#x27;)]</div></td></tr></table></div></td></tr></table></div></td></tr></table></div></td></tr></table></div></td></tr><tr><td style="font-weight:bold;vertical-align:top">meta</td><td valign="top">:</td><td><div><table><tr><td style="font-weight:bold;vertical-align:top">author</td><td valign="top">:</td><td><div>Your Name &lt;you@example.com&gt;</div></td></tr><tr><td style="font-weight:bold;vertical-align:top">description</td><td valign="top">:</td><td><div>a cool new app</div></td></tr><tr><td style="font-weight:bold;vertical-align:top">generator</td><td valign="top">:</td><td><div>Web2py Web Framework</div></td></tr><tr><td style="font-weight:bold;vertical-align:top">keywords</td><td valign="top">:</td><td><div>web2py, python, framework</div></td></tr></table></div></td></tr><tr><td style="font-weight:bold;vertical-align:top">models_to_run</td><td valign="top">:</td><td><div><table><tr><td><div>^\\w+\\.py$</div></td></tr><tr><td><div>^default/\\w+\\.py$</div></td></tr><tr><td><div>^default/register_func/\\w+\\.py$</div></td></tr></table></div></td></tr><tr><td style="font-weight:bold;vertical-align:top">postprocessing</td><td valign="top">:</td><td><div><table></table></div></td></tr><tr><td style="font-weight:bold;vertical-align:top">session_cookie_expires</td><td valign="top">:</td><td><div>None</div></td></tr><tr><td style="font-weight:bold;vertical-align:top">session_data_name</td><td valign="top">:</td><td><div>session_data_projectlibrary</div></td></tr><tr><td style="font-weight:bold;vertical-align:top">session_file</td><td valign="top">:</td><td><div>&lt;open file &#x27;/home/kira/web2py/applications/projectlibrary/sessions/127.0.0.1-4d787df0-e5a5-4a1e-a913-c8d65835d079&#x27;, mode &#x27;rb+&#x27; at 0xaeb388b8&gt;</div></td></tr><tr><td style="font-weight:bold;vertical-align:top">session_filename</td><td valign="top">:</td><td><div>/home/kira/web2py/applications/projectlibrary/sessions/127.0.0.1-4d787df0-e5a5-4a1e-a913-c8d65835d079</div></td></tr><tr><td style="font-weight:bold;vertical-align:top">session_id</td><td valign="top">:</td><td><div>127.0.0.1-4d787df0-e5a5-4a1e-a913-c8d65835d079</div></td></tr><tr><td style="font-weight:bold;vertical-align:top">session_id_name</td><td valign="top">:</td><td><div>session_id_projectlibrary</div></td></tr><tr><td style="font-weight:bold;vertical-align:top">session_locked</td><td valign="top">:</td><td><div>True</div></td></tr><tr><td style="font-weight:bold;vertical-align:top">session_new</td><td valign="top">:</td><td><div>False</div></td></tr><tr><td style="font-weight:bold;vertical-align:top">session_storage_type</td><td valign="top">:</td><td><div>file</div></td></tr><tr><td style="font-weight:bold;vertical-align:top">status</td><td valign="top">:</td><td><div>200</div></td></tr><tr><td style="font-weight:bold;vertical-align:top">subtitle</td><td valign="top">:</td><td><div>customize me!</div></td></tr><tr><td style="font-weight:bold;vertical-align:top">title</td><td valign="top">:</td><td><div>Projectlibrary</div></td></tr><tr><td style="font-weight:bold;vertical-align:top">view</td><td valign="top">:</td><td><div>default/register_func.html</div></td></tr></table></div>'
tRp245
sS'locals'
p246
(dp247
S'Service'
p248
S"<class 'gluon.tools.Service'>"
p249
sS'OBJECT'
p250
S"<class 'gluon.html.OBJECT'>"
p251
sS'SQLDB'
p252
S"<class 'gluon.dal.DAL'>"
p253
sg238
S"<Storage {'last_query': 'db.project.id>0', '_for...ssion_hash': '76100c6b6436220844eb8c084d8b195b'}>"
p254
sS'LINK'
p255
S"<class 'gluon.html.LINK'>"
p256
sS'BR'
p257
S"<class 'gluon.html.BR'>"
p258
sS'local_import'
p259
S'<function <lambda>>'
p260
sS'OPTGROUP'
p261
S"<class 'gluon.html.OPTGROUP'>"
p262
sS'__package__'
p263
S'None'
p264
sS'PRE'
p265
S"<class 'gluon.html.PRE'>"
p266
sS'IS_INT_IN_RANGE'
p267
S"<class 'gluon.validators.IS_INT_IN_RANGE'>"
p268
sS'IS_LOWER'
p269
S"<class 'gluon.validators.IS_LOWER'>"
p270
sS'IS_STRONG'
p271
S"<class 'gluon.validators.IS_STRONG'>"
p272
sS'cache'
p273
S'<gluon.cache.Cache object>'
p274
sS'IS_IN_DB'
p275
S"<class 'gluon.validators.IS_IN_DB'>"
p276
sS'TAG'
p277
S'<gluon.html.__TAG__ object>'
p278
sS'SQLField'
p279
S"<class 'gluon.dal.Field'>"
p280
sS'mail'
p281
S'<gluon.tools.Mail object>'
p282
sS'BODY'
p283
S"<class 'gluon.html.BODY'>"
p284
sS'IS_DATE_IN_RANGE'
p285
S"<class 'gluon.validators.IS_DATE_IN_RANGE'>"
p286
sS'IFRAME'
p287
S"<class 'gluon.html.IFRAME'>"
p288
sS'URL'
p289
S'<function URL>'
p290
sS'__file__'
p291
S"'/home/kira/web2py/applications/projectlibrary/models/menu.py'"
p292
sS'db'
p293
S'<DAL uri="sqlite://storage.sqlite">'
p294
sS'auth'
p295
S'<gluon.tools.Auth object>'
p296
sS'P'
S"<class 'gluon.html.P'>"
p297
sS'TFOOT'
p298
S"<class 'gluon.html.TFOOT'>"
p299
sS'XHTML'
p300
S"<class 'gluon.html.XHTML'>"
p301
sS'ON'
p302
S'True'
p303
sS'OL'
p304
S"<class 'gluon.html.OL'>"
p305
sS'TEXTAREA'
p306
S"<class 'gluon.html.TEXTAREA'>"
p307
sS'MENU'
p308
S"<class 'gluon.html.MENU'>"
p309
sS'IS_IMAGE'
p310
S"<class 'gluon.validators.IS_IMAGE'>"
p311
sS'EM'
p312
S"<class 'gluon.html.EM'>"
p313
sS'CODE'
p314
S"<class 'gluon.html.CODE'>"
p315
sS'HTTP'
p316
S"<class 'gluon.http.HTTP'>"
p317
sS'HR'
p318
S"<class 'gluon.html.HR'>"
p319
sS'IS_DATETIME'
p320
S"<class 'gluon.validators.IS_DATETIME'>"
p321
sS'STYLE'
p322
S"<class 'gluon.html.STYLE'>"
p323
sS'LABEL'
p324
S"<class 'gluon.html.LABEL'>"
p325
sS'CLEANUP'
p326
S"<class 'gluon.validators.CLEANUP'>"
p327
sS'plugins'
p328
S'<gluon.tools.PluginManager object>'
p329
sS'SELECT'
p330
S"<class 'gluon.html.SELECT'>"
p331
sS'use_janrain'
p332
S'<function use_janrain>'
p333
sS'CENTER'
p334
S"<class 'gluon.html.CENTER'>"
p335
sS'prettydate'
p336
S'<function prettydate>'
p337
sS'Crud'
p338
S"<class 'gluon.tools.Crud'>"
p339
sS'Auth'
p340
S"<class 'gluon.tools.Auth'>"
p341
sS'DEVELOPMENT_MENU'
p342
g303
sS'__builtins__'
p343
S"{'ArithmeticError': <type 'exceptions.ArithmeticError'>, 'AssertionError': <type 'exceptions.AssertionError'>, 'AttributeError': <type 'exceptions.AttributeError'>, 'BaseException': <type 'exceptions.BaseException'>, 'BufferError': <type 'exceptions.BufferError'>, 'BytesWarning': <type 'exceptions.BytesWarning'>, 'DeprecationWarning': <type 'exceptions.DeprecationWarning'>, 'EOFError': <type 'exceptions.EOFError'>, 'Ellipsis': Ellipsis, 'EnvironmentError': <type 'exceptions.EnvironmentError'>, ...}"
p344
sS'HTML'
p345
S"<class 'gluon.html.HTML'>"
p346
sS'SQLFORM'
p347
S"<class 'gluon.sqlhtml.SQLFORM'>"
p348
sS'LOAD'
p349
S'<function LOAD>'
p350
sS'redirect'
p351
S'<function redirect>'
p352
sS'FIELDSET'
p353
S"<class 'gluon.html.FIELDSET'>"
p354
sS'IS_EQUAL_TO'
p355
S"<class 'gluon.validators.IS_EQUAL_TO'>"
p356
sS'embed64'
p357
S'<function embed64>'
p358
sS'IS_LIST_OF'
p359
S"<class 'gluon.validators.IS_LIST_OF'>"
p360
sS'INPUT'
p361
S"<class 'gluon.html.INPUT'>"
p362
sS'EMBED'
p363
S"<class 'gluon.html.EMBED'>"
p364
sS'_'
S'<function _>'
p365
sS'H2'
p366
S"<class 'gluon.html.H2'>"
p367
sS'H3'
p368
S"<class 'gluon.html.H3'>"
p369
sS'BUTTON'
p370
S"<class 'gluon.html.BUTTON'>"
p371
sS'H1'
p372
S"<class 'gluon.html.H1'>"
p373
sS'H6'
p374
S"<class 'gluon.html.H6'>"
p375
sS'H4'
p376
S"<class 'gluon.html.H4'>"
p377
sS'H5'
p378
S"<class 'gluon.html.H5'>"
p379
sS'UL'
p380
S"<class 'gluon.html.UL'>"
p381
sS'IS_UPPER'
p382
S"<class 'gluon.validators.IS_UPPER'>"
p383
sS'xmlescape'
p384
S'<function xmlescape>'
p385
sS'IS_TIME'
p386
S"<class 'gluon.validators.IS_TIME'>"
p387
sS'OPTION'
p388
S"<class 'gluon.html.OPTION'>"
p389
sS'TITLE'
p390
S"<class 'gluon.html.TITLE'>"
p391
sS'CRYPT'
p392
S"<class 'gluon.validators.CRYPT'>"
p393
sS'IS_EMPTY_OR'
p394
S"<class 'gluon.validators.IS_EMPTY_OR'>"
p395
sS'MARKMIN'
p396
S"<class 'gluon.html.MARKMIN'>"
p397
sS'__name__'
p398
S"'__restricted__'"
p399
sS'STRONG'
p400
S"<class 'gluon.html.STRONG'>"
p401
sS'COL'
p402
S"<class 'gluon.html.COL'>"
p403
sS'service'
p404
S'<gluon.tools.Service object>'
p405
sS'SCRIPT'
p406
S"<class 'gluon.html.SCRIPT'>"
p407
sS'TABLE'
p408
S"<class 'gluon.html.TABLE'>"
p409
sS'IS_IPV4'
p410
S"<class 'gluon.validators.IS_IPV4'>"
p411
sS'IS_LENGTH'
p412
S"<class 'gluon.validators.IS_LENGTH'>"
p413
sS'XML'
p414
S"<class 'gluon.html.XML'>"
p415
sS'B'
S"<class 'gluon.html.B'>"
p416
sS'IMG'
p417
S"<class 'gluon.html.IMG'>"
p418
sS'SQLTABLE'
p419
S"<class 'gluon.sqlhtml.SQLTABLE'>"
p420
sS'IS_MATCH'
p421
S"<class 'gluon.validators.IS_MATCH'>"
p422
sS'IS_ALPHANUMERIC'
p423
S"<class 'gluon.validators.IS_ALPHANUMERIC'>"
p424
sS'SPAN'
p425
S"<class 'gluon.html.SPAN'>"
p426
sS'IS_JSON'
p427
S"<class 'gluon.validators.IS_JSON'>"
p428
sS'IS_SLUG'
p429
S"<class 'gluon.validators.IS_SLUG'>"
p430
sS'BEAUTIFY'
p431
S"<class 'gluon.html.BEAUTIFY'>"
p432
sS'META'
p433
S"<class 'gluon.html.META'>"
p434
sS'IS_DATE'
p435
S"<class 'gluon.validators.IS_DATE'>"
p436
sS'IS_EMAIL'
p437
S"<class 'gluon.validators.IS_EMAIL'>"
p438
sS'IS_NOT_EMPTY'
p439
S"<class 'gluon.validators.IS_NOT_EMPTY'>"
p440
sS'IS_FLOAT_IN_RANGE'
p441
S"<class 'gluon.validators.IS_FLOAT_IN_RANGE'>"
p442
sS'TBODY'
p443
S"<class 'gluon.html.TBODY'>"
p444
sS'CAT'
p445
S"<class 'gluon.html.CAT'>"
p446
sS'Field'
p447
S"<class 'gluon.dal.Field'>"
p448
sS'DIV'
p449
S"<class 'gluon.html.DIV'>"
p450
sS'LEGEND'
p451
S"<class 'gluon.html.LEGEND'>"
p452
sS'COLGROUP'
p453
S"<class 'gluon.html.COLGROUP'>"
p454
sS'DAL'
p455
S"<class 'gluon.dal.DAL'>"
p456
sS'TT'
p457
S"<class 'gluon.html.TT'>"
p458
sS'TR'
p459
S"<class 'gluon.html.TR'>"
p460
sS'LI'
p461
S"<class 'gluon.html.LI'>"
p462
sS'TH'
p463
S"<class 'gluon.html.TH'>"
p464
sS'TD'
p465
S"<class 'gluon.html.TD'>"
p466
sS'PluginManager'
p467
S"<class 'gluon.tools.PluginManager'>"
p468
sS'IS_URL'
p469
S"<class 'gluon.validators.IS_URL'>"
p470
sS'A'
S"<class 'gluon.html.A'>"
p471
sS'HEAD'
p472
S"<class 'gluon.html.HEAD'>"
p473
sS'IS_DATETIME_IN_RANGE'
p474
S"<class 'gluon.validators.IS_DATETIME_IN_RANGE'>"
p475
sS'FORM'
p476
S"<class 'gluon.html.FORM'>"
p477
sS'I'
S"<class 'gluon.html.I'>"
p478
sS'crud'
p479
S'<gluon.tools.Crud object>'
p480
sS'IS_NOT_IN_DB'
p481
S"<class 'gluon.validators.IS_NOT_IN_DB'>"
p482
sg244
S"<Storage {'body': <cStringIO.StringO object at 0...af45d41c>, 'view': 'default/register_func.html'}>"
p483
sS'THEAD'
p484
S"<class 'gluon.html.THEAD'>"
p485
sS'a'
S'<gluon.sqlhtml.SQLFORM object>'
p486
sS'IS_NULL_OR'
p487
S"<class 'gluon.validators.IS_EMPTY_OR'>"
p488
sg54
S"<Storage {'function': 'register_func', 'body': <...ons/projectlibrary/', 'post_vars': <Storage {}>}>"
p489
sS'IS_EXPR'
p490
S"<class 'gluon.validators.IS_EXPR'>"
p491
sS'T'
S'<gluon.languages.translator object>'
p492
sS'IS_IN_SET'
p493
S"<class 'gluon.validators.IS_IN_SET'>"
p494
sS'IS_UPLOAD_FILENAME'
p495
S"<class 'gluon.validators.IS_UPLOAD_FILENAME'>"
p496
sS'IS_DECIMAL_IN_RANGE'
p497
S"<class 'gluon.validators.IS_DECIMAL_IN_RANGE'>"
p498
sssS'traceback'
p499
S'Traceback (most recent call last):\n  File "/home/kira/web2py/gluon/main.py", line 544, in wsgibase\n    serve_controller(request, response, session)\n  File "/home/kira/web2py/gluon/main.py", line 228, in serve_controller\n    run_view_in(response._view_environment)\n  File "/home/kira/web2py/gluon/compileapp.py", line 672, in run_view_in\n    context=environment)\n  File "/home/kira/web2py/gluon/template.py", line 785, in parse_template\n    return str(TemplateParser(text, context=context, path=path, lexers=lexers, delimiters=delimiters))\n  File "/home/kira/web2py/gluon/template.py", line 316, in __init__\n    self.parse(text)\n  File "/home/kira/web2py/gluon/template.py", line 756, in parse\n    self.extend(extend)\n  File "/home/kira/web2py/gluon/template.py", line 471, in extend\n    text = self._get_file_text(filename)\n  File "/home/kira/web2py/gluon/template.py", line 436, in _get_file_text\n    filename = eval(filename, context)\n  File "<string>", line 1, in <module>\nNameError: name \'layout\' is not defined\n'
p500
s.