(dp1
S'output'
p2
S"<type 'exceptions.NameError'> name 'project' is not defined"
p3
sS'layer'
p4
S'/home/kira/web2py/applications/projectlibrary/views/default/browse.html'
p5
sS'code'
p6
S'response.write(\'<!DOCTYPE html PUBLIC "-//W3C//DTD XHTML 1.0 Strict//EN" "http://www.w3.org/TR/xhtml1/DTD/xhtml1-strict.dtd">\\n<!--\\nDesign by Free CSS Templates\\nhttp://www.freecsstemplates.org\\nReleased for free under a Creative Commons Attribution 2.5 License\\n\\nName       : Orange And Black\\nDescription: A two-column, fixed-width design for 1024x768 screen resolutions.\\nVersion    : 1.0\\nReleased   : 20090203\\n\\n-->\\n\\n<html xmlns="http://www.w3.org/1999/xhtml">\\n <head>\\n <title>\\n\', escape=False)\nresponse.write(response.title or request.application)\nresponse.write(\'\\n</title>\\n  \\n  \', escape=False)\nresponse.files.append(URL(request.application,\'static\',\'plugin_layouts/layouts/OrangeandBlack/style.css\'))\nresponse.write(\'\\n  \', escape=False)\nresponse.files.append(URL(\'static\',\'plugin_layouts/superfish.js\'))\nresponse.write(\'\\n\\n\', escape=False)\nresponse.write(\'<script type="text/javascript"><!--\\n    // These variables are used by the web2py_ajax_init function in web2py_ajax.js (which is loaded below).\\n    var w2p_ajax_confirm_message = "\', escape=False)\nresponse.write(T(\'Are you sure you want to delete this object?\'))\nresponse.write(\'";\\n    var w2p_ajax_date_format = "\', escape=False)\nresponse.write(T(\'%Y-%m-%d\'))\nresponse.write(\'";\\n    var w2p_ajax_datetime_format = "\', escape=False)\nresponse.write(T(\'%Y-%m-%d %H:%M:%S\'))\nresponse.write(\'";\\n    var ajax_error_500 = \\\'\', escape=False)\nresponse.write(XML(T(\'An error occured, please %s the page\') % A(T(\'reload\'), _href=URL(args=request.args, vars=request.vars))))\nresponse.write("\'\\n    //--></script>\\n", escape=False)\nresponse.files.insert(0,URL(\'static\',\'js/jquery.js\'))\nresponse.files.insert(1,URL(\'static\',\'css/calendar.css\'))\nresponse.files.insert(2,URL(\'static\',\'js/calendar.js\'))\nresponse.files.insert(3,URL(\'static\',\'js/web2py.js\'))\nresponse.include_meta()\nresponse.include_files()\nresponse.write(\'\\n\', escape=False)\nresponse.write(\'\\n  <style>\\nul.web2py-menu-vertical { width: 150px; position: relative; top:1em; left:1em;  z-index:30; border:0; margin:0; padding: 0; list-style: none; text-decoration: none;}\\nul.web2py-menu-vertical li { margin:0; padding:0; border:0; width: 150px; background: black; text-align:left;}\\nul.web2py-menu-vertical li a { margin:0; padding: 1px 3px 1px 3px; border:0; width: 144px; color: white; font-size:12px;}\\ndiv.flash { position: fixed; float: right; padding: 10px; top: 10px; right: 300px; opacity: 5.00; margin: 10px 10px 10px 10px; text-align: center; clear: both; color: #fff; font-size: 11pt; text-align: center; vertical-align: middle; cursor: pointer; background: black; border: 2px solid #fff; -moz-border-radius: 5px; -webkit-border-radius: 5px; z-index: 2; }\\ndiv.error { background-color: red; color: white; padding: 3px; }\\n.auth_navbar { text-align:right; z-index:10000; color: white; position: absolute; top: 100px; right:30px; border:100; padding:20 }\\n  </style>\\n </head>\\n <body>\\n<!-- start header -->\\n  \', escape=False)\ntry:\n    response.write(auth.navbar(referrer_actions=None,action=URL(\'default\',\'user\')))\nexcept:pass\nresponse.write(\'\\n\\n<style type="text/css">\\nh2 { \\ndisplay: inline;\\n}\\nh4 {text-align: center; font-size: 30px;\\ndisplay: inline;\\n}\\n</style>\\n\\n  <div id="header-wrapper">\\n   <div id="header">\\n    <div id="menu">\\n     \', escape=False)\nresponse.write(MENU(response.menu,_class=\'web2py-menu\'))\nresponse.write(\'\\n    <script>\\n      jQuery(document).ready(function(){jQuery(\\\'ul.web2py-menu\\\').superfish({delay:400});});\\n    </script>\\n    </div>\\n    <!-- end #menu -->\\n    <div id="search">\\n    <form method="get" action=\', escape=False)\nresponse.write(URL(\'search_func\'))\nresponse.write(\'>\\n      <fieldset>\\n       <input type="text" name="s" id="search-text" size="50" />\\n       <input type="submit" id="search-submit" value="Search" />\\n       </fieldset>\\n     </form>\\n    \\n    </div>\\n    <!-- end #search -->\\n   </div>\\n   <!-- end #header -->\\n  </div>\\n  <!-- end #header-wrapper -->\\n  </br>\\n  </br>\\n  <div id="page">\\n   <div id=\\\'logo\\\' >\\n\', escape=False)\nif auth.user:\n    response.write(\'\\n<br/>  \\n<br/>  \\n<h4>[\', escape=False)\n    response.write((A("My Subscriptions", _href=URL("viewsub"))))\n    response.write(\' | \\n   \', escape=False)\n    response.write((A("My Projects", _href=URL("editprojects",args=auth.user.id))))\n    response.write(\' | \\n   \', escape=False)\n    response.write((A("My Collections", _href=URL("viewkol",args=auth.user.id))))\n    response.write(\' | \\n   \', escape=False)\n    response.write((A("My Notifications", _href=URL("noti",args=auth.user.id))))\n    response.write(\']</h4>\\n\', escape=False)\n    pass\nresponse.write(\'\\n\', escape=False)\nif not auth.user:\n    response.write(\'\\n<h1>Project Library</h1>\\n\', escape=False)\n    pass\nresponse.write(\'\\n   </div>\\n   <hr />\\n   <!-- end #logo -->\\n   <div id="content">\\n    <div class="flash">\', escape=False)\nresponse.write(response.flash or \'\')\nresponse.write(\'</div>\\n    \', escape=False)\nresponse.write(\'\\n\\n<style type="text/css">\\nh3,h2 { display: inline; }\\n</style>\\n<h2><b>Uploaded Projects</b></h2>\\n<ul>\\n\', escape=False)\nfor some in form:\n    response.write(\'\\n\', escape=False)\n    some.project_name=some.project_name.upper()\n    response.write(\'\\n<h3>\\n\', escape=False)\n    if some.project_pic!=None:\n        response.write("\\n<img heigth=\'150\' width=\'150\' src=", escape=False)\n        response.write(URL(\'download\',args=some.project_pic))\n        response.write(\'>\\n\', escape=False)\n    else:\n        response.write("\\n<img height=\'150\' width=\'150\' src=", escape=False)\n        response.write(URL(\'static\',\'images/defaultproject.jpeg\'))\n        response.write(\'>\\n\', escape=False)\n        pass\n    response.write(\'\\n<div style="float: right;">\\n<h3>Description: </h3>\\n\', escape=False)\n    response.write(project.description)\n    response.write(\'\\n</div>\\n<br/>\\n\', escape=False)\n    response.write(LI(A(some.project_name, _href=URL("project_page",args=some.id))))\n    response.write(\'\\n</h3>\\n<br/>\\n<br/>\\n<br/>\\n\', escape=False)\n    pass\nresponse.write(\'\\n</ul>\\n\\n\', escape=False)\nresponse.write(\'\\n   </div>\\n   <!-- end #content -->\\n   <div id="sidebar">\\n</br>\\n</br>\\n</br>\\n<a href="javascript:void(history.go(-1))">\\n<img height=\\\'70\\\' width=\\\'70\\\' src=\', escape=False)\nresponse.write(URL(\'static\',\'images/back.jpeg\'))\nresponse.write(\'>\\n</a>\\n&nbsp;\\n&nbsp;\\n&nbsp;\\n<a href="javascript:void(history.go(+1))">\\n<img height=\\\'70\\\' width=\\\'70\\\' src=\', escape=False)\nresponse.write(URL(\'static\',\'images/forward.jpeg\'))\nresponse.write(\'>\\n</a>\\n</br>\\n</br>\\n    <ul>\\n     <li>\\n      <h2>\\n       Website Description\\n      </h2>\\n</br>\\n</br>\\n      <p>\\n      ProjectLibrary is desgned for users to upload and share their projects with other users. "Knowledge is of two kinds. We know a subject ourselves, or we know where we can find information upon it.\\n      </br>- <b>Samuel Johnson</b>\\n      </p>\\n     </li> \\n    </ul>\\n   </div>\\n   <!-- end #sidebar -->\\n\\n   <div style="clear: both;">\\n    &nbsp;\\n   </div>\\n\\n  </div>\\n  <!-- end #page -->\\n  <div id="footer">\\n   <p>\\n    Copyright (c) 2013 ProjectLibrary.com. All rights reserved. Design by\\n    Jaspreet Singh &amp; Shikher Somal\\n   </p>\\n  </div>\\n  <!-- end #footer -->\\n </body>\\n</html>\\n\', escape=False)'
p7
sS'snapshot'
p8
(dp9
S'exception'
p10
(dp11
S'__hash__'
p12
S"<method-wrapper '__hash__' of exceptions.NameError object>"
p13
sS'__setattr__'
p14
S"<method-wrapper '__setattr__' of exceptions.NameError object>"
p15
sS'__reduce_ex__'
p16
S'<built-in method __reduce_ex__ of exceptions.NameError object>'
p17
sS'__getslice__'
p18
S"<method-wrapper '__getslice__' of exceptions.NameError object>"
p19
sS'__getitem__'
p20
S"<method-wrapper '__getitem__' of exceptions.NameError object>"
p21
sS'__setstate__'
p22
S'<built-in method __setstate__ of exceptions.NameError object>'
p23
sS'__reduce__'
p24
S'<built-in method __reduce__ of exceptions.NameError object>'
p25
sS'__str__'
p26
S"<method-wrapper '__str__' of exceptions.NameError object>"
p27
sS'__format__'
p28
S'<built-in method __format__ of exceptions.NameError object>'
p29
sS'__getattribute__'
p30
S"<method-wrapper '__getattribute__' of exceptions.NameError object>"
p31
sS'__class__'
p32
S"<type 'exceptions.NameError'>"
p33
sS'__unicode__'
p34
S'<built-in method __unicode__ of exceptions.NameError object>'
p35
sS'__delattr__'
p36
S"<method-wrapper '__delattr__' of exceptions.NameError object>"
p37
sS'__subclasshook__'
p38
S'<built-in method __subclasshook__ of type object>'
p39
sS'__repr__'
p40
S"<method-wrapper '__repr__' of exceptions.NameError object>"
p41
sS'args'
p42
S'("name \'project\' is not defined",)'
p43
sS'__dict__'
p44
S'{}'
p45
sS'__sizeof__'
p46
S'<built-in method __sizeof__ of exceptions.NameError object>'
p47
sS'__doc__'
p48
S"'Name not found globally.'"
p49
sS'__init__'
p50
S"<method-wrapper '__init__' of exceptions.NameError object>"
p51
sS'__new__'
p52
S'<built-in method __new__ of type object>'
p53
ssS'evalue'
p54
S"name 'project' is not defined"
p55
sS'request'
p56
cgluon.html
XML_unpickle
p57
(S's*V\x00\x00<div><table><tr><td style="font-weight:bold;vertical-align:top">ajax</td><td valign="top">:</td><td><div>False</div></td></tr><tr><td style="font-weight:bold;vertical-align:top">application</td><td valign="top">:</td><td><div>projectlibrary</div></td></tr><tr><td style="font-weight:bold;vertical-align:top">args</td><td valign="top">:</td><td><div><table></table></div></td></tr><tr><td style="font-weight:bold;vertical-align:top">body</td><td valign="top">:</td><td><div>&lt;cStringIO.StringO object at 0xb51d9520&gt;</div></td></tr><tr><td style="font-weight:bold;vertical-align:top">cid</td><td valign="top">:</td><td><div>None</div></td></tr><tr><td style="font-weight:bold;vertical-align:top">client</td><td valign="top">:</td><td><div>127.0.0.1</div></td></tr><tr><td style="font-weight:bold;vertical-align:top">controller</td><td valign="top">:</td><td><div>default</div></td></tr><tr><td style="font-weight:bold;vertical-align:top">cookies</td><td valign="top">:</td><td><div><table><tr><td style="font-weight:bold;vertical-align:top">session_id_admin</td><td valign="top">:</td><td><div>127.0.0.1-2529bc2f-ad67-4956-9686-d0d2d6c739fe<table><tr><td style="font-weight:bold;vertical-align:top">comment</td><td valign="top">:</td><td><div></div></td></tr><tr><td style="font-weight:bold;vertical-align:top">domain</td><td valign="top">:</td><td><div></div></td></tr><tr><td style="font-weight:bold;vertical-align:top">expires</td><td valign="top">:</td><td><div></div></td></tr><tr><td style="font-weight:bold;vertical-align:top">httponly</td><td valign="top">:</td><td><div></div></td></tr><tr><td style="font-weight:bold;vertical-align:top">max-age</td><td valign="top">:</td><td><div></div></td></tr><tr><td style="font-weight:bold;vertical-align:top">path</td><td valign="top">:</td><td><div></div></td></tr><tr><td style="font-weight:bold;vertical-align:top">secure</td><td valign="top">:</td><td><div></div></td></tr><tr><td style="font-weight:bold;vertical-align:top">version</td><td valign="top">:</td><td><div></div></td></tr></table></div></td></tr><tr><td style="font-weight:bold;vertical-align:top">session_id_projectlibrary</td><td valign="top">:</td><td><div>127.0.0.1-4da8508b-a7d7-452b-969e-ed2eaa30c561<table><tr><td style="font-weight:bold;vertical-align:top">comment</td><td valign="top">:</td><td><div></div></td></tr><tr><td style="font-weight:bold;vertical-align:top">domain</td><td valign="top">:</td><td><div></div></td></tr><tr><td style="font-weight:bold;vertical-align:top">expires</td><td valign="top">:</td><td><div></div></td></tr><tr><td style="font-weight:bold;vertical-align:top">httponly</td><td valign="top">:</td><td><div></div></td></tr><tr><td style="font-weight:bold;vertical-align:top">max-age</td><td valign="top">:</td><td><div></div></td></tr><tr><td style="font-weight:bold;vertical-align:top">path</td><td valign="top">:</td><td><div></div></td></tr><tr><td style="font-weight:bold;vertical-align:top">secure</td><td valign="top">:</td><td><div></div></td></tr><tr><td style="font-weight:bold;vertical-align:top">version</td><td valign="top">:</td><td><div></div></td></tr></table></div></td></tr><tr><td style="font-weight:bold;vertical-align:top">session_id_welcome</td><td valign="top">:</td><td><div>127.0.0.1-ac20e578-62d3-4e42-be6f-e3634eb8746f<table><tr><td style="font-weight:bold;vertical-align:top">comment</td><td valign="top">:</td><td><div></div></td></tr><tr><td style="font-weight:bold;vertical-align:top">domain</td><td valign="top">:</td><td><div></div></td></tr><tr><td style="font-weight:bold;vertical-align:top">expires</td><td valign="top">:</td><td><div></div></td></tr><tr><td style="font-weight:bold;vertical-align:top">httponly</td><td valign="top">:</td><td><div></div></td></tr><tr><td style="font-weight:bold;vertical-align:top">max-age</td><td valign="top">:</td><td><div></div></td></tr><tr><td style="font-weight:bold;vertical-align:top">path</td><td valign="top">:</td><td><div></div></td></tr><tr><td style="font-weight:bold;vertical-align:top">secure</td><td valign="top">:</td><td><div></div></td></tr><tr><td style="font-weight:bold;vertical-align:top">version</td><td valign="top">:</td><td><div></div></td></tr></table></div></td></tr></table></div></td></tr><tr><td style="font-weight:bold;vertical-align:top">env</td><td valign="top">:</td><td><div><table><tr><td style="font-weight:bold;vertical-align:top">app_folders</td><td valign="top">:</td><td><div>set([&#x27;/home/kira/web2py/applications/examples/&#x27;, &#x27;/home/kira/web2py/applications/admin/&#x27;, &#x27;/home/kira/web2py/applications/welcome/&#x27;, &#x27;/home/kira/web2py/applications/projectlibrary/&#x27;])</div></td></tr><tr><td style="font-weight:bold;vertical-align:top">applications_parent</td><td valign="top">:</td><td><div>/home/kira/web2py</div></td></tr><tr><td style="font-weight:bold;vertical-align:top">cmd_args</td><td valign="top">:</td><td><div><table></table></div></td></tr><tr><td style="font-weight:bold;vertical-align:top">cmd_options</td><td valign="top">:</td><td><div>&lt;Values at 0x8acfe6c: {&#x27;verbose&#x27;: False, &#x27;ip&#x27;: &#x27;127.0.0.1&#x27;, &#x27;with_scheduler&#x27;: False, &#x27;ips&#x27;: [], &#x27;shutdown_timeout&#x27;: 5, &#x27;taskbar&#x27;: False, &#x27;port&#x27;: 8000, &#x27;maxthreads&#x27;: None, &#x27;softcron&#x27;: False, &#x27;server_name&#x27;: &#x27;kira-Ideapad-Z570&#x27;, &#x27;bpython&#x27;: False, &#x27;nogui&#x27;: False, &#x27;pid_filename&#x27;: &#x27;httpserver.pid&#x27;, &#x27;extcron&#x27;: False, &#x27;runcron&#x27;: False, &#x27;run_system_tests&#x27;: False, &#x27;test&#x27;: None, &#x27;folder&#x27;: &#x27;/home/kira/web2py&#x27;, &#x27;config&#x27;: &#x27;&#x27;, &#x27;import_models&#x27;: False, &#x27;winservice&#x27;: &#x27;&#x27;, &#x27;shell&#x27;: None, &#x27;run&#x27;: &#x27;&#x27;, &#x27;log_filename&#x27;: &#x27;httpserver.log&#x27;, &#x27;debuglevel&#x27;: 30, &#x27;args&#x27;: [&#x27;&#x27;], &#x27;socket_timeout&#x27;: 5, &#x27;ssl_ca_certificate&#x27;: None, &#x27;scheduler&#x27;: None, &#x27;profiler_filename&#x27;: None, &#x27;ssl_private_key&#x27;: &#x27;&#x27;, &#x27;scheduler_groups&#x27;: None, &#x27;password&#x27;: &#x27;asd&#x27;, &#x27;request_queue_size&#x27;: 5, &#x27;ssl_certificate&#x27;: &#x27;&#x27;, &#x27;cronjob&#x27;: False, &#x27;numthreads&#x27;: None, &#x27;quiet&#x27;: False, &#x27;interfaces&#x27;: None, &#x27;minthreads&#x27;: None, &#x27;timeout&#x27;: 10, &#x27;plain&#x27;: False, &#x27;nobanner&#x27;: False}&gt;</div></td></tr><tr><td style="font-weight:bold;vertical-align:top">db_sessions</td><td valign="top">:</td><td><div>set([])</div></td></tr><tr><td style="font-weight:bold;vertical-align:top">debugging</td><td valign="top">:</td><td><div>False</div></td></tr><tr><td style="font-weight:bold;vertical-align:top">gluon_parent</td><td valign="top">:</td><td><div>/home/kira/web2py</div></td></tr><tr><td style="font-weight:bold;vertical-align:top">http_accept</td><td valign="top">:</td><td><div>text/html,application/xhtml+xml,application/xml;q=0.9,*/*;q=0.8</div></td></tr><tr><td style="font-weight:bold;vertical-align:top">http_accept_encoding</td><td valign="top">:</td><td><div>gzip, deflate</div></td></tr><tr><td style="font-weight:bold;vertical-align:top">http_accept_language</td><td valign="top">:</td><td><div>en-us,en;q=0.5</div></td></tr><tr><td style="font-weight:bold;vertical-align:top">http_cache_control</td><td valign="top">:</td><td><div>max-age=0</div></td></tr><tr><td style="font-weight:bold;vertical-align:top">http_connection</td><td valign="top">:</td><td><div>keep-alive</div></td></tr><tr><td style="font-weight:bold;vertical-align:top">http_cookie</td><td valign="top">:</td><td><div>session_id_welcome=127.0.0.1-ac20e578-62d3-4e42-be6f-e3634eb8746f; session_id_admin=127.0.0.1-2529bc2f-ad67-4956-9686-d0d2d6c739fe; session_id_projectlibrary=127.0.0.1-4da8508b-a7d7-452b-969e-ed2eaa30c561</div></td></tr><tr><td style="font-weight:bold;vertical-align:top">http_host</td><td valign="top">:</td><td><div>127.0.0.1:8000</div></td></tr><tr><td style="font-weight:bold;vertical-align:top">http_referer</td><td valign="top">:</td><td><div>http://127.0.0.1:8000/projectlibrary/default/byuploads</div></td></tr><tr><td style="font-weight:bold;vertical-align:top">http_user_agent</td><td valign="top">:</td><td><div>Mozilla/5.0 (X11; Ubuntu; Linux i686; rv:11.0) Gecko/20100101 Firefox/11.0</div></td></tr><tr><td style="font-weight:bold;vertical-align:top">is_jython</td><td valign="top">:</td><td><div>False</div></td></tr><tr><td style="font-weight:bold;vertical-align:top">is_pypy</td><td valign="top">:</td><td><div>False</div></td></tr><tr><td style="font-weight:bold;vertical-align:top">local_hosts</td><td valign="top">:</td><td><div><table><tr><td><div>kira-Ideapad-Z570</div></td></tr><tr><td><div>::1</div></td></tr><tr><td><div>127.0.1.1</div></td></tr><tr><td><div>::ffff:127.0.0.1</div></td></tr><tr><td><div>127.0.0.1</div></td></tr></table></div></td></tr><tr><td style="font-weight:bold;vertical-align:top">path_info</td><td valign="top">:</td><td><div>/projectlibrary/default/browse</div></td></tr><tr><td style="font-weight:bold;vertical-align:top">query_string</td><td valign="top">:</td><td><div></div></td></tr><tr><td style="font-weight:bold;vertical-align:top">remote_addr</td><td valign="top">:</td><td><div>127.0.0.1</div></td></tr><tr><td style="font-weight:bold;vertical-align:top">remote_port</td><td valign="top">:</td><td><div>60781</div></td></tr><tr><td style="font-weight:bold;vertical-align:top">request_method</td><td valign="top">:</td><td><div>GET</div></td></tr><tr><td style="font-weight:bold;vertical-align:top">request_uri</td><td valign="top">:</td><td><div>/projectlibrary/default/browse</div></td></tr><tr><td style="font-weight:bold;vertical-align:top">script_name</td><td valign="top">:</td><td><div></div></td></tr><tr><td style="font-weight:bold;vertical-align:top">server_name</td><td valign="top">:</td><td><div>kira-Ideapad-Z570</div></td></tr><tr><td style="font-weight:bold;vertical-align:top">server_port</td><td valign="top">:</td><td><div>8000</div></td></tr><tr><td style="font-weight:bold;vertical-align:top">server_protocol</td><td valign="top">:</td><td><div>HTTP/1.1</div></td></tr><tr><td style="font-weight:bold;vertical-align:top">server_software</td><td valign="top">:</td><td><div>Rocket 1.2.6</div></td></tr><tr><td style="font-weight:bold;vertical-align:top">web2py_path</td><td valign="top">:</td><td><div>/home/kira/web2py</div></td></tr><tr><td style="font-weight:bold;vertical-align:top">web2py_version</td><td valign="top">:</td><td><div><table><tr><td><div>2</div></td></tr><tr><td><div>4</div></td></tr><tr><td><div>2</div></td></tr><tr><td><div>stable</div></td></tr><tr><td><div>datetime.datetime(2013, 3, 4, 3, 26, 21)</div></td></tr></table></div></td></tr><tr><td style="font-weight:bold;vertical-align:top">wsgi_errors</td><td valign="top">:</td><td><div>&lt;open file &#x27;&lt;stderr&gt;&#x27;, mode &#x27;w&#x27; at 0xb731b0d0&gt;</div></td></tr><tr><td style="font-weight:bold;vertical-align:top">wsgi_file_wrapper</td><td valign="top">:</td><td><div>&lt;class wsgiref.util.FileWrapper at 0x8a5cb9c&gt;</div></td></tr><tr><td style="font-weight:bold;vertical-align:top">wsgi_input</td><td valign="top">:</td><td><div>&lt;socket._fileobject object at 0xaf076e6c&gt;</div></td></tr><tr><td style="font-weight:bold;vertical-align:top">wsgi_multiprocess</td><td valign="top">:</td><td><div>False</div></td></tr><tr><td style="font-weight:bold;vertical-align:top">wsgi_multithread</td><td valign="top">:</td><td><div>True</div></td></tr><tr><td style="font-weight:bold;vertical-align:top">wsgi_run_once</td><td valign="top">:</td><td><div>False</div></td></tr><tr><td style="font-weight:bold;vertical-align:top">wsgi_url_scheme</td><td valign="top">:</td><td><div>http</div></td></tr><tr><td style="font-weight:bold;vertical-align:top">wsgi_version</td><td valign="top">:</td><td><div><table><tr><td><div>1</div></td></tr><tr><td><div>0</div></td></tr></table></div></td></tr></table></div></td></tr><tr><td style="font-weight:bold;vertical-align:top">extension</td><td valign="top">:</td><td><div>html</div></td></tr><tr><td style="font-weight:bold;vertical-align:top">folder</td><td valign="top">:</td><td><div>/home/kira/web2py/applications/projectlibrary/</div></td></tr><tr><td style="font-weight:bold;vertical-align:top">function</td><td valign="top">:</td><td><div>browse</div></td></tr><tr><td style="font-weight:bold;vertical-align:top">get_vars</td><td valign="top">:</td><td><div><table></table></div></td></tr><tr><td style="font-weight:bold;vertical-align:top">global_settings</td><td valign="top">:</td><td><div><table><tr><td style="font-weight:bold;vertical-align:top">app_folders</td><td valign="top">:</td><td><div>set([&#x27;/home/kira/web2py/applications/examples/&#x27;, &#x27;/home/kira/web2py/applications/admin/&#x27;, &#x27;/home/kira/web2py/applications/welcome/&#x27;, &#x27;/home/kira/web2py/applications/projectlibrary/&#x27;])</div></td></tr><tr><td style="font-weight:bold;vertical-align:top">applications_parent</td><td valign="top">:</td><td><div>/home/kira/web2py</div></td></tr><tr><td style="font-weight:bold;vertical-align:top">cmd_args</td><td valign="top">:</td><td><div><table></table></div></td></tr><tr><td style="font-weight:bold;vertical-align:top">cmd_options</td><td valign="top">:</td><td><div>&lt;Values at 0x8acfe6c: {&#x27;verbose&#x27;: False, &#x27;ip&#x27;: &#x27;127.0.0.1&#x27;, &#x27;with_scheduler&#x27;: False, &#x27;ips&#x27;: [], &#x27;shutdown_timeout&#x27;: 5, &#x27;taskbar&#x27;: False, &#x27;port&#x27;: 8000, &#x27;maxthreads&#x27;: None, &#x27;softcron&#x27;: False, &#x27;server_name&#x27;: &#x27;kira-Ideapad-Z570&#x27;, &#x27;bpython&#x27;: False, &#x27;nogui&#x27;: False, &#x27;pid_filename&#x27;: &#x27;httpserver.pid&#x27;, &#x27;extcron&#x27;: False, &#x27;runcron&#x27;: False, &#x27;run_system_tests&#x27;: False, &#x27;test&#x27;: None, &#x27;folder&#x27;: &#x27;/home/kira/web2py&#x27;, &#x27;config&#x27;: &#x27;&#x27;, &#x27;import_models&#x27;: False, &#x27;winservice&#x27;: &#x27;&#x27;, &#x27;shell&#x27;: None, &#x27;run&#x27;: &#x27;&#x27;, &#x27;log_filename&#x27;: &#x27;httpserver.log&#x27;, &#x27;debuglevel&#x27;: 30, &#x27;args&#x27;: [&#x27;&#x27;], &#x27;socket_timeout&#x27;: 5, &#x27;ssl_ca_certificate&#x27;: None, &#x27;scheduler&#x27;: None, &#x27;profiler_filename&#x27;: None, &#x27;ssl_private_key&#x27;: &#x27;&#x27;, &#x27;scheduler_groups&#x27;: None, &#x27;password&#x27;: &#x27;asd&#x27;, &#x27;request_queue_size&#x27;: 5, &#x27;ssl_certificate&#x27;: &#x27;&#x27;, &#x27;cronjob&#x27;: False, &#x27;numthreads&#x27;: None, &#x27;quiet&#x27;: False, &#x27;interfaces&#x27;: None, &#x27;minthreads&#x27;: None, &#x27;timeout&#x27;: 10, &#x27;plain&#x27;: False, &#x27;nobanner&#x27;: False}&gt;</div></td></tr><tr><td style="font-weight:bold;vertical-align:top">db_sessions</td><td valign="top">:</td><td><div>set([])</div></td></tr><tr><td style="font-weight:bold;vertical-align:top">debugging</td><td valign="top">:</td><td><div>False</div></td></tr><tr><td style="font-weight:bold;vertical-align:top">gluon_parent</td><td valign="top">:</td><td><div>/home/kira/web2py</div></td></tr><tr><td style="font-weight:bold;vertical-align:top">is_jython</td><td valign="top">:</td><td><div>False</div></td></tr><tr><td style="font-weight:bold;vertical-align:top">is_pypy</td><td valign="top">:</td><td><div>False</div></td></tr><tr><td style="font-weight:bold;vertical-align:top">local_hosts</td><td valign="top">:</td><td><div><table><tr><td><div>kira-Ideapad-Z570</div></td></tr><tr><td><div>::1</div></td></tr><tr><td><div>127.0.1.1</div></td></tr><tr><td><div>::ffff:127.0.0.1</div></td></tr><tr><td><div>127.0.0.1</div></td></tr></table></div></td></tr><tr><td style="font-weight:bold;vertical-align:top">web2py_version</td><td valign="top">:</td><td><div><table><tr><td><div>2</div></td></tr><tr><td><div>4</div></td></tr><tr><td><div>2</div></td></tr><tr><td><div>stable</div></td></tr><tr><td><div>datetime.datetime(2013, 3, 4, 3, 26, 21)</div></td></tr></table></div></td></tr></table></div></td></tr><tr><td style="font-weight:bold;vertical-align:top">is_https</td><td valign="top">:</td><td><div>False</div></td></tr><tr><td style="font-weight:bold;vertical-align:top">is_local</td><td valign="top">:</td><td><div>True</div></td></tr><tr><td style="font-weight:bold;vertical-align:top">is_restful</td><td valign="top">:</td><td><div>False</div></td></tr><tr><td style="font-weight:bold;vertical-align:top">now</td><td valign="top">:</td><td><div>datetime.datetime(2013, 4, 16, 13, 3, 21, 29700)</div></td></tr><tr><td style="font-weight:bold;vertical-align:top">post_vars</td><td valign="top">:</td><td><div><table></table></div></td></tr><tr><td style="font-weight:bold;vertical-align:top">raw_args</td><td valign="top">:</td><td><div></div></td></tr><tr><td style="font-weight:bold;vertical-align:top">raw_extension</td><td valign="top">:</td><td><div>None</div></td></tr><tr><td style="font-weight:bold;vertical-align:top">url</td><td valign="top">:</td><td><div>/projectlibrary/default/browse</div></td></tr><tr><td style="font-weight:bold;vertical-align:top">utcnow</td><td valign="top">:</td><td><div>datetime.datetime(2013, 4, 16, 7, 33, 21, 29756)</div></td></tr><tr><td style="font-weight:bold;vertical-align:top">uuid</td><td valign="top">:</td><td><div>projectlibrary/127.0.0.1.2013-04-16.13-03-21.8f035881-cef3-4797-a1e7-09b5853d7391</div></td></tr><tr><td style="font-weight:bold;vertical-align:top">vars</td><td valign="top">:</td><td><div><table></table></div></td></tr><tr><td style="font-weight:bold;vertical-align:top">wsgi</td><td valign="top">:</td><td><div><table><tr><td style="font-weight:bold;vertical-align:top">environ</td><td valign="top">:</td><td><div><table><tr><td style="font-weight:bold;vertical-align:top">HTTP_ACCEPT</td><td valign="top">:</td><td><div>text/html,application/xhtml+xml,application/xml;q=0.9,*/*;q=0.8</div></td></tr><tr><td style="font-weight:bold;vertical-align:top">HTTP_ACCEPT_ENCODING</td><td valign="top">:</td><td><div>gzip, deflate</div></td></tr><tr><td style="font-weight:bold;vertical-align:top">HTTP_ACCEPT_LANGUAGE</td><td valign="top">:</td><td><div>en-us,en;q=0.5</div></td></tr><tr><td style="font-weight:bold;vertical-align:top">HTTP_CACHE_CONTROL</td><td valign="top">:</td><td><div>max-age=0</div></td></tr><tr><td style="font-weight:bold;vertical-align:top">HTTP_CONNECTION</td><td valign="top">:</td><td><div>keep-alive</div></td></tr><tr><td style="font-weight:bold;vertical-align:top">HTTP_COOKIE</td><td valign="top">:</td><td><div>session_id_welcome=127.0.0.1-ac20e578-62d3-4e42-be6f-e3634eb8746f; session_id_admin=127.0.0.1-2529bc2f-ad67-4956-9686-d0d2d6c739fe; session_id_projectlibrary=127.0.0.1-4da8508b-a7d7-452b-969e-ed2eaa30c561</div></td></tr><tr><td style="font-weight:bold;vertical-align:top">HTTP_HOST</td><td valign="top">:</td><td><div>127.0.0.1:8000</div></td></tr><tr><td style="font-weight:bold;vertical-align:top">HTTP_REFERER</td><td valign="top">:</td><td><div>http://127.0.0.1:8000/projectlibrary/default/byuploads</div></td></tr><tr><td style="font-weight:bold;vertical-align:top">HTTP_USER_AGENT</td><td valign="top">:</td><td><div>Mozilla/5.0 (X11; Ubuntu; Linux i686; rv:11.0) Gecko/20100101 Firefox/11.0</div></td></tr><tr><td style="font-weight:bold;vertical-align:top">PATH_INFO</td><td valign="top">:</td><td><div>/projectlibrary/default/browse</div></td></tr><tr><td style="font-weight:bold;vertical-align:top">QUERY_STRING</td><td valign="top">:</td><td><div></div></td></tr><tr><td style="font-weight:bold;vertical-align:top">REMOTE_ADDR</td><td valign="top">:</td><td><div>127.0.0.1</div></td></tr><tr><td style="font-weight:bold;vertical-align:top">REMOTE_PORT</td><td valign="top">:</td><td><div>60781</div></td></tr><tr><td style="font-weight:bold;vertical-align:top">REQUEST_METHOD</td><td valign="top">:</td><td><div>GET</div></td></tr><tr><td style="font-weight:bold;vertical-align:top">REQUEST_URI</td><td valign="top">:</td><td><div>/projectlibrary/default/browse</div></td></tr><tr><td style="font-weight:bold;vertical-align:top">SCRIPT_NAME</td><td valign="top">:</td><td><div></div></td></tr><tr><td style="font-weight:bold;vertical-align:top">SERVER_NAME</td><td valign="top">:</td><td><div>kira-Ideapad-Z570</div></td></tr><tr><td style="font-weight:bold;vertical-align:top">SERVER_PORT</td><td valign="top">:</td><td><div>8000</div></td></tr><tr><td style="font-weight:bold;vertical-align:top">SERVER_PROTOCOL</td><td valign="top">:</td><td><div>HTTP/1.1</div></td></tr><tr><td style="font-weight:bold;vertical-align:top">SERVER_SOFTWARE</td><td valign="top">:</td><td><div>Rocket 1.2.6</div></td></tr><tr><td style="font-weight:bold;vertical-align:top">wsgi.errors</td><td valign="top">:</td><td><div>&lt;open file &#x27;&lt;stderr&gt;&#x27;, mode &#x27;w&#x27; at 0xb731b0d0&gt;</div></td></tr><tr><td style="font-weight:bold;vertical-align:top">wsgi.file_wrapper</td><td valign="top">:</td><td><div>&lt;class wsgiref.util.FileWrapper at 0x8a5cb9c&gt;</div></td></tr><tr><td style="font-weight:bold;vertical-align:top">wsgi.input</td><td valign="top">:</td><td><div>&lt;cStringIO.StringO object at 0xb51d9520&gt;</div></td></tr><tr><td style="font-weight:bold;vertical-align:top">wsgi.multiprocess</td><td valign="top">:</td><td><div>False</div></td></tr><tr><td style="font-weight:bold;vertical-align:top">wsgi.multithread</td><td valign="top">:</td><td><div>True</div></td></tr><tr><td style="font-weight:bold;vertical-align:top">wsgi.run_once</td><td valign="top">:</td><td><div>False</div></td></tr><tr><td style="font-weight:bold;vertical-align:top">wsgi.url_scheme</td><td valign="top">:</td><td><div>http</div></td></tr><tr><td style="font-weight:bold;vertical-align:top">wsgi.version</td><td valign="top">:</td><td><div>1</div></td></tr></table></div></td></tr></table></div></td></tr></table></div>'
tRp58
sS'frames'
p59
(lp60
(dp61
S'file'
p62
S'/home/kira/web2py/gluon/restricted.py'
p63
sS'dump'
p64
(dp65
S'environment'
p66
S"{'A': <class 'gluon.html.A'>, 'Auth': <class 'gluon.tools.Auth'>, 'B': <class 'gluon.html.B'>, 'BEAUTIFY': <class 'gluon.html.BEAUTIFY'>, 'BODY': <class 'gluon.html.BODY'>, 'BR': <class 'gluon.html.BR'>, 'BUTTON': <class 'gluon.html.BUTTON'>, 'CAT': <class 'gluon.html.CAT'>, 'CENTER': <class 'gluon.html.CENTER'>, 'CLEANUP': <class 'gluon.validators.CLEANUP'>, ...}"
p67
sS'ccode'
p68
S'<code object <module> at 0xaf01d2a8, file "/home...rojectlibrary/views/default/browse.html", line 1>'
p69
ssS'lnum'
p70
I212
sS'lines'
p71
(dp72
I207
S'    try:'
p73
sI208
S'        if isinstance(code, types.CodeType):'
p74
sI209
S'            ccode = code'
p75
sI210
S'        else:'
p76
sI211
S'            ccode = compile2(code, layer)'
p77
sI212
S'        exec ccode in environment'
p78
sI213
S'    except HTTP:'
p79
sI214
S'        raise'
p80
sI215
S'    except RestrictedError:'
p81
sI216
S'        # do not encapsulate (obfuscate) the original RestrictedError'
p82
ssS'call'
p83
S'(code=\'response.write(\\\'<!DOCTYPE html PUBLIC "-//W3C//D... #footer -->\\\\n </body>\\\\n</html>\\\\n\\\', escape=False)\', environment={\'A\': <class \'gluon.html.A\'>, \'Auth\': <class \'gluon.tools.Auth\'>, \'B\': <class \'gluon.html.B\'>, \'BEAUTIFY\': <class \'gluon.html.BEAUTIFY\'>, \'BODY\': <class \'gluon.html.BODY\'>, \'BR\': <class \'gluon.html.BR\'>, \'BUTTON\': <class \'gluon.html.BUTTON\'>, \'CAT\': <class \'gluon.html.CAT\'>, \'CENTER\': <class \'gluon.html.CENTER\'>, \'CLEANUP\': <class \'gluon.validators.CLEANUP\'>, ...}, layer=\'/home/kira/web2py/applications/projectlibrary/views/default/browse.html\')'
p84
sS'func'
p85
S'restricted'
p86
sa(dp87
g62
S'/home/kira/web2py/applications/projectlibrary/views/default/browse.html'
p88
sg64
(dp89
sg70
I66
sg71
(dp90
I64
S'        pass'
p91
sI65
S'    response.write(\'\\n<div style="float: right;">\\n<h3>Description: </h3>\\n\', escape=False)'
p92
sI66
S'    response.write(project.description)'
p93
sI67
S"    response.write('\\n</div>\\n<br/>\\n', escape=False)"
p94
sI68
S'    response.write(LI(A(some.project_name, _href=URL("project_page",args=some.id))))'
p95
sI69
S"    response.write('\\n</h3>\\n<br/>\\n<br/>\\n<br/>\\n', escape=False)"
p96
sI70
S'    pass'
p97
sI71
S"response.write('\\n</ul>\\n\\n', escape=False)"
p98
sI72
S'response.write(\'\\n   </div>\\n   <!-- end #content -->\\n   <div id="sidebar">\\n</br>\\n</br>\\n</br>\\n<a href="javascript:void(history.go(-1))">\\n<img height=\\\'70\\\' width=\\\'70\\\' src=\', escape=False)'
p99
sI73
S"response.write(URL('static','images/back.jpeg'))"
p100
sI74
S'response.write(\'>\\n</a>\\n&nbsp;\\n&nbsp;\\n&nbsp;\\n<a href="javascript:void(history.go(+1))">\\n<img height=\\\'70\\\' width=\\\'70\\\' src=\', escape=False)'
p101
sI75
S"response.write(URL('static','images/forward.jpeg'))"
p102
sI76
S'response.write(\'>\\n</a>\\n</br>\\n</br>\\n    <ul>\\n     <li>\\n      <h2>\\n       Website Description\\n      </h2>\\n</br>\\n</br>\\n      <p>\\n      ProjectLibrary is desgned for users to upload and share their projects with other users. "Knowledge is of two kinds. We know a subject ourselves, or we know where we can find information upon it.\\n      </br>- <b>Samuel Johnson</b>\\n      </p>\\n     </li> \\n    </ul>\\n   </div>\\n   <!-- end #sidebar -->\\n\\n   <div style="clear: both;">\\n    &nbsp;\\n   </div>\\n\\n  </div>\\n  <!-- end #page -->\\n  <div id="footer">\\n   <p>\\n    Copyright (c) 2013 ProjectLibrary.com. All rights reserved. Design by\\n    Jaspreet Singh &amp; Shikher Somal\\n   </p>\\n  </div>\\n  <!-- end #footer -->\\n </body>\\n</html>\\n\', escape=False)'
p103
sI57
S'        response.write("\\n<img heigth=\'150\' width=\'150\' src=", escape=False)'
p104
sI58
S"        response.write(URL('download',args=some.project_pic))"
p105
sI59
S"        response.write('>\\n', escape=False)"
p106
sI60
S'    else:'
p107
sI61
S'        response.write("\\n<img height=\'150\' width=\'150\' src=", escape=False)'
p108
sI62
S"        response.write(URL('static','images/defaultproject.jpeg'))"
p109
sI63
S"        response.write('>\\n', escape=False)"
p110
ssg83
S'()'
p111
sg85
S'<module>'
p112
sasS'pyver'
p113
S'Python 2.7.3: /usr/bin/python (prefix: /usr)'
p114
sS'session'
p115
g57
(S's\xd2\n\x00\x00<div><table><tr><td style="font-weight:bold;vertical-align:top">auth</td><td valign="top">:</td><td><div><table><tr><td style="font-weight:bold;vertical-align:top">expiration</td><td valign="top">:</td><td><div>3600</div></td></tr><tr><td style="font-weight:bold;vertical-align:top">hmac_key</td><td valign="top">:</td><td><div>8932eb7c-796c-4b53-9ba9-eb62501f3916</div></td></tr><tr><td style="font-weight:bold;vertical-align:top">last_visit</td><td valign="top">:</td><td><div>datetime.datetime(2013, 4, 16, 12, 59, 50, 306027)</div></td></tr><tr><td style="font-weight:bold;vertical-align:top">remember</td><td valign="top">:</td><td><div>False</div></td></tr><tr><td style="font-weight:bold;vertical-align:top">user</td><td valign="top">:</td><td><div><table><tr><td style="font-weight:bold;vertical-align:top">country</td><td valign="top">:</td><td><div>india</div></td></tr><tr><td style="font-weight:bold;vertical-align:top">email</td><td valign="top">:</td><td><div>vi.1@gmail.com</div></td></tr><tr><td style="font-weight:bold;vertical-align:top">first_name</td><td valign="top">:</td><td><div>sid</div></td></tr><tr><td style="font-weight:bold;vertical-align:top">id</td><td valign="top">:</td><td><div>3</div></td></tr><tr><td style="font-weight:bold;vertical-align:top">last_name</td><td valign="top">:</td><td><div>goyal</div></td></tr><tr><td style="font-weight:bold;vertical-align:top">profile_pic</td><td valign="top">:</td><td><div>None</div></td></tr><tr><td style="font-weight:bold;vertical-align:top">registration_date</td><td valign="top">:</td><td><div>datetime.date(2013, 4, 6)</div></td></tr><tr><td style="font-weight:bold;vertical-align:top">registration_id</td><td valign="top">:</td><td><div></div></td></tr><tr><td style="font-weight:bold;vertical-align:top">registration_key</td><td valign="top">:</td><td><div></div></td></tr><tr><td style="font-weight:bold;vertical-align:top">reset_password_key</td><td valign="top">:</td><td><div></div></td></tr><tr><td style="font-weight:bold;vertical-align:top">upload_count</td><td valign="top">:</td><td><div>1</div></td></tr></table></div></td></tr><tr><td style="font-weight:bold;vertical-align:top">user_groups</td><td valign="top">:</td><td><div><table><tr><td style="font-weight:bold;vertical-align:top">2</td><td valign="top">:</td><td><div>user_3</div></td></tr></table></div></td></tr></table></div></td></tr><tr><td style="font-weight:bold;vertical-align:top">flash</td><td valign="top">:</td><td><div>None</div></td></tr><tr><td style="font-weight:bold;vertical-align:top">last_orderby</td><td valign="top">:</td><td><div>None</div></td></tr><tr><td style="font-weight:bold;vertical-align:top">last_query</td><td valign="top">:</td><td><div>db.kolect.id&gt;0</div></td></tr></table></div>'
tRp116
sS'etype'
p117
S"<type 'exceptions.NameError'>"
p118
sS'date'
p119
S'Tue Apr 16 13:03:21 2013'
p120
sS'response'
p121
g57
(S's\xc2#\x00\x00<div><table><tr><td style="font-weight:bold;vertical-align:top">body</td><td valign="top">:</td><td><div>&lt;cStringIO.StringO object at 0x8bae6e0&gt;</div></td></tr><tr><td style="font-weight:bold;vertical-align:top">cookies</td><td valign="top">:</td><td><div><table><tr><td style="font-weight:bold;vertical-align:top">session_id_projectlibrary</td><td valign="top">:</td><td><div>127.0.0.1-4da8508b-a7d7-452b-969e-ed2eaa30c561<table><tr><td style="font-weight:bold;vertical-align:top">comment</td><td valign="top">:</td><td><div></div></td></tr><tr><td style="font-weight:bold;vertical-align:top">domain</td><td valign="top">:</td><td><div></div></td></tr><tr><td style="font-weight:bold;vertical-align:top">expires</td><td valign="top">:</td><td><div></div></td></tr><tr><td style="font-weight:bold;vertical-align:top">httponly</td><td valign="top">:</td><td><div></div></td></tr><tr><td style="font-weight:bold;vertical-align:top">max-age</td><td valign="top">:</td><td><div></div></td></tr><tr><td style="font-weight:bold;vertical-align:top">path</td><td valign="top">:</td><td><div>/</div></td></tr><tr><td style="font-weight:bold;vertical-align:top">secure</td><td valign="top">:</td><td><div></div></td></tr><tr><td style="font-weight:bold;vertical-align:top">version</td><td valign="top">:</td><td><div></div></td></tr></table></div></td></tr></table></div></td></tr><tr><td style="font-weight:bold;vertical-align:top">delimiters</td><td valign="top">:</td><td><div><table><tr><td><div>{{</div></td></tr><tr><td><div>}}</div></td></tr></table></div></td></tr><tr><td style="font-weight:bold;vertical-align:top">files</td><td valign="top">:</td><td><div><table><tr><td><div>/projectlibrary/static/js/jquery.js</div></td></tr><tr><td><div>/projectlibrary/static/css/calendar.css</div></td></tr><tr><td><div>/projectlibrary/static/js/calendar.js</div></td></tr><tr><td><div>/projectlibrary/static/js/web2py.js</div></td></tr><tr><td><div>/projectlibrary/static/plugin_layouts/layouts/OrangeandBlack/style.css</div></td></tr><tr><td><div>/projectlibrary/static/plugin_layouts/superfish.js</div></td></tr></table></div></td></tr><tr><td style="font-weight:bold;vertical-align:top">flash</td><td valign="top">:</td><td><div></div></td></tr><tr><td style="font-weight:bold;vertical-align:top">generic_patterns</td><td valign="top">:</td><td><div><table><tr><td><div>*</div></td></tr></table></div></td></tr><tr><td style="font-weight:bold;vertical-align:top">google_analytics_id</td><td valign="top">:</td><td><div>None</div></td></tr><tr><td style="font-weight:bold;vertical-align:top">headers</td><td valign="top">:</td><td><div><table><tr><td style="font-weight:bold;vertical-align:top">X-Powered-By</td><td valign="top">:</td><td><div>web2py</div></td></tr></table></div></td></tr><tr><td style="font-weight:bold;vertical-align:top">logo</td><td valign="top">:</td><td><div><a class="brand" href="http://www.web2py.com/"><b>web<span>2</span>py</b>&trade;&nbsp;</a></div></td></tr><tr><td style="font-weight:bold;vertical-align:top">menu</td><td valign="top">:</td><td><div><table><tr><td><div><table><tr><td><div>Home</div></td></tr><tr><td><div>False</div></td></tr><tr><td><div>/projectlibrary/default/index</div></td></tr><tr><td><div><table></table></div></td></tr></table></div></td></tr><tr><td><div><table><tr><td><div>Upload</div></td></tr><tr><td><div>False</div></td></tr><tr><td><div>/projectlibrary/default/uploadpage</div></td></tr><tr><td><div><table></table></div></td></tr></table></div></td></tr><tr><td><div><table><tr><td><div>Browse</div></td></tr><tr><td><div>False</div></td></tr><tr><td><div>/projectlibrary/default/browse</div></td></tr><tr><td><div><table><tr><td><div><table><tr><td><div>A-Z</div></td></tr><tr><td><div>False</div></td></tr><tr><td><div>/projectlibrary/default/az</div></td></tr></table></div></td></tr><tr><td><div><table><tr><td><div>Z-A</div></td></tr><tr><td><div>False</div></td></tr><tr><td><div>/projectlibrary/default/za</div></td></tr></table></div></td></tr><tr><td><div><table><tr><td><div>By Comments</div></td></tr><tr><td><div>False</div></td></tr><tr><td><div>/projectlibrary/default/bycomments</div></td></tr><tr><td><div>[(&lt;lazyT &#x27;Most commented&#x27;&gt;, False, &#x27;/projectlibrary/default/most_commented&#x27;)]</div></td></tr></table></div></td></tr><tr><td><div><table><tr><td><div>By Rating</div></td></tr><tr><td><div>False</div></td></tr><tr><td><div>/projectlibrary/default/byrating</div></td></tr></table></div></td></tr><tr><td><div><table><tr><td><div>By Category</div></td></tr><tr><td><div>False</div></td></tr><tr><td><div>/projectlibrary/default/category</div></td></tr></table></div></td></tr><tr><td><div><table><tr><td><div>By Downloads</div></td></tr><tr><td><div>False</div></td></tr><tr><td><div>/projectlibrary/default/bydownloads</div></td></tr><tr><td><div>[(&lt;lazyT &#x27;Most Downloaded&#x27;&gt;, False, &#x27;/projectlibrary/default/mostdownload&#x27;)]</div></td></tr></table></div></td></tr><tr><td><div><table><tr><td><div>By Uploads</div></td></tr><tr><td><div>False</div></td></tr><tr><td><div>/projectlibrary/default/byuploads</div></td></tr><tr><td><div>[(&lt;lazyT &#x27;Most Uploads&#x27;&gt;, False, &#x27;/projectlibrary/default/most_uploaded&#x27;)]</div></td></tr></table></div></td></tr><tr><td><div><table><tr><td><div>Most Recent</div></td></tr><tr><td><div>False</div></td></tr><tr><td><div>/projectlibrary/default/most_recent</div></td></tr></table></div></td></tr></table></div></td></tr></table></div></td></tr><tr><td><div><table><tr><td><div>Most Downloaded</div></td></tr><tr><td><div>False</div></td></tr><tr><td><div>/projectlibrary/default/mostdownload</div></td></tr></table></div></td></tr><tr><td><div><table><tr><td><div>Most Uploads</div></td></tr><tr><td><div>False</div></td></tr><tr><td><div>/projectlibrary/default/most_uploaded</div></td></tr></table></div></td></tr><tr><td><div><table><tr><td><div>Users</div></td></tr><tr><td><div>False</div></td></tr><tr><td><div>/projectlibrary/default/byuploads</div></td></tr></table></div></td></tr></table></div></td></tr><tr><td style="font-weight:bold;vertical-align:top">meta</td><td valign="top">:</td><td><div><table><tr><td style="font-weight:bold;vertical-align:top">author</td><td valign="top">:</td><td><div>Your Name &lt;you@example.com&gt;</div></td></tr><tr><td style="font-weight:bold;vertical-align:top">description</td><td valign="top">:</td><td><div>a cool new app</div></td></tr><tr><td style="font-weight:bold;vertical-align:top">generator</td><td valign="top">:</td><td><div>Web2py Web Framework</div></td></tr><tr><td style="font-weight:bold;vertical-align:top">keywords</td><td valign="top">:</td><td><div>web2py, python, framework</div></td></tr></table></div></td></tr><tr><td style="font-weight:bold;vertical-align:top">models_to_run</td><td valign="top">:</td><td><div><table><tr><td><div>^\\w+\\.py$</div></td></tr><tr><td><div>^default/\\w+\\.py$</div></td></tr><tr><td><div>^default/browse/\\w+\\.py$</div></td></tr></table></div></td></tr><tr><td style="font-weight:bold;vertical-align:top">postprocessing</td><td valign="top">:</td><td><div><table></table></div></td></tr><tr><td style="font-weight:bold;vertical-align:top">session_cookie_expires</td><td valign="top">:</td><td><div>None</div></td></tr><tr><td style="font-weight:bold;vertical-align:top">session_data_name</td><td valign="top">:</td><td><div>session_data_projectlibrary</div></td></tr><tr><td style="font-weight:bold;vertical-align:top">session_file</td><td valign="top">:</td><td><div>&lt;open file &#x27;/home/kira/web2py/applications/projectlibrary/sessions/127.0.0.1-4da8508b-a7d7-452b-969e-ed2eaa30c561&#x27;, mode &#x27;rb+&#x27; at 0xaea7bcd8&gt;</div></td></tr><tr><td style="font-weight:bold;vertical-align:top">session_filename</td><td valign="top">:</td><td><div>/home/kira/web2py/applications/projectlibrary/sessions/127.0.0.1-4da8508b-a7d7-452b-969e-ed2eaa30c561</div></td></tr><tr><td style="font-weight:bold;vertical-align:top">session_id</td><td valign="top">:</td><td><div>127.0.0.1-4da8508b-a7d7-452b-969e-ed2eaa30c561</div></td></tr><tr><td style="font-weight:bold;vertical-align:top">session_id_name</td><td valign="top">:</td><td><div>session_id_projectlibrary</div></td></tr><tr><td style="font-weight:bold;vertical-align:top">session_locked</td><td valign="top">:</td><td><div>True</div></td></tr><tr><td style="font-weight:bold;vertical-align:top">session_new</td><td valign="top">:</td><td><div>False</div></td></tr><tr><td style="font-weight:bold;vertical-align:top">session_storage_type</td><td valign="top">:</td><td><div>file</div></td></tr><tr><td style="font-weight:bold;vertical-align:top">status</td><td valign="top">:</td><td><div>200</div></td></tr><tr><td style="font-weight:bold;vertical-align:top">subtitle</td><td valign="top">:</td><td><div>customize me!</div></td></tr><tr><td style="font-weight:bold;vertical-align:top">title</td><td valign="top">:</td><td><div>Projectlibrary</div></td></tr><tr><td style="font-weight:bold;vertical-align:top">view</td><td valign="top">:</td><td><div>default/browse.html</div></td></tr></table></div>'
tRp122
sS'locals'
p123
(dp124
S'Service'
p125
S"<class 'gluon.tools.Service'>"
p126
sS'OBJECT'
p127
S"<class 'gluon.html.OBJECT'>"
p128
sS'SQLDB'
p129
S"<class 'gluon.dal.DAL'>"
p130
sg115
S"<Storage {'last_query': 'db.kolect.id>0', '_form...login]': '275a8212-36e8-4ef3-9272-36de07eedf3c'}>"
p131
sS'LINK'
p132
S"<class 'gluon.html.LINK'>"
p133
sS'BR'
p134
S"<class 'gluon.html.BR'>"
p135
sS'local_import'
p136
S'<function <lambda>>'
p137
sS'OPTGROUP'
p138
S"<class 'gluon.html.OPTGROUP'>"
p139
sS'__package__'
p140
S'None'
p141
sS'PRE'
p142
S"<class 'gluon.html.PRE'>"
p143
sS'IS_INT_IN_RANGE'
p144
S"<class 'gluon.validators.IS_INT_IN_RANGE'>"
p145
sS'IS_LOWER'
p146
S"<class 'gluon.validators.IS_LOWER'>"
p147
sS'IS_STRONG'
p148
S"<class 'gluon.validators.IS_STRONG'>"
p149
sS'cache'
p150
S'<gluon.cache.Cache object>'
p151
sS'IS_IN_DB'
p152
S"<class 'gluon.validators.IS_IN_DB'>"
p153
sS'TAG'
p154
S'<gluon.html.__TAG__ object>'
p155
sS'SQLField'
p156
S"<class 'gluon.dal.Field'>"
p157
sS'mail'
p158
S'<gluon.tools.Mail object>'
p159
sS'BODY'
p160
S"<class 'gluon.html.BODY'>"
p161
sS'IS_DATE_IN_RANGE'
p162
S"<class 'gluon.validators.IS_DATE_IN_RANGE'>"
p163
sS'IFRAME'
p164
S"<class 'gluon.html.IFRAME'>"
p165
sS'URL'
p166
S'<function URL>'
p167
sS'__file__'
p168
S"'/home/kira/web2py/applications/projectlibrary/views/default/browse.html'"
p169
sS'db'
p170
S'<DAL uri="sqlite://storage.sqlite">'
p171
sS'auth'
p172
S'<gluon.tools.Auth object>'
p173
sS'P'
S"<class 'gluon.html.P'>"
p174
sS'TFOOT'
p175
S"<class 'gluon.html.TFOOT'>"
p176
sS'XHTML'
p177
S"<class 'gluon.html.XHTML'>"
p178
sS'datetime'
p179
S"<module 'datetime' from '/usr/lib/python2.7/lib-dynload/datetime.so'>"
p180
sS'ON'
p181
S'True'
p182
sS'OL'
p183
S"<class 'gluon.html.OL'>"
p184
sS'TEXTAREA'
p185
S"<class 'gluon.html.TEXTAREA'>"
p186
sS'MENU'
p187
S"<class 'gluon.html.MENU'>"
p188
sS'IS_IMAGE'
p189
S"<class 'gluon.validators.IS_IMAGE'>"
p190
sS'EM'
p191
S"<class 'gluon.html.EM'>"
p192
sS'CODE'
p193
S"<class 'gluon.html.CODE'>"
p194
sS'HTTP'
p195
S"<class 'gluon.http.HTTP'>"
p196
sS'HR'
p197
S"<class 'gluon.html.HR'>"
p198
sS'IS_DATETIME'
p199
S"<class 'gluon.validators.IS_DATETIME'>"
p200
sS'some'
p201
S"<Row {'project_name': 'COD', 'description': 'cod...ce & Engineering', 'id': 25, 'num_downloads': 0}>"
p202
sS'STYLE'
p203
S"<class 'gluon.html.STYLE'>"
p204
sS'LABEL'
p205
S"<class 'gluon.html.LABEL'>"
p206
sS'CLEANUP'
p207
S"<class 'gluon.validators.CLEANUP'>"
p208
sS'plugins'
p209
S'<gluon.tools.PluginManager object>'
p210
sS'SELECT'
p211
S"<class 'gluon.html.SELECT'>"
p212
sS'use_janrain'
p213
S'<function use_janrain>'
p214
sS'CENTER'
p215
S"<class 'gluon.html.CENTER'>"
p216
sS'prettydate'
p217
S'<function prettydate>'
p218
sS'custom_auth_table'
p219
S'<Table auth_user (id,first_name,last_name,email,...ssword_key,registration_id,upload_count,country)>'
p220
sS'Crud'
p221
S"<class 'gluon.tools.Crud'>"
p222
sS'Auth'
p223
S"<class 'gluon.tools.Auth'>"
p224
sS'DEVELOPMENT_MENU'
p225
g182
sS'__builtins__'
p226
S"{'ArithmeticError': <type 'exceptions.ArithmeticError'>, 'AssertionError': <type 'exceptions.AssertionError'>, 'AttributeError': <type 'exceptions.AttributeError'>, 'BaseException': <type 'exceptions.BaseException'>, 'BufferError': <type 'exceptions.BufferError'>, 'BytesWarning': <type 'exceptions.BytesWarning'>, 'DeprecationWarning': <type 'exceptions.DeprecationWarning'>, 'EOFError': <type 'exceptions.EOFError'>, 'Ellipsis': Ellipsis, 'EnvironmentError': <type 'exceptions.EnvironmentError'>, ...}"
p227
sS'HTML'
p228
S"<class 'gluon.html.HTML'>"
p229
sS'SQLFORM'
p230
S"<class 'gluon.sqlhtml.SQLFORM'>"
p231
sS'LOAD'
p232
S'<function LOAD>'
p233
sS'redirect'
p234
S'<function redirect>'
p235
sS'FIELDSET'
p236
S"<class 'gluon.html.FIELDSET'>"
p237
sS'IS_EQUAL_TO'
p238
S"<class 'gluon.validators.IS_EQUAL_TO'>"
p239
sS'embed64'
p240
S'<function embed64>'
p241
sS'IS_LIST_OF'
p242
S"<class 'gluon.validators.IS_LIST_OF'>"
p243
sS'INPUT'
p244
S"<class 'gluon.html.INPUT'>"
p245
sS'EMBED'
p246
S"<class 'gluon.html.EMBED'>"
p247
sS'H2'
p248
S"<class 'gluon.html.H2'>"
p249
sS'H3'
p250
S"<class 'gluon.html.H3'>"
p251
sS'BUTTON'
p252
S"<class 'gluon.html.BUTTON'>"
p253
sS'H1'
p254
S"<class 'gluon.html.H1'>"
p255
sS'H6'
p256
S"<class 'gluon.html.H6'>"
p257
sS'H4'
p258
S"<class 'gluon.html.H4'>"
p259
sS'H5'
p260
S"<class 'gluon.html.H5'>"
p261
sS'UL'
p262
S"<class 'gluon.html.UL'>"
p263
sS'IS_UPPER'
p264
S"<class 'gluon.validators.IS_UPPER'>"
p265
sS'xmlescape'
p266
S'<function xmlescape>'
p267
sS'IS_TIME'
p268
S"<class 'gluon.validators.IS_TIME'>"
p269
sS'OPTION'
p270
S"<class 'gluon.html.OPTION'>"
p271
sS'TITLE'
p272
S"<class 'gluon.html.TITLE'>"
p273
sS'CRYPT'
p274
S"<class 'gluon.validators.CRYPT'>"
p275
sS'IS_EMPTY_OR'
p276
S"<class 'gluon.validators.IS_EMPTY_OR'>"
p277
sS'MARKMIN'
p278
S"<class 'gluon.html.MARKMIN'>"
p279
sS'__name__'
p280
S"'__restricted__'"
p281
sS'STRONG'
p282
S"<class 'gluon.html.STRONG'>"
p283
sS'COL'
p284
S"<class 'gluon.html.COL'>"
p285
sS'service'
p286
S'<gluon.tools.Service object>'
p287
sS'SCRIPT'
p288
S"<class 'gluon.html.SCRIPT'>"
p289
sS'TABLE'
p290
S"<class 'gluon.html.TABLE'>"
p291
sS'IS_IPV4'
p292
S"<class 'gluon.validators.IS_IPV4'>"
p293
sS'IS_LENGTH'
p294
S"<class 'gluon.validators.IS_LENGTH'>"
p295
sS'XML'
p296
S"<class 'gluon.html.XML'>"
p297
sS'B'
S"<class 'gluon.html.B'>"
p298
sS'IMG'
p299
S"<class 'gluon.html.IMG'>"
p300
sS'SQLTABLE'
p301
S"<class 'gluon.sqlhtml.SQLTABLE'>"
p302
sS'IS_MATCH'
p303
S"<class 'gluon.validators.IS_MATCH'>"
p304
sS'IS_ALPHANUMERIC'
p305
S"<class 'gluon.validators.IS_ALPHANUMERIC'>"
p306
sS'SPAN'
p307
S"<class 'gluon.html.SPAN'>"
p308
sS'IS_JSON'
p309
S"<class 'gluon.validators.IS_JSON'>"
p310
sS'IS_SLUG'
p311
S"<class 'gluon.validators.IS_SLUG'>"
p312
sS'BEAUTIFY'
p313
S"<class 'gluon.html.BEAUTIFY'>"
p314
sS'META'
p315
S"<class 'gluon.html.META'>"
p316
sS'IS_DATE'
p317
S"<class 'gluon.validators.IS_DATE'>"
p318
sS'IS_EMAIL'
p319
S"<class 'gluon.validators.IS_EMAIL'>"
p320
sS'IS_NOT_EMPTY'
p321
S"<class 'gluon.validators.IS_NOT_EMPTY'>"
p322
sS'IS_FLOAT_IN_RANGE'
p323
S"<class 'gluon.validators.IS_FLOAT_IN_RANGE'>"
p324
sS'TBODY'
p325
S"<class 'gluon.html.TBODY'>"
p326
sS'CAT'
p327
S"<class 'gluon.html.CAT'>"
p328
sS'Field'
p329
S"<class 'gluon.dal.Field'>"
p330
sS'DIV'
p331
S"<class 'gluon.html.DIV'>"
p332
sS'LEGEND'
p333
S"<class 'gluon.html.LEGEND'>"
p334
sS'form'
p335
S'<Rows (14)>'
p336
sS'COLGROUP'
p337
S"<class 'gluon.html.COLGROUP'>"
p338
sS'DAL'
p339
S"<class 'gluon.dal.DAL'>"
p340
sS'TT'
p341
S"<class 'gluon.html.TT'>"
p342
sS'TR'
p343
S"<class 'gluon.html.TR'>"
p344
sS'LI'
p345
S"<class 'gluon.html.LI'>"
p346
sS'TH'
p347
S"<class 'gluon.html.TH'>"
p348
sS'TD'
p349
S"<class 'gluon.html.TD'>"
p350
sS'PluginManager'
p351
S"<class 'gluon.tools.PluginManager'>"
p352
sS'IS_URL'
p353
S"<class 'gluon.validators.IS_URL'>"
p354
sS'A'
S"<class 'gluon.html.A'>"
p355
sS'HEAD'
p356
S"<class 'gluon.html.HEAD'>"
p357
sS'IS_DATETIME_IN_RANGE'
p358
S"<class 'gluon.validators.IS_DATETIME_IN_RANGE'>"
p359
sS'FORM'
p360
S"<class 'gluon.html.FORM'>"
p361
sS'I'
S"<class 'gluon.html.I'>"
p362
sS'crud'
p363
S'<gluon.tools.Crud object>'
p364
sS'IS_NOT_IN_DB'
p365
S"<class 'gluon.validators.IS_NOT_IN_DB'>"
p366
sg121
S"<Storage {'body': <cStringIO.StringO object at 0...> at 0xaf69f7d4>, 'view': 'default/browse.html'}>"
p367
sS'THEAD'
p368
S"<class 'gluon.html.THEAD'>"
p369
sS'IS_NULL_OR'
p370
S"<class 'gluon.validators.IS_EMPTY_OR'>"
p371
sg56
S"<Storage {'function': 'browse', 'body': <cString...ons/projectlibrary/', 'post_vars': <Storage {}>}>"
p372
sS'IS_EXPR'
p373
S"<class 'gluon.validators.IS_EXPR'>"
p374
sS'T'
S'<gluon.languages.translator object>'
p375
sS'IS_IN_SET'
p376
S"<class 'gluon.validators.IS_IN_SET'>"
p377
sS'IS_UPLOAD_FILENAME'
p378
S"<class 'gluon.validators.IS_UPLOAD_FILENAME'>"
p379
sS'IS_DECIMAL_IN_RANGE'
p380
S"<class 'gluon.validators.IS_DECIMAL_IN_RANGE'>"
p381
sssS'traceback'
p382
S'Traceback (most recent call last):\n  File "/home/kira/web2py/gluon/restricted.py", line 212, in restricted\n    exec ccode in environment\n  File "/home/kira/web2py/applications/projectlibrary/views/default/browse.html", line 66, in <module>\nNameError: name \'project\' is not defined\n'
p383
s.