(dp1
S'output'
p2
S"<type 'exceptions.NameError'> name 'addfiles' is not defined"
p3
sS'layer'
p4
S'/home/kira/web2py/applications/projectlibrary/controllers/default.py'
p5
sS'code'
p6
S'# -*- coding: utf-8 -*-\n# this file is released under public domain and you can use without limitations\n\n#########################################################################\n## This is a samples controller\n## - index is the default action of any application\n## - user is required for authentication and authorization\n## - download is for downloading files uploaded in the db (does streaming)\n## - call exposes all registered services (none by default)\n#########################################################################\n\n\ndef index():\n    form = db().select(db.project.ALL, orderby=~db.project.num_downloads)\n    \n    form1 = db().select(db.project.ALL, orderby=~db.project.date_added)\n    return dict(form=form,form1=form1)\n    """\n    example action using the internationalization operator T and flash\n    rendered by views/default/index.html or views/generic.html\n\n    if you need a simple wiki simple replace the two lines below with:\n    return auth.wiki()\n    """\n    response.flash = T("Welcome to Project Library")\n    return dict(message=T(\'Search - Download - Upload\'))\n\n\ndef user():\n    """\n    exposes:\n    http://..../[app]/default/user/login\n    http://..../[app]/default/user/logout\n    http://..../[app]/default/user/register\n    http://..../[app]/default/user/profile\n    http://..../[app]/default/user/retrieve_password\n    http://..../[app]/default/user/change_password\n    use @auth.requires_login()\n        @auth.requires_membership(\'group name\')\n        @auth.requires_permission(\'read\',\'table name\',record_id)\n    to decorate functions that need access control\n    """\n    return dict(form=auth())\n\n\ndef download():\n    """\n    allows downloading of uploaded files\n    http://..../[app]/default/download/[filename]\n    """\n    return response.download(request, db)\n\n\ndef call():\n    """\n    exposes services. for example:\n    http://..../[app]/default/call/jsonrpc\n    decorate with @services.jsonrpc the functions to expose\n    supports xml, json, xmlrpc, jsonrpc, amfrpc, rss, csv\n    """\n    return service()\n\n\n@auth.requires_signature()\ndef data():\n    """\n    http://..../[app]/default/data/tables\n    http://..../[app]/default/data/create/[table]\n    http://..../[app]/default/data/read/[table]/[id]\n    http://..../[app]/default/data/update/[table]/[id]\n    http://..../[app]/default/data/delete/[table]/[id]\n    http://..../[app]/default/data/select/[table]\n    http://..../[app]/default/data/search/[table]\n    but URLs must be signed, i.e. linked with\n      A(\'table\',_href=URL(\'data/tables\',user_signature=True))\n    or with the signed load operator\n      LOAD(\'default\',\'data.load\',args=\'tables\',ajax=True,user_signature=True)\n    """\n    return dict(form=crud())\n\ndef search_func():\n\tform = db().select(db.project.ALL, orderby=db.project.project_name)\n\tform1=db().select(db.auth_user.ALL)\n\tt= request.vars.s\n\treturn dict(t=t,form=form,form1=form1)\n\ndef register():\n\tform = crud.create(db.auth_user)\n\treturn dict(form=form)\n\n\t\n"""\ndef za():\n\tproject = db().select(db.project.ALL, orderby=db.project.project_name)\n\tlinks = [lambda row: A(\'Project Page\',_href=URL("default","project_page",args=[project.id]))]\n\tform1 =SQLFORM.grid(db.project.id>0, orderby="project.project_name DESC",links=links,links_in_grid=True, csv=False,deletable=False,editable=False,details=False)\n\treturn dict(form1=form1)\n\ndef az():\n\tproject = db().select(db.project.ALL, orderby=db.project.project_name)\n\tlinks = [lambda row: A(\'Project Page\',_href=URL("default","project_page",args=[project.id]))]\n\tform =SQLFORM.grid(db.project.id>0, links_in_grid=True, links=links ,orderby="project.project_name",csv=False,deletable=False,editable=False,details=False)\n\treturn dict(form=form)\n"""\n\n\ndef profile():\n\tredirect(URL(\'allprofile\',args=auth.user.id))\n\n\ndef editprofile():\n\trow=db(db.allowed_users.other_email==auth.user.email).select()\n\tdb.auth_user.email.writable=False\n\treturn dict(form=auth.profile(),row=row)\n\ndef allprofile():\n\tform =db(db.auth_user.id==request.args(0,cast=int)).select()\n\trow=db(db.allowed_users.other_email==auth.user.email).select()\n\treturn dict(form=form,row=row)\n\ndef byuploads():\n\tform = db().select(db.auth_user.ALL, orderby=~db.auth_user.upload_count)\n\treturn dict(form = form)\n\ndef most_recent():\n\tform = db().select(db.project.ALL, orderby=~db.project.date_added)\n\treturn dict(form=form)\n\t\ndef bycomments():\n\tform = db().select(db.project.ALL, orderby=~db.project.num_comments)\n\treturn dict(form=form)\n\ndef bydownloads():\n\tform = db().select(db.project.ALL, orderby=~db.project.num_downloads)\n\treturn dict(form=form)\n\ndef byrating():\n\tform = db().select(db.project.ALL, orderby=~db.project.avg_rating)\n\treturn dict(form=form)\n\ndef az():\n\tform = db().select(db.project.ALL, orderby=db.project.project_name)\n\treturn dict(form=form)\ndef za():\n\tform1 = db().select(db.project.ALL, orderby=~db.project.project_name)\n\treturn dict(form1=form1)\ndef browse():\n\tform = db().select(db.project.ALL, orderby=db.project.project_name)\n\treturn dict(form=form)\n\n@auth.requires_login()\ndef uploadpage():\n\treturn dict()\n"""\ndef addfiles():\n\t\n\timport os\n\tproject=db.project(request.args(0,cast=int)) or redirect(URL(\'index\'))\n\tprint request.args(0)\t\n\ts=s+\'/uploads/\'+str(project.project_name)\n\tform = SQLFORM.factory(\n\t\t\tField(\'add_files\',\'upload\',requires=True,uploadfolder=os.path.join(request.folder,s))\n\t\t\t\t\n\t\t)\n\treturn dict(form=form)\n"""\ndef oldproject():\n\trow=db(db.allowed_users.other_email==auth.user.email).select()\n\treturn dict(row=row)\n\n\t\ndef newproject():\n\tform = SQLFORM(db.project)\n\n\n\tif form.process().accepted:\n\t\timport os\n\t\ts=os.getcwd()\n\t\ts=s+\'/applications/projectlibrary/uploads/\'+str(request.vars.project_name)\n\t\tos.mkdir(s)\n\t\trow=db(db.project.project_name==request.vars.project_name).validate_and_update(projectadmin_email=auth.user.email)\n\t\trow1=db(db.auth_user.email==auth.user.email).select()\n\t\trow1[0].upload_count = row1[0].upload_count + 1\n\t\trow1[0].update_record()\n\t\n\n\treturn dict(form=form)\n\ndef category():\n\tform = db().select(db.project.ALL, orderby=db.project.project_name)\n\treturn dict(form=form)\n\ndef listofprojects():\n\tform =db(db.project.category==request.args(0,cast=str)).select()\n\treturn dict(form=form)\n\ndef most_uploaded():\n\tform = db().select(db.auth_user.ALL)\n\treturn dict(form=form)\n\n\ndef most_rated():\n\tform = db().select(db.project.ALL)\n\treturn dict(form=form)\n\ndef most_commented():\n\tform = db().select(db.project.ALL)\n\treturn dict(form=form)\n\ndef download_func():\n\tproject=db.project(request.args(0,cast=int)) or redirect(URL(\'index\'))\n\tproject.num_downloads=project.num_downloads + 1\n\tproject.update_record()\n\tredirect(URL(\'download\',args=project.project_file))\n\ndef mostdownload():\n\tform=db().select(db.project.ALL)\n\treturn dict(form=form)\n"""\ndef clear():\n\tdb.project.truncate()\n\tdb.auth_user.truncate()\n\tdb.comments.truncate()\n\treturn dict()\n"""\n\n@auth.requires_login()\ndef delproject():\n\t\n\tproject = db.project(request.args(0,cast=int)) or redirect(URL(\'index\'))\n\n\tdb(db.allowed_users.project_name==project.project_name).delete()\n\tdb(request.args(0,cast=int)==db.project.id).delete()\n\tsession.flash = \'Project deleted\'\n\tredirect(URL(\'editprofile\',args=auth.user.id))\n\n@auth.requires_login()\ndef editproject():\n\tproject = db.project(request.args(0,cast=int)) or redirect(URL(\'index\'))\n\t\n\tform = SQLFORM.factory(\n\t\t\tField(\'description\',type=\'text\',default=project.description),\n\t\t\tField(\'project_file\', \'upload\',default=project.project_file),\n\t\t\tField(\'projectadmin_email\',writable=False,readable=False,default=auth.user.email),\n## add versions\n\t\t\tField(\'type_of_project\',requires=IS_IN_SET([\'Course\',\'Thesis\',\'Research Paper\',\'MSIT\',\'Other\']),default=project.type_of_project),\n\t\t\tField(\'category\',requires=IS_IN_SET([\'Audio & Video\',\'Business & Enterprise\',\'Communications\',\'Development\',\'Home & Education\',\'Games\',\'Graphics\',\'Science & Engineering\',\'Websites\',\'Others\']),default=project.category),\n\t\t\tField(\'project_admin_year\',requires=IS_IN_SET([\'BTECH\',\'MS\',\'MTECH\',\'PHD\']),default=project.project_admin_year)\n\t\t\n\t\t\t)\n\tif form.process().accepted:\n\t\tsession.flash=\'Project Details Updated\'\n\t\tdb(db.project.id==request.args(0,cast=int)).update(description=form.vars.description,project_file=form.vars.project_file,type_of_project=form.vars.type_of_project,category=form.vars.category,project_admin_year=form.vars.project_admin_year)\n\t\tredirect(URL(\'editproject\',args=project.id))\n\treturn dict(form=form,project=project)\n\ndef project_page():\n\tproject = db.project(request.args(0,cast=int)) or redirect(URL(\'index\'))\n\tdb.comments.project_id.default = project.id\n\tform = SQLFORM(db.comments)\n\tcomments = db(db.comments.project_id==project.id).select()\n\treturn dict(project=project, comments=comments, form=form)\n\n@auth.requires_login()\ndef commentandrate():\n\tproject = db.project(request.args(0,cast=int)) or redirect(URL(\'index\'))\n\tdb.comments.project_id.default = project.id\n\tform = SQLFORM(db.comments)\n\tform1= SQLFORM.factory(\n\t\tField(\'rating\',type=\'integer\',requires=IS_IN_SET([1,2,3,4,5])))\n\t\n\tif form.process().accepted:\n\t\trow=db(db.comments.comment_c==request.vars.comment_c).select().last()\n\t\trow.commenter_c=auth.user.email\n\t\trow.update_record()\n\t\tresponse.flash = \'your comment is posted\'\n\t\n\tif form1.process().accepted:\n\t\tresponse.flash = \'your rating has been added\'\n\t\tproject.num_rating = project.num_rating + 1\n\t\tproject.total_rating = int(project.total_rating) + int(request.vars.rating)\n\t\tproject.update_record()\n\t\n\tcomments = db(db.comments.project_id==project.id).select()\n\t\n\treturn dict(project=project, comments=comments, form=form,form1=form1)\n\ndef collo_error():\n\treturn dict()\n"""\ndef delete_collo():\n\tprint request.args(1)\n\treturn  dict()\n"""\ndef confirm_delcollo():\n\t\n\tuser = db.allowed_users(request.args(0,cast=int)) or redirect(URL(\'index\'))\n\tproject=db(db.allowed_users.project_name==user.project_name).select()\n\tdb(request.args(0,cast=int)==db.allowed_users.id).delete()\n\tredirect(URL(\'project_page\',args=project[0].id))\n\t\ndef delcollo():\n\n\tproject = db.project(request.args(0,cast=int))\n\trow=db(db.allowed_users.project_name==project.project_name).select()\n\n\tif auth.user.email==project.projectadmin_email:\n\t\t\treturn dict(row=row,project=project)\n\telse:\n\t\t\tredirect(URL(\'collo_error\',args=project.id))\n\n\n@auth.requires_login()\ndef addcollo():\n\t\n\tproject = db.project(request.args(0,cast=int)) or redirect(URL(\'index\'))\n\t\n#\trow=db(project.project_name==db.allowed_users.project_name).select()\n\n\tform1 = SQLFORM.factory(\n\t\tField(\'add_collaborator\',type=\'string\',requires=IS_EMAIL())\n\t\t)\n \n\trow1=db(db.allowed_users.project_name==project.project_name).select()\n\t\n\tif form1.process().accepted:\n\t\tdb.allowed_users.insert(other_email=request.vars.add_collaborator)\n\t\trow=db(db.allowed_users.other_email==request.vars.add_collaborator).select().last()\n\t\trow.project_name=project.project_name\n\t\trow.projectadmin_email=auth.user.email\n\t\trow.update_record()\n\t\tredirect(URL(\'project_page\',args=project.id))\n\t\t\n\n\tif auth.user.email==project.projectadmin_email:\n\t\t\treturn dict(form1=form1,project=project,row1=row1)\n\telse:\n\t\t\tredirect(URL(\'collo_error\',args=project.id))\n\t\n\n\n\n\n\t\n"""def login():\n\tform=SQLFORM.factory(\n\t\t\tField(\'user\',type=\'string\',requires=IS_NOT_EMPTY()),\n\t\t\tField(\'password\',type=\'password\'),\n\t\t\tField(\'dateofbirth\',type=\'date\')\n\t)\n\tif form.process().accepted:\n\t\trow=db(db.register.Username==request.vars.user).select()\n\t\tif request.vars.password==row[0][\'Password\']:\n\t\t\tredirect(URL(\'upload\'))\n\t\telse:\n\t\t\tresponse.flash=\'Invalid username or password\'\n\telse:\n\t \tresponse.flash=\'Error\'\n\n\treturn dict(form=form)\n"""\n#def a():\n#\tsongs=db(db.Song.Singer==3).select(db.Song.Name)\n#\treturn dict(songs=songs)\n#import datetime\n#def b():\n#\trecord=db((db.Artist.job==\'Singer\') & (db.Artist.Name==\'Balu\') & (db.Artist.id==db.Song.Singer) ).select(db.Song.Name)\n#\treturn dict(record=record)\n#def c():\n#\trecord=db((db.Artist.Name==\'Balu\') & (db.Artist.job==\'Singer\')& (db.Artist.id==db.Song.Singer) & (db.Song.Movie==db.Movie.id) & (db.Movie.Name==\'Shankarabharanam\')).select(db.Song.Name)\n#\treturn dict(record=record)\n#def d():\n#\trecord=db((db.Artist.Name==\'Balu\') & (db.Artist.job==\'Singer\')& (db.Artist.id==db.Song.Singer) & (db.Song.Movie==db.Movie.id) & (db.Movie.Movie_release<datetime.date(2000,1,1))).select((db.Song.Name),(db.Song.Actor_singing))\n#\tx=[]\n#\tfor i in range(len(record)):\n#\t\tr=db(db.Artist.id==record[i][\'Actor_singing\']).select(db.Artist.Name)\n#\t\tx.append(r[0][\'Name\'])\n#\t\n#\treturn locals()\n#def e():\n#\trecord=db((db.Rating.Rating>=4) & (db.Rating.Song==db.Song.id) & (db.Song.Singer==db.Artist.id) & (db.Artist.job==\'Singer\')).select(db.Song.Name,db.Artist.Name)\n#\treturn dict(record=record)\n#def f_input():\n#\tform=SQLFORM.factory(\n#\tdb.Field(\'idno\',db.Artist,requires=IS_IN_DB(db,\'Artist.id\',\'Artist.id\'),label=\'Select id\'))\n#\tif form.accepts(request.vars,session):\n#\t\tredirect(URL(r=request,f=\'show_f/%s\' %request.post_vars[\'idno\']))\n#\telif form.errors:\n#\t        response.flash(\'There is error in the form\')\n#\treturn dict(form=form)\n#def show_f():\n#\tArtist=(request.args(0,cast=int))\n#\trecord=db(db.Artist.id==Artist).select(db.Artist.job)\n#\tfor i in record:\n#\t\tif i[\'job\']==\'Actor\':\n#\t\t\tans=db(db.Movie.Hero==Artist).select(db.Movie.Name)\n#\t\telif i[\'job\']==\'Singer\':\n#\t\t\tans=db(db.Song.Singer==Artist).select(db.Song.Name)\n#\t\telif i[\'Job\']==\'Director\':\n#\t\t\tans=db(db.Movie.Director==Artist).select(db.Movie.Name)\n#\t\treturn dict(i=i,ans=ans)\n\nresponse._vars=response._caller(addfiles)\n'
p7
sS'snapshot'
p8
(dp9
S'exception'
p10
(dp11
S'__hash__'
p12
S"<method-wrapper '__hash__' of exceptions.NameError object>"
p13
sS'__setattr__'
p14
S"<method-wrapper '__setattr__' of exceptions.NameError object>"
p15
sS'__reduce_ex__'
p16
S'<built-in method __reduce_ex__ of exceptions.NameError object>'
p17
sS'__getslice__'
p18
S"<method-wrapper '__getslice__' of exceptions.NameError object>"
p19
sS'__getitem__'
p20
S"<method-wrapper '__getitem__' of exceptions.NameError object>"
p21
sS'__setstate__'
p22
S'<built-in method __setstate__ of exceptions.NameError object>'
p23
sS'__reduce__'
p24
S'<built-in method __reduce__ of exceptions.NameError object>'
p25
sS'__str__'
p26
S"<method-wrapper '__str__' of exceptions.NameError object>"
p27
sS'__format__'
p28
S'<built-in method __format__ of exceptions.NameError object>'
p29
sS'__getattribute__'
p30
S"<method-wrapper '__getattribute__' of exceptions.NameError object>"
p31
sS'__class__'
p32
S"<type 'exceptions.NameError'>"
p33
sS'__unicode__'
p34
S'<built-in method __unicode__ of exceptions.NameError object>'
p35
sS'__delattr__'
p36
S"<method-wrapper '__delattr__' of exceptions.NameError object>"
p37
sS'__subclasshook__'
p38
S'<built-in method __subclasshook__ of type object>'
p39
sS'__repr__'
p40
S"<method-wrapper '__repr__' of exceptions.NameError object>"
p41
sS'args'
p42
S'("name \'addfiles\' is not defined",)'
p43
sS'__dict__'
p44
S'{}'
p45
sS'__sizeof__'
p46
S'<built-in method __sizeof__ of exceptions.NameError object>'
p47
sS'__doc__'
p48
S"'Name not found globally.'"
p49
sS'__init__'
p50
S"<method-wrapper '__init__' of exceptions.NameError object>"
p51
sS'__new__'
p52
S'<built-in method __new__ of type object>'
p53
ssS'evalue'
p54
S"name 'addfiles' is not defined"
p55
sS'request'
p56
cgluon.html
XML_unpickle
p57
(S's\xf3T\x00\x00<div><table><tr><td style="font-weight:bold;vertical-align:top">ajax</td><td valign="top">:</td><td><div>False</div></td></tr><tr><td style="font-weight:bold;vertical-align:top">application</td><td valign="top">:</td><td><div>projectlibrary</div></td></tr><tr><td style="font-weight:bold;vertical-align:top">args</td><td valign="top">:</td><td><div><table><tr><td><div>12</div></td></tr></table></div></td></tr><tr><td style="font-weight:bold;vertical-align:top">body</td><td valign="top">:</td><td><div>&lt;cStringIO.StringO object at 0x9956420&gt;</div></td></tr><tr><td style="font-weight:bold;vertical-align:top">cid</td><td valign="top">:</td><td><div>None</div></td></tr><tr><td style="font-weight:bold;vertical-align:top">client</td><td valign="top">:</td><td><div>127.0.0.1</div></td></tr><tr><td style="font-weight:bold;vertical-align:top">controller</td><td valign="top">:</td><td><div>default</div></td></tr><tr><td style="font-weight:bold;vertical-align:top">cookies</td><td valign="top">:</td><td><div><table><tr><td style="font-weight:bold;vertical-align:top">session_id_admin</td><td valign="top">:</td><td><div>127.0.0.1-3e784eda-5ba6-439c-a512-a7d38a165e1a<table><tr><td style="font-weight:bold;vertical-align:top">comment</td><td valign="top">:</td><td><div></div></td></tr><tr><td style="font-weight:bold;vertical-align:top">domain</td><td valign="top">:</td><td><div></div></td></tr><tr><td style="font-weight:bold;vertical-align:top">expires</td><td valign="top">:</td><td><div></div></td></tr><tr><td style="font-weight:bold;vertical-align:top">httponly</td><td valign="top">:</td><td><div></div></td></tr><tr><td style="font-weight:bold;vertical-align:top">max-age</td><td valign="top">:</td><td><div></div></td></tr><tr><td style="font-weight:bold;vertical-align:top">path</td><td valign="top">:</td><td><div></div></td></tr><tr><td style="font-weight:bold;vertical-align:top">secure</td><td valign="top">:</td><td><div></div></td></tr><tr><td style="font-weight:bold;vertical-align:top">version</td><td valign="top">:</td><td><div></div></td></tr></table></div></td></tr><tr><td style="font-weight:bold;vertical-align:top">session_id_projectlibrary</td><td valign="top">:</td><td><div>127.0.0.1-d1b49a64-d64c-48e4-88fd-d3b60c571600<table><tr><td style="font-weight:bold;vertical-align:top">comment</td><td valign="top">:</td><td><div></div></td></tr><tr><td style="font-weight:bold;vertical-align:top">domain</td><td valign="top">:</td><td><div></div></td></tr><tr><td style="font-weight:bold;vertical-align:top">expires</td><td valign="top">:</td><td><div></div></td></tr><tr><td style="font-weight:bold;vertical-align:top">httponly</td><td valign="top">:</td><td><div></div></td></tr><tr><td style="font-weight:bold;vertical-align:top">max-age</td><td valign="top">:</td><td><div></div></td></tr><tr><td style="font-weight:bold;vertical-align:top">path</td><td valign="top">:</td><td><div></div></td></tr><tr><td style="font-weight:bold;vertical-align:top">secure</td><td valign="top">:</td><td><div></div></td></tr><tr><td style="font-weight:bold;vertical-align:top">version</td><td valign="top">:</td><td><div></div></td></tr></table></div></td></tr><tr><td style="font-weight:bold;vertical-align:top">session_id_welcome</td><td valign="top">:</td><td><div>127.0.0.1-46166444-2815-42f7-9dca-bb4a1b3caae4<table><tr><td style="font-weight:bold;vertical-align:top">comment</td><td valign="top">:</td><td><div></div></td></tr><tr><td style="font-weight:bold;vertical-align:top">domain</td><td valign="top">:</td><td><div></div></td></tr><tr><td style="font-weight:bold;vertical-align:top">expires</td><td valign="top">:</td><td><div></div></td></tr><tr><td style="font-weight:bold;vertical-align:top">httponly</td><td valign="top">:</td><td><div></div></td></tr><tr><td style="font-weight:bold;vertical-align:top">max-age</td><td valign="top">:</td><td><div></div></td></tr><tr><td style="font-weight:bold;vertical-align:top">path</td><td valign="top">:</td><td><div></div></td></tr><tr><td style="font-weight:bold;vertical-align:top">secure</td><td valign="top">:</td><td><div></div></td></tr><tr><td style="font-weight:bold;vertical-align:top">version</td><td valign="top">:</td><td><div></div></td></tr></table></div></td></tr></table></div></td></tr><tr><td style="font-weight:bold;vertical-align:top">env</td><td valign="top">:</td><td><div><table><tr><td style="font-weight:bold;vertical-align:top">app_folders</td><td valign="top">:</td><td><div>set([&#x27;/home/kira/web2py/applications/admin/&#x27;, &#x27;/home/kira/web2py/applications/welcome/&#x27;, &#x27;/home/kira/web2py/applications/projectlibrary/&#x27;])</div></td></tr><tr><td style="font-weight:bold;vertical-align:top">applications_parent</td><td valign="top">:</td><td><div>/home/kira/web2py</div></td></tr><tr><td style="font-weight:bold;vertical-align:top">cmd_args</td><td valign="top">:</td><td><div><table></table></div></td></tr><tr><td style="font-weight:bold;vertical-align:top">cmd_options</td><td valign="top">:</td><td><div>&lt;Values at 0x969cf4c: {&#x27;verbose&#x27;: False, &#x27;ip&#x27;: &#x27;127.0.0.1&#x27;, &#x27;with_scheduler&#x27;: False, &#x27;ips&#x27;: [], &#x27;shutdown_timeout&#x27;: 5, &#x27;taskbar&#x27;: False, &#x27;port&#x27;: 8000, &#x27;maxthreads&#x27;: None, &#x27;softcron&#x27;: False, &#x27;server_name&#x27;: &#x27;kira-Ideapad-Z570&#x27;, &#x27;bpython&#x27;: False, &#x27;nogui&#x27;: False, &#x27;pid_filename&#x27;: &#x27;httpserver.pid&#x27;, &#x27;extcron&#x27;: False, &#x27;runcron&#x27;: False, &#x27;run_system_tests&#x27;: False, &#x27;test&#x27;: None, &#x27;folder&#x27;: &#x27;/home/kira/web2py&#x27;, &#x27;config&#x27;: &#x27;&#x27;, &#x27;import_models&#x27;: False, &#x27;winservice&#x27;: &#x27;&#x27;, &#x27;shell&#x27;: None, &#x27;run&#x27;: &#x27;&#x27;, &#x27;log_filename&#x27;: &#x27;httpserver.log&#x27;, &#x27;debuglevel&#x27;: 30, &#x27;args&#x27;: [&#x27;&#x27;], &#x27;socket_timeout&#x27;: 5, &#x27;ssl_ca_certificate&#x27;: None, &#x27;scheduler&#x27;: None, &#x27;profiler_filename&#x27;: None, &#x27;ssl_private_key&#x27;: &#x27;&#x27;, &#x27;scheduler_groups&#x27;: None, &#x27;password&#x27;: &#x27;asd&#x27;, &#x27;request_queue_size&#x27;: 5, &#x27;ssl_certificate&#x27;: &#x27;&#x27;, &#x27;cronjob&#x27;: False, &#x27;numthreads&#x27;: None, &#x27;quiet&#x27;: False, &#x27;interfaces&#x27;: None, &#x27;minthreads&#x27;: None, &#x27;timeout&#x27;: 10, &#x27;plain&#x27;: False, &#x27;nobanner&#x27;: False}&gt;</div></td></tr><tr><td style="font-weight:bold;vertical-align:top">db_sessions</td><td valign="top">:</td><td><div>set([])</div></td></tr><tr><td style="font-weight:bold;vertical-align:top">debugging</td><td valign="top">:</td><td><div>False</div></td></tr><tr><td style="font-weight:bold;vertical-align:top">gluon_parent</td><td valign="top">:</td><td><div>/home/kira/web2py</div></td></tr><tr><td style="font-weight:bold;vertical-align:top">http_accept</td><td valign="top">:</td><td><div>text/html,application/xhtml+xml,application/xml;q=0.9,*/*;q=0.8</div></td></tr><tr><td style="font-weight:bold;vertical-align:top">http_accept_encoding</td><td valign="top">:</td><td><div>gzip, deflate</div></td></tr><tr><td style="font-weight:bold;vertical-align:top">http_accept_language</td><td valign="top">:</td><td><div>en-us,en;q=0.5</div></td></tr><tr><td style="font-weight:bold;vertical-align:top">http_connection</td><td valign="top">:</td><td><div>keep-alive</div></td></tr><tr><td style="font-weight:bold;vertical-align:top">http_cookie</td><td valign="top">:</td><td><div>session_id_projectlibrary=127.0.0.1-d1b49a64-d64c-48e4-88fd-d3b60c571600; session_id_welcome=127.0.0.1-46166444-2815-42f7-9dca-bb4a1b3caae4; session_id_admin=127.0.0.1-3e784eda-5ba6-439c-a512-a7d38a165e1a</div></td></tr><tr><td style="font-weight:bold;vertical-align:top">http_host</td><td valign="top">:</td><td><div>127.0.0.1:8000</div></td></tr><tr><td style="font-weight:bold;vertical-align:top">http_referer</td><td valign="top">:</td><td><div>http://127.0.0.1:8000/projectlibrary/default/oldproject</div></td></tr><tr><td style="font-weight:bold;vertical-align:top">http_user_agent</td><td valign="top">:</td><td><div>Mozilla/5.0 (X11; Ubuntu; Linux i686; rv:11.0) Gecko/20100101 Firefox/11.0</div></td></tr><tr><td style="font-weight:bold;vertical-align:top">is_jython</td><td valign="top">:</td><td><div>False</div></td></tr><tr><td style="font-weight:bold;vertical-align:top">is_pypy</td><td valign="top">:</td><td><div>False</div></td></tr><tr><td style="font-weight:bold;vertical-align:top">local_hosts</td><td valign="top">:</td><td><div><table><tr><td><div>kira-Ideapad-Z570</div></td></tr><tr><td><div>::1</div></td></tr><tr><td><div>127.0.1.1</div></td></tr><tr><td><div>::ffff:127.0.0.1</div></td></tr><tr><td><div>127.0.0.1</div></td></tr></table></div></td></tr><tr><td style="font-weight:bold;vertical-align:top">path_info</td><td valign="top">:</td><td><div>/projectlibrary/default/addfiles/12</div></td></tr><tr><td style="font-weight:bold;vertical-align:top">query_string</td><td valign="top">:</td><td><div></div></td></tr><tr><td style="font-weight:bold;vertical-align:top">remote_addr</td><td valign="top">:</td><td><div>127.0.0.1</div></td></tr><tr><td style="font-weight:bold;vertical-align:top">remote_port</td><td valign="top">:</td><td><div>48956</div></td></tr><tr><td style="font-weight:bold;vertical-align:top">request_method</td><td valign="top">:</td><td><div>GET</div></td></tr><tr><td style="font-weight:bold;vertical-align:top">request_uri</td><td valign="top">:</td><td><div>/projectlibrary/default/addfiles/12</div></td></tr><tr><td style="font-weight:bold;vertical-align:top">script_name</td><td valign="top">:</td><td><div></div></td></tr><tr><td style="font-weight:bold;vertical-align:top">server_name</td><td valign="top">:</td><td><div>kira-Ideapad-Z570</div></td></tr><tr><td style="font-weight:bold;vertical-align:top">server_port</td><td valign="top">:</td><td><div>8000</div></td></tr><tr><td style="font-weight:bold;vertical-align:top">server_protocol</td><td valign="top">:</td><td><div>HTTP/1.1</div></td></tr><tr><td style="font-weight:bold;vertical-align:top">server_software</td><td valign="top">:</td><td><div>Rocket 1.2.6</div></td></tr><tr><td style="font-weight:bold;vertical-align:top">web2py_path</td><td valign="top">:</td><td><div>/home/kira/web2py</div></td></tr><tr><td style="font-weight:bold;vertical-align:top">web2py_version</td><td valign="top">:</td><td><div><table><tr><td><div>2</div></td></tr><tr><td><div>4</div></td></tr><tr><td><div>2</div></td></tr><tr><td><div>stable</div></td></tr><tr><td><div>datetime.datetime(2013, 3, 4, 3, 26, 21)</div></td></tr></table></div></td></tr><tr><td style="font-weight:bold;vertical-align:top">wsgi_errors</td><td valign="top">:</td><td><div>&lt;open file &#x27;&lt;stderr&gt;&#x27;, mode &#x27;w&#x27; at 0xb73360d0&gt;</div></td></tr><tr><td style="font-weight:bold;vertical-align:top">wsgi_file_wrapper</td><td valign="top">:</td><td><div>&lt;class wsgiref.util.FileWrapper at 0x9629bfc&gt;</div></td></tr><tr><td style="font-weight:bold;vertical-align:top">wsgi_input</td><td valign="top">:</td><td><div>&lt;socket._fileobject object at 0xaef9ee2c&gt;</div></td></tr><tr><td style="font-weight:bold;vertical-align:top">wsgi_multiprocess</td><td valign="top">:</td><td><div>False</div></td></tr><tr><td style="font-weight:bold;vertical-align:top">wsgi_multithread</td><td valign="top">:</td><td><div>True</div></td></tr><tr><td style="font-weight:bold;vertical-align:top">wsgi_run_once</td><td valign="top">:</td><td><div>False</div></td></tr><tr><td style="font-weight:bold;vertical-align:top">wsgi_url_scheme</td><td valign="top">:</td><td><div>http</div></td></tr><tr><td style="font-weight:bold;vertical-align:top">wsgi_version</td><td valign="top">:</td><td><div><table><tr><td><div>1</div></td></tr><tr><td><div>0</div></td></tr></table></div></td></tr></table></div></td></tr><tr><td style="font-weight:bold;vertical-align:top">extension</td><td valign="top">:</td><td><div>html</div></td></tr><tr><td style="font-weight:bold;vertical-align:top">folder</td><td valign="top">:</td><td><div>/home/kira/web2py/applications/projectlibrary/</div></td></tr><tr><td style="font-weight:bold;vertical-align:top">function</td><td valign="top">:</td><td><div>addfiles</div></td></tr><tr><td style="font-weight:bold;vertical-align:top">get_vars</td><td valign="top">:</td><td><div><table></table></div></td></tr><tr><td style="font-weight:bold;vertical-align:top">global_settings</td><td valign="top">:</td><td><div><table><tr><td style="font-weight:bold;vertical-align:top">app_folders</td><td valign="top">:</td><td><div>set([&#x27;/home/kira/web2py/applications/admin/&#x27;, &#x27;/home/kira/web2py/applications/welcome/&#x27;, &#x27;/home/kira/web2py/applications/projectlibrary/&#x27;])</div></td></tr><tr><td style="font-weight:bold;vertical-align:top">applications_parent</td><td valign="top">:</td><td><div>/home/kira/web2py</div></td></tr><tr><td style="font-weight:bold;vertical-align:top">cmd_args</td><td valign="top">:</td><td><div><table></table></div></td></tr><tr><td style="font-weight:bold;vertical-align:top">cmd_options</td><td valign="top">:</td><td><div>&lt;Values at 0x969cf4c: {&#x27;verbose&#x27;: False, &#x27;ip&#x27;: &#x27;127.0.0.1&#x27;, &#x27;with_scheduler&#x27;: False, &#x27;ips&#x27;: [], &#x27;shutdown_timeout&#x27;: 5, &#x27;taskbar&#x27;: False, &#x27;port&#x27;: 8000, &#x27;maxthreads&#x27;: None, &#x27;softcron&#x27;: False, &#x27;server_name&#x27;: &#x27;kira-Ideapad-Z570&#x27;, &#x27;bpython&#x27;: False, &#x27;nogui&#x27;: False, &#x27;pid_filename&#x27;: &#x27;httpserver.pid&#x27;, &#x27;extcron&#x27;: False, &#x27;runcron&#x27;: False, &#x27;run_system_tests&#x27;: False, &#x27;test&#x27;: None, &#x27;folder&#x27;: &#x27;/home/kira/web2py&#x27;, &#x27;config&#x27;: &#x27;&#x27;, &#x27;import_models&#x27;: False, &#x27;winservice&#x27;: &#x27;&#x27;, &#x27;shell&#x27;: None, &#x27;run&#x27;: &#x27;&#x27;, &#x27;log_filename&#x27;: &#x27;httpserver.log&#x27;, &#x27;debuglevel&#x27;: 30, &#x27;args&#x27;: [&#x27;&#x27;], &#x27;socket_timeout&#x27;: 5, &#x27;ssl_ca_certificate&#x27;: None, &#x27;scheduler&#x27;: None, &#x27;profiler_filename&#x27;: None, &#x27;ssl_private_key&#x27;: &#x27;&#x27;, &#x27;scheduler_groups&#x27;: None, &#x27;password&#x27;: &#x27;asd&#x27;, &#x27;request_queue_size&#x27;: 5, &#x27;ssl_certificate&#x27;: &#x27;&#x27;, &#x27;cronjob&#x27;: False, &#x27;numthreads&#x27;: None, &#x27;quiet&#x27;: False, &#x27;interfaces&#x27;: None, &#x27;minthreads&#x27;: None, &#x27;timeout&#x27;: 10, &#x27;plain&#x27;: False, &#x27;nobanner&#x27;: False}&gt;</div></td></tr><tr><td style="font-weight:bold;vertical-align:top">db_sessions</td><td valign="top">:</td><td><div>set([])</div></td></tr><tr><td style="font-weight:bold;vertical-align:top">debugging</td><td valign="top">:</td><td><div>False</div></td></tr><tr><td style="font-weight:bold;vertical-align:top">gluon_parent</td><td valign="top">:</td><td><div>/home/kira/web2py</div></td></tr><tr><td style="font-weight:bold;vertical-align:top">is_jython</td><td valign="top">:</td><td><div>False</div></td></tr><tr><td style="font-weight:bold;vertical-align:top">is_pypy</td><td valign="top">:</td><td><div>False</div></td></tr><tr><td style="font-weight:bold;vertical-align:top">local_hosts</td><td valign="top">:</td><td><div><table><tr><td><div>kira-Ideapad-Z570</div></td></tr><tr><td><div>::1</div></td></tr><tr><td><div>127.0.1.1</div></td></tr><tr><td><div>::ffff:127.0.0.1</div></td></tr><tr><td><div>127.0.0.1</div></td></tr></table></div></td></tr><tr><td style="font-weight:bold;vertical-align:top">web2py_version</td><td valign="top">:</td><td><div><table><tr><td><div>2</div></td></tr><tr><td><div>4</div></td></tr><tr><td><div>2</div></td></tr><tr><td><div>stable</div></td></tr><tr><td><div>datetime.datetime(2013, 3, 4, 3, 26, 21)</div></td></tr></table></div></td></tr></table></div></td></tr><tr><td style="font-weight:bold;vertical-align:top">is_https</td><td valign="top">:</td><td><div>False</div></td></tr><tr><td style="font-weight:bold;vertical-align:top">is_local</td><td valign="top">:</td><td><div>True</div></td></tr><tr><td style="font-weight:bold;vertical-align:top">is_restful</td><td valign="top">:</td><td><div>False</div></td></tr><tr><td style="font-weight:bold;vertical-align:top">now</td><td valign="top">:</td><td><div>datetime.datetime(2013, 4, 6, 19, 7, 57, 223174)</div></td></tr><tr><td style="font-weight:bold;vertical-align:top">post_vars</td><td valign="top">:</td><td><div><table></table></div></td></tr><tr><td style="font-weight:bold;vertical-align:top">raw_args</td><td valign="top">:</td><td><div>12</div></td></tr><tr><td style="font-weight:bold;vertical-align:top">raw_extension</td><td valign="top">:</td><td><div>None</div></td></tr><tr><td style="font-weight:bold;vertical-align:top">url</td><td valign="top">:</td><td><div>/projectlibrary/default/addfiles/12</div></td></tr><tr><td style="font-weight:bold;vertical-align:top">utcnow</td><td valign="top">:</td><td><div>datetime.datetime(2013, 4, 6, 13, 37, 57, 223231)</div></td></tr><tr><td style="font-weight:bold;vertical-align:top">uuid</td><td valign="top">:</td><td><div>projectlibrary/127.0.0.1.2013-04-06.19-07-57.463e9c02-d8dd-4a39-85e8-c5bc77137d94</div></td></tr><tr><td style="font-weight:bold;vertical-align:top">vars</td><td valign="top">:</td><td><div><table></table></div></td></tr><tr><td style="font-weight:bold;vertical-align:top">wsgi</td><td valign="top">:</td><td><div><table><tr><td style="font-weight:bold;vertical-align:top">environ</td><td valign="top">:</td><td><div><table><tr><td style="font-weight:bold;vertical-align:top">HTTP_ACCEPT</td><td valign="top">:</td><td><div>text/html,application/xhtml+xml,application/xml;q=0.9,*/*;q=0.8</div></td></tr><tr><td style="font-weight:bold;vertical-align:top">HTTP_ACCEPT_ENCODING</td><td valign="top">:</td><td><div>gzip, deflate</div></td></tr><tr><td style="font-weight:bold;vertical-align:top">HTTP_ACCEPT_LANGUAGE</td><td valign="top">:</td><td><div>en-us,en;q=0.5</div></td></tr><tr><td style="font-weight:bold;vertical-align:top">HTTP_CONNECTION</td><td valign="top">:</td><td><div>keep-alive</div></td></tr><tr><td style="font-weight:bold;vertical-align:top">HTTP_COOKIE</td><td valign="top">:</td><td><div>session_id_projectlibrary=127.0.0.1-d1b49a64-d64c-48e4-88fd-d3b60c571600; session_id_welcome=127.0.0.1-46166444-2815-42f7-9dca-bb4a1b3caae4; session_id_admin=127.0.0.1-3e784eda-5ba6-439c-a512-a7d38a165e1a</div></td></tr><tr><td style="font-weight:bold;vertical-align:top">HTTP_HOST</td><td valign="top">:</td><td><div>127.0.0.1:8000</div></td></tr><tr><td style="font-weight:bold;vertical-align:top">HTTP_REFERER</td><td valign="top">:</td><td><div>http://127.0.0.1:8000/projectlibrary/default/oldproject</div></td></tr><tr><td style="font-weight:bold;vertical-align:top">HTTP_USER_AGENT</td><td valign="top">:</td><td><div>Mozilla/5.0 (X11; Ubuntu; Linux i686; rv:11.0) Gecko/20100101 Firefox/11.0</div></td></tr><tr><td style="font-weight:bold;vertical-align:top">PATH_INFO</td><td valign="top">:</td><td><div>/projectlibrary/default/addfiles/12</div></td></tr><tr><td style="font-weight:bold;vertical-align:top">QUERY_STRING</td><td valign="top">:</td><td><div></div></td></tr><tr><td style="font-weight:bold;vertical-align:top">REMOTE_ADDR</td><td valign="top">:</td><td><div>127.0.0.1</div></td></tr><tr><td style="font-weight:bold;vertical-align:top">REMOTE_PORT</td><td valign="top">:</td><td><div>48956</div></td></tr><tr><td style="font-weight:bold;vertical-align:top">REQUEST_METHOD</td><td valign="top">:</td><td><div>GET</div></td></tr><tr><td style="font-weight:bold;vertical-align:top">REQUEST_URI</td><td valign="top">:</td><td><div>/projectlibrary/default/addfiles/12</div></td></tr><tr><td style="font-weight:bold;vertical-align:top">SCRIPT_NAME</td><td valign="top">:</td><td><div></div></td></tr><tr><td style="font-weight:bold;vertical-align:top">SERVER_NAME</td><td valign="top">:</td><td><div>kira-Ideapad-Z570</div></td></tr><tr><td style="font-weight:bold;vertical-align:top">SERVER_PORT</td><td valign="top">:</td><td><div>8000</div></td></tr><tr><td style="font-weight:bold;vertical-align:top">SERVER_PROTOCOL</td><td valign="top">:</td><td><div>HTTP/1.1</div></td></tr><tr><td style="font-weight:bold;vertical-align:top">SERVER_SOFTWARE</td><td valign="top">:</td><td><div>Rocket 1.2.6</div></td></tr><tr><td style="font-weight:bold;vertical-align:top">wsgi.errors</td><td valign="top">:</td><td><div>&lt;open file &#x27;&lt;stderr&gt;&#x27;, mode &#x27;w&#x27; at 0xb73360d0&gt;</div></td></tr><tr><td style="font-weight:bold;vertical-align:top">wsgi.file_wrapper</td><td valign="top">:</td><td><div>&lt;class wsgiref.util.FileWrapper at 0x9629bfc&gt;</div></td></tr><tr><td style="font-weight:bold;vertical-align:top">wsgi.input</td><td valign="top">:</td><td><div>&lt;cStringIO.StringO object at 0x9956420&gt;</div></td></tr><tr><td style="font-weight:bold;vertical-align:top">wsgi.multiprocess</td><td valign="top">:</td><td><div>False</div></td></tr><tr><td style="font-weight:bold;vertical-align:top">wsgi.multithread</td><td valign="top">:</td><td><div>True</div></td></tr><tr><td style="font-weight:bold;vertical-align:top">wsgi.run_once</td><td valign="top">:</td><td><div>False</div></td></tr><tr><td style="font-weight:bold;vertical-align:top">wsgi.url_scheme</td><td valign="top">:</td><td><div>http</div></td></tr><tr><td style="font-weight:bold;vertical-align:top">wsgi.version</td><td valign="top">:</td><td><div>1</div></td></tr></table></div></td></tr></table></div></td></tr></table></div>'
tRp58
sS'frames'
p59
(lp60
(dp61
S'file'
p62
S'/home/kira/web2py/gluon/restricted.py'
p63
sS'dump'
p64
(dp65
S'environment'
p66
S"{'A': <class 'gluon.html.A'>, 'Auth': <class 'gluon.tools.Auth'>, 'B': <class 'gluon.html.B'>, 'BEAUTIFY': <class 'gluon.html.BEAUTIFY'>, 'BODY': <class 'gluon.html.BODY'>, 'BR': <class 'gluon.html.BR'>, 'BUTTON': <class 'gluon.html.BUTTON'>, 'CAT': <class 'gluon.html.CAT'>, 'CENTER': <class 'gluon.html.CENTER'>, 'CLEANUP': <class 'gluon.validators.CLEANUP'>, ...}"
p67
sS'ccode'
p68
S'<code object <module> at 0xae93bda0, file "/home.../projectlibrary/controllers/default.py", line 13>'
p69
ssS'lnum'
p70
I212
sS'lines'
p71
(dp72
I207
S'    try:'
p73
sI208
S'        if isinstance(code, types.CodeType):'
p74
sI209
S'            ccode = code'
p75
sI210
S'        else:'
p76
sI211
S'            ccode = compile2(code, layer)'
p77
sI212
S'        exec ccode in environment'
p78
sI213
S'    except HTTP:'
p79
sI214
S'        raise'
p80
sI215
S'    except RestrictedError:'
p81
sI216
S'        # do not encapsulate (obfuscate) the original RestrictedError'
p82
ssS'call'
p83
S"(code='# -*- coding: utf-8 -*-\\n# this file is released ...=ans)\\n\\nresponse._vars=response._caller(addfiles)\\n', environment={'A': <class 'gluon.html.A'>, 'Auth': <class 'gluon.tools.Auth'>, 'B': <class 'gluon.html.B'>, 'BEAUTIFY': <class 'gluon.html.BEAUTIFY'>, 'BODY': <class 'gluon.html.BODY'>, 'BR': <class 'gluon.html.BR'>, 'BUTTON': <class 'gluon.html.BUTTON'>, 'CAT': <class 'gluon.html.CAT'>, 'CENTER': <class 'gluon.html.CENTER'>, 'CLEANUP': <class 'gluon.validators.CLEANUP'>, ...}, layer='/home/kira/web2py/applications/projectlibrary/controllers/default.py')"
p84
sS'func'
p85
S'restricted'
p86
sa(dp87
g62
S'/home/kira/web2py/applications/projectlibrary/controllers/default.py'
p88
sg64
(dp89
sg70
I403
sg71
(dp90
I392
S'#\tArtist=(request.args(0,cast=int))'
p91
sI393
S'#\trecord=db(db.Artist.id==Artist).select(db.Artist.job)'
p92
sI394
S'#\tfor i in record:'
p93
sI395
S"#\t\tif i['job']=='Actor':"
p94
sI396
S'#\t\t\tans=db(db.Movie.Hero==Artist).select(db.Movie.Name)'
p95
sI397
S"#\t\telif i['job']=='Singer':"
p96
sI398
S'#\t\t\tans=db(db.Song.Singer==Artist).select(db.Song.Name)'
p97
sI399
S"#\t\telif i['Job']=='Director':"
p98
sI400
S'#\t\t\tans=db(db.Movie.Director==Artist).select(db.Movie.Name)'
p99
sI401
S'#\t\treturn dict(i=i,ans=ans)'
p100
ssg83
S'()'
p101
sg85
S'<module>'
p102
sasS'pyver'
p103
S'Python 2.7.3: /usr/bin/python (prefix: /usr)'
p104
sS'session'
p105
g57
(S's]\n\x00\x00<div><table><tr><td style="font-weight:bold;vertical-align:top">auth</td><td valign="top">:</td><td><div><table><tr><td style="font-weight:bold;vertical-align:top">expiration</td><td valign="top">:</td><td><div>3600</div></td></tr><tr><td style="font-weight:bold;vertical-align:top">hmac_key</td><td valign="top">:</td><td><div>185fb215-1f79-4811-bf9e-bdc4b0f3833f</div></td></tr><tr><td style="font-weight:bold;vertical-align:top">last_visit</td><td valign="top">:</td><td><div>datetime.datetime(2013, 4, 6, 19, 7, 50, 21486)</div></td></tr><tr><td style="font-weight:bold;vertical-align:top">remember</td><td valign="top">:</td><td><div>False</div></td></tr><tr><td style="font-weight:bold;vertical-align:top">user</td><td valign="top">:</td><td><div><table><tr><td style="font-weight:bold;vertical-align:top">country</td><td valign="top">:</td><td><div>india</div></td></tr><tr><td style="font-weight:bold;vertical-align:top">email</td><td valign="top">:</td><td><div>jp@gmail.com</div></td></tr><tr><td style="font-weight:bold;vertical-align:top">first_name</td><td valign="top">:</td><td><div>jaspreet</div></td></tr><tr><td style="font-weight:bold;vertical-align:top">id</td><td valign="top">:</td><td><div>1</div></td></tr><tr><td style="font-weight:bold;vertical-align:top">last_name</td><td valign="top">:</td><td><div>singh</div></td></tr><tr><td style="font-weight:bold;vertical-align:top">registration_date</td><td valign="top">:</td><td><div>None</div></td></tr><tr><td style="font-weight:bold;vertical-align:top">registration_id</td><td valign="top">:</td><td><div></div></td></tr><tr><td style="font-weight:bold;vertical-align:top">registration_key</td><td valign="top">:</td><td><div></div></td></tr><tr><td style="font-weight:bold;vertical-align:top">reset_password_key</td><td valign="top">:</td><td><div></div></td></tr><tr><td style="font-weight:bold;vertical-align:top">upload_count</td><td valign="top">:</td><td><div>15</div></td></tr></table></div></td></tr><tr><td style="font-weight:bold;vertical-align:top">user_groups</td><td valign="top">:</td><td><div><table></table></div></td></tr></table></div></td></tr><tr><td style="font-weight:bold;vertical-align:top">flash</td><td valign="top">:</td><td><div>None</div></td></tr><tr><td style="font-weight:bold;vertical-align:top">last_orderby</td><td valign="top">:</td><td><div>None</div></td></tr><tr><td style="font-weight:bold;vertical-align:top">last_query</td><td valign="top">:</td><td><div>db.allowed_users.id&gt;0</div></td></tr><tr><td style="font-weight:bold;vertical-align:top">response</td><td valign="top">:</td><td><div>Project deleted</div></td></tr></table></div>'
tRp106
sS'etype'
p107
S"<type 'exceptions.NameError'>"
p108
sS'date'
p109
S'Sat Apr  6 19:07:57 2013'
p110
sS'response'
p111
g57
(S'sa!\x00\x00<div><table><tr><td style="font-weight:bold;vertical-align:top">body</td><td valign="top">:</td><td><div>&lt;cStringIO.StringO object at 0xadd06aa0&gt;</div></td></tr><tr><td style="font-weight:bold;vertical-align:top">cookies</td><td valign="top">:</td><td><div><table><tr><td style="font-weight:bold;vertical-align:top">session_id_projectlibrary</td><td valign="top">:</td><td><div>127.0.0.1-d1b49a64-d64c-48e4-88fd-d3b60c571600<table><tr><td style="font-weight:bold;vertical-align:top">comment</td><td valign="top">:</td><td><div></div></td></tr><tr><td style="font-weight:bold;vertical-align:top">domain</td><td valign="top">:</td><td><div></div></td></tr><tr><td style="font-weight:bold;vertical-align:top">expires</td><td valign="top">:</td><td><div></div></td></tr><tr><td style="font-weight:bold;vertical-align:top">httponly</td><td valign="top">:</td><td><div></div></td></tr><tr><td style="font-weight:bold;vertical-align:top">max-age</td><td valign="top">:</td><td><div></div></td></tr><tr><td style="font-weight:bold;vertical-align:top">path</td><td valign="top">:</td><td><div>/</div></td></tr><tr><td style="font-weight:bold;vertical-align:top">secure</td><td valign="top">:</td><td><div></div></td></tr><tr><td style="font-weight:bold;vertical-align:top">version</td><td valign="top">:</td><td><div></div></td></tr></table></div></td></tr></table></div></td></tr><tr><td style="font-weight:bold;vertical-align:top">delimiters</td><td valign="top">:</td><td><div><table><tr><td><div>{{</div></td></tr><tr><td><div>}}</div></td></tr></table></div></td></tr><tr><td style="font-weight:bold;vertical-align:top">files</td><td valign="top">:</td><td><div><table></table></div></td></tr><tr><td style="font-weight:bold;vertical-align:top">flash</td><td valign="top">:</td><td><div></div></td></tr><tr><td style="font-weight:bold;vertical-align:top">generic_patterns</td><td valign="top">:</td><td><div><table><tr><td><div>*</div></td></tr></table></div></td></tr><tr><td style="font-weight:bold;vertical-align:top">google_analytics_id</td><td valign="top">:</td><td><div>None</div></td></tr><tr><td style="font-weight:bold;vertical-align:top">headers</td><td valign="top">:</td><td><div><table><tr><td style="font-weight:bold;vertical-align:top">X-Powered-By</td><td valign="top">:</td><td><div>web2py</div></td></tr></table></div></td></tr><tr><td style="font-weight:bold;vertical-align:top">logo</td><td valign="top">:</td><td><div><a class="brand" href="http://www.web2py.com/"><b>web<span>2</span>py</b>&trade;&nbsp;</a></div></td></tr><tr><td style="font-weight:bold;vertical-align:top">menu</td><td valign="top">:</td><td><div><table><tr><td><div><table><tr><td><div>Home</div></td></tr><tr><td><div>False</div></td></tr><tr><td><div>/projectlibrary/default/index</div></td></tr><tr><td><div><table></table></div></td></tr></table></div></td></tr><tr><td><div><table><tr><td><div>Upload</div></td></tr><tr><td><div>False</div></td></tr><tr><td><div>/projectlibrary/default/uploadpage</div></td></tr><tr><td><div><table></table></div></td></tr></table></div></td></tr><tr><td><div><table><tr><td><div>Browse</div></td></tr><tr><td><div>False</div></td></tr><tr><td><div>/projectlibrary/default/browse</div></td></tr><tr><td><div><table><tr><td><div><table><tr><td><div>A-Z</div></td></tr><tr><td><div>False</div></td></tr><tr><td><div>/projectlibrary/default/az</div></td></tr></table></div></td></tr><tr><td><div><table><tr><td><div>Z-A</div></td></tr><tr><td><div>False</div></td></tr><tr><td><div>/projectlibrary/default/za</div></td></tr></table></div></td></tr><tr><td><div><table><tr><td><div>By Comments</div></td></tr><tr><td><div>False</div></td></tr><tr><td><div>/projectlibrary/default/bycomments</div></td></tr><tr><td><div>[(&lt;lazyT &#x27;Most commented&#x27;&gt;, False, &#x27;/projectlibrary/default/most_commented&#x27;)]</div></td></tr></table></div></td></tr><tr><td><div><table><tr><td><div>By Rating</div></td></tr><tr><td><div>False</div></td></tr><tr><td><div>/projectlibrary/default/byrating</div></td></tr></table></div></td></tr><tr><td><div><table><tr><td><div>By Category</div></td></tr><tr><td><div>False</div></td></tr><tr><td><div>/projectlibrary/default/category</div></td></tr></table></div></td></tr><tr><td><div><table><tr><td><div>By Downloads</div></td></tr><tr><td><div>False</div></td></tr><tr><td><div>/projectlibrary/default/bydownloads</div></td></tr><tr><td><div>[(&lt;lazyT &#x27;Most Downloaded&#x27;&gt;, False, &#x27;/projectlibrary/default/mostdownload&#x27;)]</div></td></tr></table></div></td></tr><tr><td><div><table><tr><td><div>By Uploads</div></td></tr><tr><td><div>False</div></td></tr><tr><td><div>/projectlibrary/default/byuploads</div></td></tr><tr><td><div>[(&lt;lazyT &#x27;Most Uploads&#x27;&gt;, False, &#x27;/projectlibrary/default/most_uploaded&#x27;)]</div></td></tr></table></div></td></tr><tr><td><div><table><tr><td><div>Most Recent</div></td></tr><tr><td><div>False</div></td></tr><tr><td><div>/projectlibrary/default/most_recent</div></td></tr></table></div></td></tr></table></div></td></tr></table></div></td></tr><tr><td><div><table><tr><td><div>Most Downloaded</div></td></tr><tr><td><div>False</div></td></tr><tr><td><div>/projectlibrary/default/mostdownload</div></td></tr></table></div></td></tr><tr><td><div><table><tr><td><div>Most Uploads</div></td></tr><tr><td><div>False</div></td></tr><tr><td><div>/projectlibrary/default/most_uploaded</div></td></tr></table></div></td></tr></table></div></td></tr><tr><td style="font-weight:bold;vertical-align:top">meta</td><td valign="top">:</td><td><div><table><tr><td style="font-weight:bold;vertical-align:top">author</td><td valign="top">:</td><td><div>Your Name &lt;you@example.com&gt;</div></td></tr><tr><td style="font-weight:bold;vertical-align:top">description</td><td valign="top">:</td><td><div>a cool new app</div></td></tr><tr><td style="font-weight:bold;vertical-align:top">generator</td><td valign="top">:</td><td><div>Web2py Web Framework</div></td></tr><tr><td style="font-weight:bold;vertical-align:top">keywords</td><td valign="top">:</td><td><div>web2py, python, framework</div></td></tr></table></div></td></tr><tr><td style="font-weight:bold;vertical-align:top">models_to_run</td><td valign="top">:</td><td><div><table><tr><td><div>^\\w+\\.py$</div></td></tr><tr><td><div>^default/\\w+\\.py$</div></td></tr><tr><td><div>^default/addfiles/\\w+\\.py$</div></td></tr></table></div></td></tr><tr><td style="font-weight:bold;vertical-align:top">postprocessing</td><td valign="top">:</td><td><div><table></table></div></td></tr><tr><td style="font-weight:bold;vertical-align:top">session_cookie_expires</td><td valign="top">:</td><td><div>None</div></td></tr><tr><td style="font-weight:bold;vertical-align:top">session_data_name</td><td valign="top">:</td><td><div>session_data_projectlibrary</div></td></tr><tr><td style="font-weight:bold;vertical-align:top">session_file</td><td valign="top">:</td><td><div>&lt;open file &#x27;/home/kira/web2py/applications/projectlibrary/sessions/127.0.0.1-d1b49a64-d64c-48e4-88fd-d3b60c571600&#x27;, mode &#x27;rb+&#x27; at 0xae903650&gt;</div></td></tr><tr><td style="font-weight:bold;vertical-align:top">session_filename</td><td valign="top">:</td><td><div>/home/kira/web2py/applications/projectlibrary/sessions/127.0.0.1-d1b49a64-d64c-48e4-88fd-d3b60c571600</div></td></tr><tr><td style="font-weight:bold;vertical-align:top">session_id</td><td valign="top">:</td><td><div>127.0.0.1-d1b49a64-d64c-48e4-88fd-d3b60c571600</div></td></tr><tr><td style="font-weight:bold;vertical-align:top">session_id_name</td><td valign="top">:</td><td><div>session_id_projectlibrary</div></td></tr><tr><td style="font-weight:bold;vertical-align:top">session_locked</td><td valign="top">:</td><td><div>True</div></td></tr><tr><td style="font-weight:bold;vertical-align:top">session_new</td><td valign="top">:</td><td><div>False</div></td></tr><tr><td style="font-weight:bold;vertical-align:top">session_storage_type</td><td valign="top">:</td><td><div>file</div></td></tr><tr><td style="font-weight:bold;vertical-align:top">status</td><td valign="top">:</td><td><div>200</div></td></tr><tr><td style="font-weight:bold;vertical-align:top">subtitle</td><td valign="top">:</td><td><div>customize me!</div></td></tr><tr><td style="font-weight:bold;vertical-align:top">title</td><td valign="top">:</td><td><div>Projectlibrary</div></td></tr><tr><td style="font-weight:bold;vertical-align:top">view</td><td valign="top">:</td><td><div>default/addfiles.html</div></td></tr></table></div>'
tRp112
sS'locals'
p113
(dp114
S'Service'
p115
S"<class 'gluon.tools.Service'>"
p116
sS'OBJECT'
p117
S"<class 'gluon.html.OBJECT'>"
p118
sS'LOAD'
p119
S'<function LOAD>'
p120
sS'SQLDB'
p121
S"<class 'gluon.dal.DAL'>"
p122
sS'delproject'
p123
S'<function delproject>'
p124
sg105
S"<Storage {'last_query': 'db.allowed_users.id>0',...reate]': 'b5058b48-77de-4d29-b742-8e90a3ee5233'}>"
p125
sS'LINK'
p126
S"<class 'gluon.html.LINK'>"
p127
sS'mostdownload'
p128
S'<function mostdownload>'
p129
sS'BR'
p130
S"<class 'gluon.html.BR'>"
p131
sS'local_import'
p132
S'<function <lambda>>'
p133
sS'OPTGROUP'
p134
S"<class 'gluon.html.OPTGROUP'>"
p135
sS'LI'
p136
S"<class 'gluon.html.LI'>"
p137
sS'most_commented'
p138
S'<function most_commented>'
p139
sS'byuploads'
p140
S'<function byuploads>'
p141
sS'PRE'
p142
S"<class 'gluon.html.PRE'>"
p143
sS'IS_INT_IN_RANGE'
p144
S"<class 'gluon.validators.IS_INT_IN_RANGE'>"
p145
sS'IS_LOWER'
p146
S"<class 'gluon.validators.IS_LOWER'>"
p147
sS'IS_STRONG'
p148
S"<class 'gluon.validators.IS_STRONG'>"
p149
sS'editproject'
p150
S'<function editproject>'
p151
sS'collo_error'
p152
S'<function collo_error>'
p153
sS'cache'
p154
S'<gluon.cache.Cache object>'
p155
sS'IS_IN_DB'
p156
S"<class 'gluon.validators.IS_IN_DB'>"
p157
sS'TAG'
p158
S'<gluon.html.__TAG__ object>'
p159
sS'SQLField'
p160
S"<class 'gluon.dal.Field'>"
p161
sS'mail'
p162
S'<gluon.tools.Mail object>'
p163
sS'BODY'
p164
S"<class 'gluon.html.BODY'>"
p165
sS'IS_DATE_IN_RANGE'
p166
S"<class 'gluon.validators.IS_DATE_IN_RANGE'>"
p167
sS'TH'
p168
S"<class 'gluon.html.TH'>"
p169
sS'URL'
p170
S'<function URL>'
p171
sS'search_func'
p172
S'<function search_func>'
p173
sS'db'
p174
S'<DAL uri="sqlite://storage.sqlite">'
p175
sS'auth'
p176
S'<gluon.tools.Auth object>'
p177
sS'P'
S"<class 'gluon.html.P'>"
p178
sS'TFOOT'
p179
S"<class 'gluon.html.TFOOT'>"
p180
sS'XHTML'
p181
S"<class 'gluon.html.XHTML'>"
p182
sS'datetime'
p183
S"<module 'datetime' from '/usr/lib/python2.7/lib-dynload/datetime.so'>"
p184
sS'ON'
p185
S'True'
p186
sS'OL'
p187
S"<class 'gluon.html.OL'>"
p188
sS'TEXTAREA'
p189
S"<class 'gluon.html.TEXTAREA'>"
p190
sS'MENU'
p191
S"<class 'gluon.html.MENU'>"
p192
sS'listofprojects'
p193
S'<function listofprojects>'
p194
sS'A'
S"<class 'gluon.html.A'>"
p195
sS'CODE'
p196
S"<class 'gluon.html.CODE'>"
p197
sS'HTTP'
p198
S"<class 'gluon.http.HTTP'>"
p199
sS'HR'
p200
S"<class 'gluon.html.HR'>"
p201
sS'IS_DATETIME'
p202
S"<class 'gluon.validators.IS_DATETIME'>"
p203
sS'most_rated'
p204
S'<function most_rated>'
p205
sS'za'
p206
S'<function za>'
p207
sS'LABEL'
p208
S"<class 'gluon.html.LABEL'>"
p209
sS'CLEANUP'
p210
S"<class 'gluon.validators.CLEANUP'>"
p211
sS'plugins'
p212
S'<gluon.tools.PluginManager object>'
p213
sS'download'
p214
S'<function download>'
p215
sS'SELECT'
p216
S"<class 'gluon.html.SELECT'>"
p217
sS'category'
p218
S'<function category>'
p219
sS'index'
p220
S'<function index>'
p221
sS'use_janrain'
p222
S'<function use_janrain>'
p223
sS'CENTER'
p224
S"<class 'gluon.html.CENTER'>"
p225
sS'prettydate'
p226
S'<function prettydate>'
p227
sS'redirect'
p228
S'<function redirect>'
p229
sS'custom_auth_table'
p230
S'<Table auth_user (id,first_name,last_name,email,...ssword_key,registration_id,upload_count,country)>'
p231
sS'project_page'
p232
S'<function project_page>'
p233
sS'Crud'
p234
S"<class 'gluon.tools.Crud'>"
p235
sS'Auth'
p236
S"<class 'gluon.tools.Auth'>"
p237
sS'DEVELOPMENT_MENU'
p238
g186
sS'__builtins__'
p239
S"{'ArithmeticError': <type 'exceptions.ArithmeticError'>, 'AssertionError': <type 'exceptions.AssertionError'>, 'AttributeError': <type 'exceptions.AttributeError'>, 'BaseException': <type 'exceptions.BaseException'>, 'BufferError': <type 'exceptions.BufferError'>, 'BytesWarning': <type 'exceptions.BytesWarning'>, 'DeprecationWarning': <type 'exceptions.DeprecationWarning'>, 'EOFError': <type 'exceptions.EOFError'>, 'Ellipsis': Ellipsis, 'EnvironmentError': <type 'exceptions.EnvironmentError'>, ...}"
p240
sS'HTML'
p241
S"<class 'gluon.html.HTML'>"
p242
sS'SQLFORM'
p243
S"<class 'gluon.sqlhtml.SQLFORM'>"
p244
sS'addcollo'
p245
S'<function addcollo>'
p246
sS'uploadpage'
p247
S'<function uploadpage>'
p248
sS'EM'
p249
S"<class 'gluon.html.EM'>"
p250
sS'byrating'
p251
S'<function byrating>'
p252
sS'FIELDSET'
p253
S"<class 'gluon.html.FIELDSET'>"
p254
sS'IS_EQUAL_TO'
p255
S"<class 'gluon.validators.IS_EQUAL_TO'>"
p256
sS'oldproject'
p257
S'<function oldproject>'
p258
sS'HEAD'
p259
S"<class 'gluon.html.HEAD'>"
p260
sS'embed64'
p261
S'<function embed64>'
p262
sS'IS_LIST_OF'
p263
S"<class 'gluon.validators.IS_LIST_OF'>"
p264
sS'__name__'
p265
S"'__restricted__'"
p266
sS'EMBED'
p267
S"<class 'gluon.html.EMBED'>"
p268
sS'bycomments'
p269
S'<function bycomments>'
p270
sS'FORM'
p271
S"<class 'gluon.html.FORM'>"
p272
sS'H2'
p273
S"<class 'gluon.html.H2'>"
p274
sS'H3'
p275
S"<class 'gluon.html.H3'>"
p276
sS'BUTTON'
p277
S"<class 'gluon.html.BUTTON'>"
p278
sS'H1'
p279
S"<class 'gluon.html.H1'>"
p280
sS'H6'
p281
S"<class 'gluon.html.H6'>"
p282
sS'H4'
p283
S"<class 'gluon.html.H4'>"
p284
sS'H5'
p285
S"<class 'gluon.html.H5'>"
p286
sS'UL'
p287
S"<class 'gluon.html.UL'>"
p288
sS'IS_UPPER'
p289
S"<class 'gluon.validators.IS_UPPER'>"
p290
sS'xmlescape'
p291
S'<function xmlescape>'
p292
sS'IS_TIME'
p293
S"<class 'gluon.validators.IS_TIME'>"
p294
sS'OPTION'
p295
S"<class 'gluon.html.OPTION'>"
p296
sS'TITLE'
p297
S"<class 'gluon.html.TITLE'>"
p298
sS'CRYPT'
p299
S"<class 'gluon.validators.CRYPT'>"
p300
sS'IS_EMPTY_OR'
p301
S"<class 'gluon.validators.IS_EMPTY_OR'>"
p302
sS'MARKMIN'
p303
S"<class 'gluon.html.MARKMIN'>"
p304
sS'INPUT'
p305
S"<class 'gluon.html.INPUT'>"
p306
sS'STRONG'
p307
S"<class 'gluon.html.STRONG'>"
p308
sS'COL'
p309
S"<class 'gluon.html.COL'>"
p310
sS'service'
p311
S'<gluon.tools.Service object>'
p312
sS'SCRIPT'
p313
S"<class 'gluon.html.SCRIPT'>"
p314
sS'browse'
p315
S'<function browse>'
p316
sS'confirm_delcollo'
p317
S'<function confirm_delcollo>'
p318
sg83
S'<function call>'
p319
sS'TABLE'
p320
S"<class 'gluon.html.TABLE'>"
p321
sS'IS_IPV4'
p322
S"<class 'gluon.validators.IS_IPV4'>"
p323
sS'IS_LENGTH'
p324
S"<class 'gluon.validators.IS_LENGTH'>"
p325
sS'XML'
p326
S"<class 'gluon.html.XML'>"
p327
sS'B'
S"<class 'gluon.html.B'>"
p328
sS'IMG'
p329
S"<class 'gluon.html.IMG'>"
p330
sS'SQLTABLE'
p331
S"<class 'gluon.sqlhtml.SQLTABLE'>"
p332
sS'IS_MATCH'
p333
S"<class 'gluon.validators.IS_MATCH'>"
p334
sS'IS_ALPHANUMERIC'
p335
S"<class 'gluon.validators.IS_ALPHANUMERIC'>"
p336
sS'delcollo'
p337
S'<function delcollo>'
p338
sS'commentandrate'
p339
S'<function commentandrate>'
p340
sS'SPAN'
p341
S"<class 'gluon.html.SPAN'>"
p342
sS'IS_JSON'
p343
S"<class 'gluon.validators.IS_JSON'>"
p344
sS'IS_SLUG'
p345
S"<class 'gluon.validators.IS_SLUG'>"
p346
sS'BEAUTIFY'
p347
S"<class 'gluon.html.BEAUTIFY'>"
p348
sS'META'
p349
S"<class 'gluon.html.META'>"
p350
sS'editprofile'
p351
S'<function editprofile>'
p352
sS'IS_DATE'
p353
S"<class 'gluon.validators.IS_DATE'>"
p354
sS'IS_EMAIL'
p355
S"<class 'gluon.validators.IS_EMAIL'>"
p356
sS'IS_NOT_EMPTY'
p357
S"<class 'gluon.validators.IS_NOT_EMPTY'>"
p358
sg56
S"<Storage {'function': 'addfiles', 'body': <cStri...ons/projectlibrary/', 'post_vars': <Storage {}>}>"
p359
sS'TBODY'
p360
S"<class 'gluon.html.TBODY'>"
p361
sS'CAT'
p362
S"<class 'gluon.html.CAT'>"
p363
sS'Field'
p364
S"<class 'gluon.dal.Field'>"
p365
sS'DIV'
p366
S"<class 'gluon.html.DIV'>"
p367
sS'az'
p368
S'<function az>'
p369
sS'LEGEND'
p370
S"<class 'gluon.html.LEGEND'>"
p371
sS'most_uploaded'
p372
S'<function most_uploaded>'
p373
sS'COLGROUP'
p374
S"<class 'gluon.html.COLGROUP'>"
p375
sS'DAL'
p376
S"<class 'gluon.dal.DAL'>"
p377
sS'bydownloads'
p378
S'<function bydownloads>'
p379
sS'TT'
p380
S"<class 'gluon.html.TT'>"
p381
sS'TR'
p382
S"<class 'gluon.html.TR'>"
p383
sS'allprofile'
p384
S'<function allprofile>'
p385
sS'__package__'
p386
S'None'
p387
sS'most_recent'
p388
S'<function most_recent>'
p389
sS'IFRAME'
p390
S"<class 'gluon.html.IFRAME'>"
p391
sS'TD'
p392
S"<class 'gluon.html.TD'>"
p393
sS'PluginManager'
p394
S"<class 'gluon.tools.PluginManager'>"
p395
sS'IS_URL'
p396
S"<class 'gluon.validators.IS_URL'>"
p397
sS'__file__'
p398
S"'/home/kira/web2py/applications/projectlibrary/controllers/default.py'"
p399
sS'profile'
p400
S'<function profile>'
p401
sS'STYLE'
p402
S"<class 'gluon.html.STYLE'>"
p403
sS'IS_DATETIME_IN_RANGE'
p404
S"<class 'gluon.validators.IS_DATETIME_IN_RANGE'>"
p405
sS'IS_IMAGE'
p406
S"<class 'gluon.validators.IS_IMAGE'>"
p407
sS'I'
S"<class 'gluon.html.I'>"
p408
sS'crud'
p409
S'<gluon.tools.Crud object>'
p410
sS'IS_NOT_IN_DB'
p411
S"<class 'gluon.validators.IS_NOT_IN_DB'>"
p412
sS'user'
p413
S'<function user>'
p414
sS'data'
p415
S'<function data>'
p416
sg111
S"<Storage {'body': <cStringIO.StringO object at 0...at 0xae91d4fc>, 'view': 'default/addfiles.html'}>"
p417
sS'THEAD'
p418
S"<class 'gluon.html.THEAD'>"
p419
sS'IS_NULL_OR'
p420
S"<class 'gluon.validators.IS_EMPTY_OR'>"
p421
sS'register'
p422
S'<function register>'
p423
sS'IS_FLOAT_IN_RANGE'
p424
S"<class 'gluon.validators.IS_FLOAT_IN_RANGE'>"
p425
sS'IS_EXPR'
p426
S"<class 'gluon.validators.IS_EXPR'>"
p427
sS'newproject'
p428
S'<function newproject>'
p429
sS'IS_IN_SET'
p430
S"<class 'gluon.validators.IS_IN_SET'>"
p431
sS'IS_UPLOAD_FILENAME'
p432
S"<class 'gluon.validators.IS_UPLOAD_FILENAME'>"
p433
sS'download_func'
p434
S'<function download_func>'
p435
sS'IS_DECIMAL_IN_RANGE'
p436
S"<class 'gluon.validators.IS_DECIMAL_IN_RANGE'>"
p437
sS'T'
S'<gluon.languages.translator object>'
p438
sssS'traceback'
p439
S'Traceback (most recent call last):\n  File "/home/kira/web2py/gluon/restricted.py", line 212, in restricted\n    exec ccode in environment\n  File "/home/kira/web2py/applications/projectlibrary/controllers/default.py", line 403, in <module>\nNameError: name \'addfiles\' is not defined\n'
p440
s.