(dp1
S'output'
p2
S"<type 'exceptions.ValueError'> need more than 1 value to unpack"
p3
sS'layer'
p4
S'/home/kira/web2py/applications/projectlibrary/views/default/index.html'
p5
sS'code'
p6
S'left_sidebar_enabled,right_sidebar_enabled=False,(\'message\' in globals())\nresponse.write(\'\\n\', escape=False)\nresponse.write(\'<!DOCTYPE html PUBLIC "-//W3C//DTD XHTML 1.0 Strict//EN" "http://www.w3.org/TR/xhtml1/DTD/xhtml1-strict.dtd">\\n<!--\\nDesign by Free CSS Templates\\nhttp://www.freecsstemplates.org\\nReleased for free under a Creative Commons Attribution 2.5 License\\n\\nName       : Orange And Black\\nDescription: A two-column, fixed-width design for 1024x768 screen resolutions.\\nVersion    : 1.0\\nReleased   : 20090203\\n\\n-->\\n<html xmlns="http://www.w3.org/1999/xhtml">\\n <head>\\n  <title>\\n   \', escape=False)\nresponse.write(response.title or request.application)\nresponse.write(\'\\n  </title>\\n  \', escape=False)\nresponse.files.append(URL(request.application,\'static\',\'plugin_layouts/layouts/OrangeandBlack/style.css\'))\nresponse.write(\'\\n  \', escape=False)\nresponse.files.append(URL(\'static\',\'plugin_layouts/superfish.js\'))\nresponse.write(\'\\n  \', escape=False)\nresponse.write(\'<script type="text/javascript"><!--\\n    // These variables are used by the web2py_ajax_init function in web2py_ajax.js (which is loaded below).\\n    var w2p_ajax_confirm_message = "\', escape=False)\nresponse.write(T(\'Are you sure you want to delete this object?\'))\nresponse.write(\'";\\n    var w2p_ajax_date_format = "\', escape=False)\nresponse.write(T(\'%Y-%m-%d\'))\nresponse.write(\'";\\n    var w2p_ajax_datetime_format = "\', escape=False)\nresponse.write(T(\'%Y-%m-%d %H:%M:%S\'))\nresponse.write(\'";\\n    var ajax_error_500 = \\\'\', escape=False)\nresponse.write(XML(T(\'An error occured, please %s the page\') % A(T(\'reload\'), _href=URL(args=request.args, vars=request.vars))))\nresponse.write("\'\\n    //--></script>\\n", escape=False)\nresponse.files.insert(0,URL(\'static\',\'js/jquery.js\'))\nresponse.files.insert(1,URL(\'static\',\'css/calendar.css\'))\nresponse.files.insert(2,URL(\'static\',\'js/calendar.js\'))\nresponse.files.insert(3,URL(\'static\',\'js/web2py.js\'))\nresponse.include_meta()\nresponse.include_files()\nresponse.write(\'\\n\', escape=False)\nresponse.write(\'\\n  <style>\\nul.web2py-menu-vertical { width: 150px; position: relative; top:1em; left:1em;  z-index:30; border:0; margin:0; padding: 0; list-style: none; text-decoration: none;}\\nul.web2py-menu-vertical li { margin:0; padding:0; border:0; width: 150px; background: black; text-align:left;}\\nul.web2py-menu-vertical li a { margin:0; padding: 1px 3px 1px 3px; border:0; width: 144px; color: white; font-size:12px;}\\ndiv.flash { position: fixed; float: right; padding: 10px; top: 10px; right: 30px; opacity: 0.75; margin: 10px 10px 10px 10px; text-align: center; clear: both; color: #fff; font-size: 11pt; text-align: center; vertical-align: middle; cursor: pointer; background: black; border: 2px solid #fff; -moz-border-radius: 5px; -webkit-border-radius: 5px; z-index: 2; }\\ndiv.error { background-color: red; color: white; padding: 3px; }\\n.auth_navbar { text-align:right; z-index:20; position: absolute; top: 2px; right:30px; border:0; padding:0 }\\n  </style>\\n </head>\\n <body>\\n  <!-- start header -->\\n  \', escape=False)\ntry:\n    response.write(auth.navbar(action=URL(\'default\',\'user\')))\nexcept:pass\nresponse.write(\'\\n\\n  <div id="header-wrapper">\\n   <div id="header">\\n    <div id="menu">\\n     \', escape=False)\nresponse.write(MENU(response.menu,_class=\'web2py-menu\'))\nresponse.write(\'\\n    <script>\\n      jQuery(document).ready(function(){jQuery(\\\'ul.web2py-menu\\\').superfish({delay:400});});\\n    </script>\\n    </div>\\n    <!-- end #menu -->\\n    <div id="search">\\n     <form method="get" action="">\\n      <fieldset>\\n       <input type="text" name="s" id="search-text" size="15" />\\n       <input type="submit" id="search-submit" value="Search" />\\n      </fieldset>\\n     </form>\\n    </div>\\n    <!-- end #search -->\\n   </div>\\n   <!-- end #header -->\\n  </div>\\n  <!-- end #header-wrapper -->\\n  <div id="page">\\n   <div id="logo">\\n    <h1>\\n     \', escape=False)\nresponse.write(response.title or request.application)\nresponse.write(\'\\n    </h1>\\n   </div>\\n   <hr />\\n   <!-- end #logo -->\\n   <div id="content">\\n    <div class="flash">\', escape=False)\nresponse.write(response.flash or \'\')\nresponse.write(\'</div>\\n    \', escape=False)\nresponse.write(\'\\n\\n\', escape=False)\nif \'message\' in globals():\n    response.write(\'\\n<h1>\', escape=False)\n    response.write(message)\n    response.write(\'</h1>\\n\\n<!--<ol>\\n</ol>-->\\n\', escape=False)\nelif \'content\' in globals():\n    response.write(\'\\n\', escape=False)\n    response.write(content)\n    response.write(\'\\n\', escape=False)\nelse:\n    response.write(\'\\n\', escape=False)\n    response.write(BEAUTIFY(response._vars))\n    response.write(\'\\n\', escape=False)\n    pass\nresponse.write(\'\\n\\n\\n\\n\\n\', escape=False)\nresponse.write(\'\\n   </div>\\n   <!-- end #content -->\\n   <div id="sidebar">\\n    <ul>\\n     <li>\\n      <h2>\\n       Website Description\\n      </h2>\\n      <p>\\n      ProjectLibrary is desgned for users to upload and share their projects with other users. "Knowledge is of two kinds. We know a subject ourselves, or we know where we can find information upon it.\\n      </br>- <b>Samuel Johnson</b>\\n      </p>\\n     </li>\\n     <li>\\n      <h2>\\n       Turpis nulla\\n      </h2>\\n      <ul>\\n       <li>\\n        <a href="#">\\n         Nec metus sed donec\\n        </a>\\n       </li>\\n       <li>\\n        <a href="#">\\n         Magna lacus bibendum mauris\\n        </a>\\n       </li>\\n       <li>\\n        <a href="#">\\n         Velit semper nisi molestie\\n        </a>\\n       </li>\\n       <li>\\n        <a href="#">\\n         Eget tempor eget nonummy\\n        </a>\\n       </li>\\n       <li>\\n        <a href="#">\\n         Nec metus sed donec\\n        </a>\\n       </li>\\n       <li>\\n        <a href="#">\\n         Magna lacus bibendum mauris\\n        </a>\\n       </li>\\n       <li>\\n        <a href="#">\\n         Velit semper nisi molestie\\n        </a>\\n       </li>\\n      </ul>\\n     </li>\\n    </ul>\\n   </div>\\n   <!-- end #sidebar -->\\n   <div style="clear: both;">\\n    &nbsp;\\n   </div>\\n  </div>\\n  <!-- end #page -->\\n  <div id="footer">\\n   <p>\\n    Copyright (c) 2013 ProjectLibrary.com. All rights reserved. Design by\\n    Jaspreet Singh &amp; Shikher Somal\\n   </p>\\n  </div>\\n  <!-- end #footer -->\\n </body>\\n</html>\\n\', escape=False)'
p7
sS'snapshot'
p8
(dp9
S'exception'
p10
(dp11
S'__hash__'
p12
S"<method-wrapper '__hash__' of exceptions.ValueError object>"
p13
sS'__setattr__'
p14
S"<method-wrapper '__setattr__' of exceptions.ValueError object>"
p15
sS'__reduce_ex__'
p16
S'<built-in method __reduce_ex__ of exceptions.ValueError object>'
p17
sS'__getslice__'
p18
S"<method-wrapper '__getslice__' of exceptions.ValueError object>"
p19
sS'__getitem__'
p20
S"<method-wrapper '__getitem__' of exceptions.ValueError object>"
p21
sS'__setstate__'
p22
S'<built-in method __setstate__ of exceptions.ValueError object>'
p23
sS'__reduce__'
p24
S'<built-in method __reduce__ of exceptions.ValueError object>'
p25
sS'__str__'
p26
S"<method-wrapper '__str__' of exceptions.ValueError object>"
p27
sS'__format__'
p28
S'<built-in method __format__ of exceptions.ValueError object>'
p29
sS'__getattribute__'
p30
S"<method-wrapper '__getattribute__' of exceptions.ValueError object>"
p31
sS'__class__'
p32
S"<type 'exceptions.ValueError'>"
p33
sS'__unicode__'
p34
S'<built-in method __unicode__ of exceptions.ValueError object>'
p35
sS'__delattr__'
p36
S"<method-wrapper '__delattr__' of exceptions.ValueError object>"
p37
sS'__subclasshook__'
p38
S'<built-in method __subclasshook__ of type object>'
p39
sS'__repr__'
p40
S"<method-wrapper '__repr__' of exceptions.ValueError object>"
p41
sS'args'
p42
S"('need more than 1 value to unpack',)"
p43
sS'__dict__'
p44
S'{}'
p45
sS'__sizeof__'
p46
S'<built-in method __sizeof__ of exceptions.ValueError object>'
p47
sS'__doc__'
p48
S"'Inappropriate argument value (of correct type).'"
p49
sS'__init__'
p50
S"<method-wrapper '__init__' of exceptions.ValueError object>"
p51
sS'__new__'
p52
S'<built-in method __new__ of type object>'
p53
ssS'evalue'
p54
S'need more than 1 value to unpack'
p55
sS'request'
p56
cgluon.html
XML_unpickle
p57
(S's\xc0U\x00\x00<div><table><tr><td style="font-weight:bold;vertical-align:top">ajax</td><td valign="top">:</td><td><div>False</div></td></tr><tr><td style="font-weight:bold;vertical-align:top">application</td><td valign="top">:</td><td><div>projectlibrary</div></td></tr><tr><td style="font-weight:bold;vertical-align:top">args</td><td valign="top">:</td><td><div><table></table></div></td></tr><tr><td style="font-weight:bold;vertical-align:top">body</td><td valign="top">:</td><td><div>&lt;cStringIO.StringO object at 0xae782200&gt;</div></td></tr><tr><td style="font-weight:bold;vertical-align:top">cid</td><td valign="top">:</td><td><div>None</div></td></tr><tr><td style="font-weight:bold;vertical-align:top">client</td><td valign="top">:</td><td><div>127.0.0.1</div></td></tr><tr><td style="font-weight:bold;vertical-align:top">controller</td><td valign="top">:</td><td><div>default</div></td></tr><tr><td style="font-weight:bold;vertical-align:top">cookies</td><td valign="top">:</td><td><div><table><tr><td style="font-weight:bold;vertical-align:top">session_id_admin</td><td valign="top">:</td><td><div>127.0.0.1-885bfa1d-eb82-4a57-858e-077d04dba987<table><tr><td style="font-weight:bold;vertical-align:top">comment</td><td valign="top">:</td><td><div></div></td></tr><tr><td style="font-weight:bold;vertical-align:top">domain</td><td valign="top">:</td><td><div></div></td></tr><tr><td style="font-weight:bold;vertical-align:top">expires</td><td valign="top">:</td><td><div></div></td></tr><tr><td style="font-weight:bold;vertical-align:top">httponly</td><td valign="top">:</td><td><div></div></td></tr><tr><td style="font-weight:bold;vertical-align:top">max-age</td><td valign="top">:</td><td><div></div></td></tr><tr><td style="font-weight:bold;vertical-align:top">path</td><td valign="top">:</td><td><div></div></td></tr><tr><td style="font-weight:bold;vertical-align:top">secure</td><td valign="top">:</td><td><div></div></td></tr><tr><td style="font-weight:bold;vertical-align:top">version</td><td valign="top">:</td><td><div></div></td></tr></table></div></td></tr><tr><td style="font-weight:bold;vertical-align:top">session_id_projectlibrary</td><td valign="top">:</td><td><div>127.0.0.1-cf98d779-4b44-4f72-b387-dfbc855ed56c<table><tr><td style="font-weight:bold;vertical-align:top">comment</td><td valign="top">:</td><td><div></div></td></tr><tr><td style="font-weight:bold;vertical-align:top">domain</td><td valign="top">:</td><td><div></div></td></tr><tr><td style="font-weight:bold;vertical-align:top">expires</td><td valign="top">:</td><td><div></div></td></tr><tr><td style="font-weight:bold;vertical-align:top">httponly</td><td valign="top">:</td><td><div></div></td></tr><tr><td style="font-weight:bold;vertical-align:top">max-age</td><td valign="top">:</td><td><div></div></td></tr><tr><td style="font-weight:bold;vertical-align:top">path</td><td valign="top">:</td><td><div></div></td></tr><tr><td style="font-weight:bold;vertical-align:top">secure</td><td valign="top">:</td><td><div></div></td></tr><tr><td style="font-weight:bold;vertical-align:top">version</td><td valign="top">:</td><td><div></div></td></tr></table></div></td></tr><tr><td style="font-weight:bold;vertical-align:top">session_id_welcome</td><td valign="top">:</td><td><div>127.0.0.1-eee7b4bc-35bc-444c-823e-db5f3fc6088f<table><tr><td style="font-weight:bold;vertical-align:top">comment</td><td valign="top">:</td><td><div></div></td></tr><tr><td style="font-weight:bold;vertical-align:top">domain</td><td valign="top">:</td><td><div></div></td></tr><tr><td style="font-weight:bold;vertical-align:top">expires</td><td valign="top">:</td><td><div></div></td></tr><tr><td style="font-weight:bold;vertical-align:top">httponly</td><td valign="top">:</td><td><div></div></td></tr><tr><td style="font-weight:bold;vertical-align:top">max-age</td><td valign="top">:</td><td><div></div></td></tr><tr><td style="font-weight:bold;vertical-align:top">path</td><td valign="top">:</td><td><div></div></td></tr><tr><td style="font-weight:bold;vertical-align:top">secure</td><td valign="top">:</td><td><div></div></td></tr><tr><td style="font-weight:bold;vertical-align:top">version</td><td valign="top">:</td><td><div></div></td></tr></table></div></td></tr></table></div></td></tr><tr><td style="font-weight:bold;vertical-align:top">env</td><td valign="top">:</td><td><div><table><tr><td style="font-weight:bold;vertical-align:top">app_folders</td><td valign="top">:</td><td><div>set([&#x27;/home/kira/web2py/applications/admin/&#x27;, &#x27;/home/kira/web2py/applications/welcome/&#x27;, &#x27;/home/kira/web2py/applications/projectlibrary/&#x27;])</div></td></tr><tr><td style="font-weight:bold;vertical-align:top">applications_parent</td><td valign="top">:</td><td><div>/home/kira/web2py</div></td></tr><tr><td style="font-weight:bold;vertical-align:top">cmd_args</td><td valign="top">:</td><td><div><table></table></div></td></tr><tr><td style="font-weight:bold;vertical-align:top">cmd_options</td><td valign="top">:</td><td><div>&lt;Values at 0x90ecf6c: {&#x27;verbose&#x27;: False, &#x27;ip&#x27;: &#x27;127.0.0.1&#x27;, &#x27;with_scheduler&#x27;: False, &#x27;ips&#x27;: [], &#x27;shutdown_timeout&#x27;: 5, &#x27;taskbar&#x27;: False, &#x27;port&#x27;: 8000, &#x27;maxthreads&#x27;: None, &#x27;softcron&#x27;: False, &#x27;server_name&#x27;: &#x27;kira-Ideapad-Z570&#x27;, &#x27;bpython&#x27;: False, &#x27;nogui&#x27;: False, &#x27;pid_filename&#x27;: &#x27;httpserver.pid&#x27;, &#x27;extcron&#x27;: False, &#x27;runcron&#x27;: False, &#x27;run_system_tests&#x27;: False, &#x27;test&#x27;: None, &#x27;folder&#x27;: &#x27;/home/kira/web2py&#x27;, &#x27;config&#x27;: &#x27;&#x27;, &#x27;import_models&#x27;: False, &#x27;winservice&#x27;: &#x27;&#x27;, &#x27;shell&#x27;: None, &#x27;run&#x27;: &#x27;&#x27;, &#x27;log_filename&#x27;: &#x27;httpserver.log&#x27;, &#x27;debuglevel&#x27;: 30, &#x27;args&#x27;: [&#x27;&#x27;], &#x27;socket_timeout&#x27;: 5, &#x27;ssl_ca_certificate&#x27;: None, &#x27;scheduler&#x27;: None, &#x27;profiler_filename&#x27;: None, &#x27;ssl_private_key&#x27;: &#x27;&#x27;, &#x27;scheduler_groups&#x27;: None, &#x27;password&#x27;: &#x27;asd&#x27;, &#x27;request_queue_size&#x27;: 5, &#x27;ssl_certificate&#x27;: &#x27;&#x27;, &#x27;cronjob&#x27;: False, &#x27;numthreads&#x27;: None, &#x27;quiet&#x27;: False, &#x27;interfaces&#x27;: None, &#x27;minthreads&#x27;: None, &#x27;timeout&#x27;: 10, &#x27;plain&#x27;: False, &#x27;nobanner&#x27;: False}&gt;</div></td></tr><tr><td style="font-weight:bold;vertical-align:top">db_sessions</td><td valign="top">:</td><td><div>set([])</div></td></tr><tr><td style="font-weight:bold;vertical-align:top">debugging</td><td valign="top">:</td><td><div>False</div></td></tr><tr><td style="font-weight:bold;vertical-align:top">gluon_parent</td><td valign="top">:</td><td><div>/home/kira/web2py</div></td></tr><tr><td style="font-weight:bold;vertical-align:top">http_accept</td><td valign="top">:</td><td><div>text/html,application/xhtml+xml,application/xml;q=0.9,*/*;q=0.8</div></td></tr><tr><td style="font-weight:bold;vertical-align:top">http_accept_encoding</td><td valign="top">:</td><td><div>gzip, deflate</div></td></tr><tr><td style="font-weight:bold;vertical-align:top">http_accept_language</td><td valign="top">:</td><td><div>en-us,en;q=0.5</div></td></tr><tr><td style="font-weight:bold;vertical-align:top">http_cache_control</td><td valign="top">:</td><td><div>max-age=0</div></td></tr><tr><td style="font-weight:bold;vertical-align:top">http_connection</td><td valign="top">:</td><td><div>keep-alive</div></td></tr><tr><td style="font-weight:bold;vertical-align:top">http_cookie</td><td valign="top">:</td><td><div>session_id_welcome=127.0.0.1-eee7b4bc-35bc-444c-823e-db5f3fc6088f; session_id_admin=127.0.0.1-885bfa1d-eb82-4a57-858e-077d04dba987; session_id_projectlibrary=127.0.0.1-cf98d779-4b44-4f72-b387-dfbc855ed56c</div></td></tr><tr><td style="font-weight:bold;vertical-align:top">http_host</td><td valign="top">:</td><td><div>127.0.0.1:8000</div></td></tr><tr><td style="font-weight:bold;vertical-align:top">http_referer</td><td valign="top">:</td><td><div>http://127.0.0.1:8000/admin/default/design/projectlibrary</div></td></tr><tr><td style="font-weight:bold;vertical-align:top">http_user_agent</td><td valign="top">:</td><td><div>Mozilla/5.0 (X11; Ubuntu; Linux i686; rv:11.0) Gecko/20100101 Firefox/11.0</div></td></tr><tr><td style="font-weight:bold;vertical-align:top">is_jython</td><td valign="top">:</td><td><div>False</div></td></tr><tr><td style="font-weight:bold;vertical-align:top">is_pypy</td><td valign="top">:</td><td><div>False</div></td></tr><tr><td style="font-weight:bold;vertical-align:top">local_hosts</td><td valign="top">:</td><td><div><table><tr><td><div>kira-Ideapad-Z570</div></td></tr><tr><td><div>::1</div></td></tr><tr><td><div>127.0.1.1</div></td></tr><tr><td><div>::ffff:127.0.0.1</div></td></tr><tr><td><div>127.0.0.1</div></td></tr></table></div></td></tr><tr><td style="font-weight:bold;vertical-align:top">path_info</td><td valign="top">:</td><td><div>/projectlibrary/default/index</div></td></tr><tr><td style="font-weight:bold;vertical-align:top">query_string</td><td valign="top">:</td><td><div></div></td></tr><tr><td style="font-weight:bold;vertical-align:top">remote_addr</td><td valign="top">:</td><td><div>127.0.0.1</div></td></tr><tr><td style="font-weight:bold;vertical-align:top">remote_port</td><td valign="top">:</td><td><div>50583</div></td></tr><tr><td style="font-weight:bold;vertical-align:top">request_method</td><td valign="top">:</td><td><div>GET</div></td></tr><tr><td style="font-weight:bold;vertical-align:top">request_uri</td><td valign="top">:</td><td><div>/projectlibrary/default/index</div></td></tr><tr><td style="font-weight:bold;vertical-align:top">script_name</td><td valign="top">:</td><td><div></div></td></tr><tr><td style="font-weight:bold;vertical-align:top">server_name</td><td valign="top">:</td><td><div>kira-Ideapad-Z570</div></td></tr><tr><td style="font-weight:bold;vertical-align:top">server_port</td><td valign="top">:</td><td><div>8000</div></td></tr><tr><td style="font-weight:bold;vertical-align:top">server_protocol</td><td valign="top">:</td><td><div>HTTP/1.1</div></td></tr><tr><td style="font-weight:bold;vertical-align:top">server_software</td><td valign="top">:</td><td><div>Rocket 1.2.6</div></td></tr><tr><td style="font-weight:bold;vertical-align:top">web2py_path</td><td valign="top">:</td><td><div>/home/kira/web2py</div></td></tr><tr><td style="font-weight:bold;vertical-align:top">web2py_version</td><td valign="top">:</td><td><div><table><tr><td><div>2</div></td></tr><tr><td><div>4</div></td></tr><tr><td><div>2</div></td></tr><tr><td><div>stable</div></td></tr><tr><td><div>datetime.datetime(2013, 3, 4, 3, 26, 21)</div></td></tr></table></div></td></tr><tr><td style="font-weight:bold;vertical-align:top">wsgi_errors</td><td valign="top">:</td><td><div>&lt;open file &#x27;&lt;stderr&gt;&#x27;, mode &#x27;w&#x27; at 0xb72d50d0&gt;</div></td></tr><tr><td style="font-weight:bold;vertical-align:top">wsgi_file_wrapper</td><td valign="top">:</td><td><div>&lt;class wsgiref.util.FileWrapper at 0x9079bfc&gt;</div></td></tr><tr><td style="font-weight:bold;vertical-align:top">wsgi_input</td><td valign="top">:</td><td><div>&lt;socket._fileobject object at 0x91bc76c&gt;</div></td></tr><tr><td style="font-weight:bold;vertical-align:top">wsgi_multiprocess</td><td valign="top">:</td><td><div>False</div></td></tr><tr><td style="font-weight:bold;vertical-align:top">wsgi_multithread</td><td valign="top">:</td><td><div>True</div></td></tr><tr><td style="font-weight:bold;vertical-align:top">wsgi_run_once</td><td valign="top">:</td><td><div>False</div></td></tr><tr><td style="font-weight:bold;vertical-align:top">wsgi_url_scheme</td><td valign="top">:</td><td><div>http</div></td></tr><tr><td style="font-weight:bold;vertical-align:top">wsgi_version</td><td valign="top">:</td><td><div><table><tr><td><div>1</div></td></tr><tr><td><div>0</div></td></tr></table></div></td></tr></table></div></td></tr><tr><td style="font-weight:bold;vertical-align:top">extension</td><td valign="top">:</td><td><div>html</div></td></tr><tr><td style="font-weight:bold;vertical-align:top">folder</td><td valign="top">:</td><td><div>/home/kira/web2py/applications/projectlibrary/</div></td></tr><tr><td style="font-weight:bold;vertical-align:top">function</td><td valign="top">:</td><td><div>index</div></td></tr><tr><td style="font-weight:bold;vertical-align:top">get_vars</td><td valign="top">:</td><td><div><table></table></div></td></tr><tr><td style="font-weight:bold;vertical-align:top">global_settings</td><td valign="top">:</td><td><div><table><tr><td style="font-weight:bold;vertical-align:top">app_folders</td><td valign="top">:</td><td><div>set([&#x27;/home/kira/web2py/applications/admin/&#x27;, &#x27;/home/kira/web2py/applications/welcome/&#x27;, &#x27;/home/kira/web2py/applications/projectlibrary/&#x27;])</div></td></tr><tr><td style="font-weight:bold;vertical-align:top">applications_parent</td><td valign="top">:</td><td><div>/home/kira/web2py</div></td></tr><tr><td style="font-weight:bold;vertical-align:top">cmd_args</td><td valign="top">:</td><td><div><table></table></div></td></tr><tr><td style="font-weight:bold;vertical-align:top">cmd_options</td><td valign="top">:</td><td><div>&lt;Values at 0x90ecf6c: {&#x27;verbose&#x27;: False, &#x27;ip&#x27;: &#x27;127.0.0.1&#x27;, &#x27;with_scheduler&#x27;: False, &#x27;ips&#x27;: [], &#x27;shutdown_timeout&#x27;: 5, &#x27;taskbar&#x27;: False, &#x27;port&#x27;: 8000, &#x27;maxthreads&#x27;: None, &#x27;softcron&#x27;: False, &#x27;server_name&#x27;: &#x27;kira-Ideapad-Z570&#x27;, &#x27;bpython&#x27;: False, &#x27;nogui&#x27;: False, &#x27;pid_filename&#x27;: &#x27;httpserver.pid&#x27;, &#x27;extcron&#x27;: False, &#x27;runcron&#x27;: False, &#x27;run_system_tests&#x27;: False, &#x27;test&#x27;: None, &#x27;folder&#x27;: &#x27;/home/kira/web2py&#x27;, &#x27;config&#x27;: &#x27;&#x27;, &#x27;import_models&#x27;: False, &#x27;winservice&#x27;: &#x27;&#x27;, &#x27;shell&#x27;: None, &#x27;run&#x27;: &#x27;&#x27;, &#x27;log_filename&#x27;: &#x27;httpserver.log&#x27;, &#x27;debuglevel&#x27;: 30, &#x27;args&#x27;: [&#x27;&#x27;], &#x27;socket_timeout&#x27;: 5, &#x27;ssl_ca_certificate&#x27;: None, &#x27;scheduler&#x27;: None, &#x27;profiler_filename&#x27;: None, &#x27;ssl_private_key&#x27;: &#x27;&#x27;, &#x27;scheduler_groups&#x27;: None, &#x27;password&#x27;: &#x27;asd&#x27;, &#x27;request_queue_size&#x27;: 5, &#x27;ssl_certificate&#x27;: &#x27;&#x27;, &#x27;cronjob&#x27;: False, &#x27;numthreads&#x27;: None, &#x27;quiet&#x27;: False, &#x27;interfaces&#x27;: None, &#x27;minthreads&#x27;: None, &#x27;timeout&#x27;: 10, &#x27;plain&#x27;: False, &#x27;nobanner&#x27;: False}&gt;</div></td></tr><tr><td style="font-weight:bold;vertical-align:top">db_sessions</td><td valign="top">:</td><td><div>set([])</div></td></tr><tr><td style="font-weight:bold;vertical-align:top">debugging</td><td valign="top">:</td><td><div>False</div></td></tr><tr><td style="font-weight:bold;vertical-align:top">gluon_parent</td><td valign="top">:</td><td><div>/home/kira/web2py</div></td></tr><tr><td style="font-weight:bold;vertical-align:top">is_jython</td><td valign="top">:</td><td><div>False</div></td></tr><tr><td style="font-weight:bold;vertical-align:top">is_pypy</td><td valign="top">:</td><td><div>False</div></td></tr><tr><td style="font-weight:bold;vertical-align:top">local_hosts</td><td valign="top">:</td><td><div><table><tr><td><div>kira-Ideapad-Z570</div></td></tr><tr><td><div>::1</div></td></tr><tr><td><div>127.0.1.1</div></td></tr><tr><td><div>::ffff:127.0.0.1</div></td></tr><tr><td><div>127.0.0.1</div></td></tr></table></div></td></tr><tr><td style="font-weight:bold;vertical-align:top">web2py_version</td><td valign="top">:</td><td><div><table><tr><td><div>2</div></td></tr><tr><td><div>4</div></td></tr><tr><td><div>2</div></td></tr><tr><td><div>stable</div></td></tr><tr><td><div>datetime.datetime(2013, 3, 4, 3, 26, 21)</div></td></tr></table></div></td></tr></table></div></td></tr><tr><td style="font-weight:bold;vertical-align:top">is_https</td><td valign="top">:</td><td><div>False</div></td></tr><tr><td style="font-weight:bold;vertical-align:top">is_local</td><td valign="top">:</td><td><div>True</div></td></tr><tr><td style="font-weight:bold;vertical-align:top">is_restful</td><td valign="top">:</td><td><div>False</div></td></tr><tr><td style="font-weight:bold;vertical-align:top">now</td><td valign="top">:</td><td><div>datetime.datetime(2013, 3, 30, 19, 1, 48, 352549)</div></td></tr><tr><td style="font-weight:bold;vertical-align:top">post_vars</td><td valign="top">:</td><td><div><table></table></div></td></tr><tr><td style="font-weight:bold;vertical-align:top">raw_args</td><td valign="top">:</td><td><div></div></td></tr><tr><td style="font-weight:bold;vertical-align:top">raw_extension</td><td valign="top">:</td><td><div>None</div></td></tr><tr><td style="font-weight:bold;vertical-align:top">url</td><td valign="top">:</td><td><div>/projectlibrary/default/index</div></td></tr><tr><td style="font-weight:bold;vertical-align:top">utcnow</td><td valign="top">:</td><td><div>datetime.datetime(2013, 3, 30, 13, 31, 48, 352604)</div></td></tr><tr><td style="font-weight:bold;vertical-align:top">uuid</td><td valign="top">:</td><td><div>projectlibrary/127.0.0.1.2013-03-30.19-01-48.f760b30a-add5-4939-be13-34791ccd4c26</div></td></tr><tr><td style="font-weight:bold;vertical-align:top">vars</td><td valign="top">:</td><td><div><table></table></div></td></tr><tr><td style="font-weight:bold;vertical-align:top">wsgi</td><td valign="top">:</td><td><div><table><tr><td style="font-weight:bold;vertical-align:top">environ</td><td valign="top">:</td><td><div><table><tr><td style="font-weight:bold;vertical-align:top">HTTP_ACCEPT</td><td valign="top">:</td><td><div>text/html,application/xhtml+xml,application/xml;q=0.9,*/*;q=0.8</div></td></tr><tr><td style="font-weight:bold;vertical-align:top">HTTP_ACCEPT_ENCODING</td><td valign="top">:</td><td><div>gzip, deflate</div></td></tr><tr><td style="font-weight:bold;vertical-align:top">HTTP_ACCEPT_LANGUAGE</td><td valign="top">:</td><td><div>en-us,en;q=0.5</div></td></tr><tr><td style="font-weight:bold;vertical-align:top">HTTP_CACHE_CONTROL</td><td valign="top">:</td><td><div>max-age=0</div></td></tr><tr><td style="font-weight:bold;vertical-align:top">HTTP_CONNECTION</td><td valign="top">:</td><td><div>keep-alive</div></td></tr><tr><td style="font-weight:bold;vertical-align:top">HTTP_COOKIE</td><td valign="top">:</td><td><div>session_id_welcome=127.0.0.1-eee7b4bc-35bc-444c-823e-db5f3fc6088f; session_id_admin=127.0.0.1-885bfa1d-eb82-4a57-858e-077d04dba987; session_id_projectlibrary=127.0.0.1-cf98d779-4b44-4f72-b387-dfbc855ed56c</div></td></tr><tr><td style="font-weight:bold;vertical-align:top">HTTP_HOST</td><td valign="top">:</td><td><div>127.0.0.1:8000</div></td></tr><tr><td style="font-weight:bold;vertical-align:top">HTTP_REFERER</td><td valign="top">:</td><td><div>http://127.0.0.1:8000/admin/default/design/projectlibrary</div></td></tr><tr><td style="font-weight:bold;vertical-align:top">HTTP_USER_AGENT</td><td valign="top">:</td><td><div>Mozilla/5.0 (X11; Ubuntu; Linux i686; rv:11.0) Gecko/20100101 Firefox/11.0</div></td></tr><tr><td style="font-weight:bold;vertical-align:top">PATH_INFO</td><td valign="top">:</td><td><div>/projectlibrary/default/index</div></td></tr><tr><td style="font-weight:bold;vertical-align:top">QUERY_STRING</td><td valign="top">:</td><td><div></div></td></tr><tr><td style="font-weight:bold;vertical-align:top">REMOTE_ADDR</td><td valign="top">:</td><td><div>127.0.0.1</div></td></tr><tr><td style="font-weight:bold;vertical-align:top">REMOTE_PORT</td><td valign="top">:</td><td><div>50583</div></td></tr><tr><td style="font-weight:bold;vertical-align:top">REQUEST_METHOD</td><td valign="top">:</td><td><div>GET</div></td></tr><tr><td style="font-weight:bold;vertical-align:top">REQUEST_URI</td><td valign="top">:</td><td><div>/projectlibrary/default/index</div></td></tr><tr><td style="font-weight:bold;vertical-align:top">SCRIPT_NAME</td><td valign="top">:</td><td><div></div></td></tr><tr><td style="font-weight:bold;vertical-align:top">SERVER_NAME</td><td valign="top">:</td><td><div>kira-Ideapad-Z570</div></td></tr><tr><td style="font-weight:bold;vertical-align:top">SERVER_PORT</td><td valign="top">:</td><td><div>8000</div></td></tr><tr><td style="font-weight:bold;vertical-align:top">SERVER_PROTOCOL</td><td valign="top">:</td><td><div>HTTP/1.1</div></td></tr><tr><td style="font-weight:bold;vertical-align:top">SERVER_SOFTWARE</td><td valign="top">:</td><td><div>Rocket 1.2.6</div></td></tr><tr><td style="font-weight:bold;vertical-align:top">wsgi.errors</td><td valign="top">:</td><td><div>&lt;open file &#x27;&lt;stderr&gt;&#x27;, mode &#x27;w&#x27; at 0xb72d50d0&gt;</div></td></tr><tr><td style="font-weight:bold;vertical-align:top">wsgi.file_wrapper</td><td valign="top">:</td><td><div>&lt;class wsgiref.util.FileWrapper at 0x9079bfc&gt;</div></td></tr><tr><td style="font-weight:bold;vertical-align:top">wsgi.input</td><td valign="top">:</td><td><div>&lt;cStringIO.StringO object at 0xae782200&gt;</div></td></tr><tr><td style="font-weight:bold;vertical-align:top">wsgi.multiprocess</td><td valign="top">:</td><td><div>False</div></td></tr><tr><td style="font-weight:bold;vertical-align:top">wsgi.multithread</td><td valign="top">:</td><td><div>True</div></td></tr><tr><td style="font-weight:bold;vertical-align:top">wsgi.run_once</td><td valign="top">:</td><td><div>False</div></td></tr><tr><td style="font-weight:bold;vertical-align:top">wsgi.url_scheme</td><td valign="top">:</td><td><div>http</div></td></tr><tr><td style="font-weight:bold;vertical-align:top">wsgi.version</td><td valign="top">:</td><td><div>1</div></td></tr></table></div></td></tr></table></div></td></tr></table></div>'
tRp58
sS'frames'
p59
(lp60
(dp61
S'file'
p62
S'/home/kira/web2py/gluon/restricted.py'
p63
sS'dump'
p64
(dp65
S'environment'
p66
S"{'A': <class 'gluon.html.A'>, 'Auth': <class 'gluon.tools.Auth'>, 'B': <class 'gluon.html.B'>, 'BEAUTIFY': <class 'gluon.html.BEAUTIFY'>, 'BODY': <class 'gluon.html.BODY'>, 'BR': <class 'gluon.html.BR'>, 'BUTTON': <class 'gluon.html.BUTTON'>, 'CAT': <class 'gluon.html.CAT'>, 'CENTER': <class 'gluon.html.CENTER'>, 'CLEANUP': <class 'gluon.validators.CLEANUP'>, ...}"
p67
sS'ccode'
p68
S'<code object <module> at 0xaf2b77b8, file "/home...projectlibrary/views/default/index.html", line 1>'
p69
ssS'lnum'
p70
I212
sS'lines'
p71
(dp72
I207
S'    try:'
p73
sI208
S'        if isinstance(code, types.CodeType):'
p74
sI209
S'            ccode = code'
p75
sI210
S'        else:'
p76
sI211
S'            ccode = compile2(code, layer)'
p77
sI212
S'        exec ccode in environment'
p78
sI213
S'    except HTTP:'
p79
sI214
S'        raise'
p80
sI215
S'    except RestrictedError:'
p81
sI216
S'        # do not encapsulate (obfuscate) the original RestrictedError'
p82
ssS'call'
p83
S'(code=r"left_sidebar_enabled,right_sidebar_enabled=False... #footer -->\\n </body>\\n</html>\\n\', escape=False)", environment={\'A\': <class \'gluon.html.A\'>, \'Auth\': <class \'gluon.tools.Auth\'>, \'B\': <class \'gluon.html.B\'>, \'BEAUTIFY\': <class \'gluon.html.BEAUTIFY\'>, \'BODY\': <class \'gluon.html.BODY\'>, \'BR\': <class \'gluon.html.BR\'>, \'BUTTON\': <class \'gluon.html.BUTTON\'>, \'CAT\': <class \'gluon.html.CAT\'>, \'CENTER\': <class \'gluon.html.CENTER\'>, \'CLEANUP\': <class \'gluon.validators.CLEANUP\'>, ...}, layer=\'/home/kira/web2py/applications/projectlibrary/views/default/index.html\')'
p84
sS'func'
p85
S'restricted'
p86
sa(dp87
g62
S'/home/kira/web2py/applications/projectlibrary/views/default/index.html'
p88
sg64
(dp89
sg70
I31
sg71
(dp90
I32
S'response.write(\'\\n    <script>\\n      jQuery(document).ready(function(){jQuery(\\\'ul.web2py-menu\\\').superfish({delay:400});});\\n    </script>\\n    </div>\\n    <!-- end #menu -->\\n    <div id="search">\\n     <form method="get" action="">\\n      <fieldset>\\n       <input type="text" name="s" id="search-text" size="15" />\\n       <input type="submit" id="search-submit" value="Search" />\\n      </fieldset>\\n     </form>\\n    </div>\\n    <!-- end #search -->\\n   </div>\\n   <!-- end #header -->\\n  </div>\\n  <!-- end #header-wrapper -->\\n  <div id="page">\\n   <div id="logo">\\n    <h1>\\n     \', escape=False)'
p91
sI33
S'response.write(response.title or request.application)'
p92
sI34
S'response.write(\'\\n    </h1>\\n   </div>\\n   <hr />\\n   <!-- end #logo -->\\n   <div id="content">\\n    <div class="flash">\', escape=False)'
p93
sI35
S"response.write(response.flash or '')"
p94
sI36
S"response.write('</div>\\n    ', escape=False)"
p95
sI37
S"response.write('\\n\\n', escape=False)"
p96
sI38
S"if 'message' in globals():"
p97
sI39
S"    response.write('\\n<h1>', escape=False)"
p98
sI40
S'    response.write(message)'
p99
sI41
S"    response.write('</h1>\\n\\n<!--<ol>\\n</ol>-->\\n', escape=False)"
p100
sI22
S"response.files.insert(3,URL('static','js/web2py.js'))"
p101
sI23
S'response.include_meta()'
p102
sI24
S'response.include_files()'
p103
sI25
S"response.write('\\n', escape=False)"
p104
sI26
S"response.write('\\n  <style>\\nul.web2py-menu-vertical { width: 150px; position: relative; top:1em; left:1em;  z-index:30; border:0; margin:0; padding: 0; list-style: none; text-decoration: none;}\\nul.web2py-menu-vertical li { margin:0; padding:0; border:0; width: 150px; background: black; text-align:left;}\\nul.web2py-menu-vertical li a { margin:0; padding: 1px 3px 1px 3px; border:0; width: 144px; color: white; font-size:12px;}\\ndiv.flash { position: fixed; float: right; padding: 10px; top: 10px; right: 30px; opacity: 0.75; margin: 10px 10px 10px 10px; text-align: center; clear: both; color: #fff; font-size: 11pt; text-align: center; vertical-align: middle; cursor: pointer; background: black; border: 2px solid #fff; -moz-border-radius: 5px; -webkit-border-radius: 5px; z-index: 2; }\\ndiv.error { background-color: red; color: white; padding: 3px; }\\n.auth_navbar { text-align:right; z-index:20; position: absolute; top: 2px; right:30px; border:0; padding:0 }\\n  </style>\\n </head>\\n <body>\\n  <!-- start header -->\\n  ', escape=False)"
p105
sI27
S'try:'
p106
sI28
S"    response.write(auth.navbar(action=URL('default','user')))"
p107
sI29
S'except:pass'
p108
sI30
S'response.write(\'\\n\\n  <div id="header-wrapper">\\n   <div id="header">\\n    <div id="menu">\\n     \', escape=False)'
p109
sI31
S"response.write(MENU(response.menu,_class='web2py-menu'))"
p110
ssg83
S'()'
p111
sg85
S'<module>'
p112
sa(dp113
g62
S'/home/kira/web2py/gluon/globals.py'
p114
sg64
(dp115
S'self.body.write'
p116
S'<built-in method write of cStringIO.StringO object>'
p117
sS'self.body'
p118
S'<cStringIO.StringO object>'
p119
sS'self'
p120
S"<Storage {'body': <cStringIO.StringO object at 0...a> at 0xb0adbaac>, 'view': 'default/index.html'}>"
p121
sS'global xmlescape'
p122
S'<function xmlescape>'
p123
sS'data'
p124
S'<gluon.html.MENU object>'
p125
ssg70
I202
sg71
(dp126
I197
S''
sI198
S'    def write(self, data, escape=True):'
p127
sI199
S'        if not escape:'
p128
sI200
S'            self.body.write(str(data))'
p129
sI201
S'        else:'
p130
sI202
S'            self.body.write(xmlescape(data))'
p131
sI203
S''
sI204
S'    def render(self, *a, **b):'
p132
sI205
S'        from compileapp import run_view_in'
p133
sI206
S'        if len(a) > 2:'
p134
ssg83
S"(self=<Storage {'body': <cStringIO.StringO object at 0...a> at 0xb0adbaac>, 'view': 'default/index.html'}>, data=<gluon.html.MENU object>, escape=True)"
p135
sg85
S'write'
p136
sa(dp137
g62
S'/home/kira/web2py/gluon/html.py'
p138
sg64
(dp139
S'data'
p140
S'<gluon.html.MENU object>'
p141
sS'data.xml'
p142
S'<bound method MENU.xml of <gluon.html.MENU object>>'
p143
ssg70
I120
sg71
(dp144
I115
S'    :param quote: optional (default False)'
p145
sI116
S'    """'
p146
sI117
S''
sI118
S'    # first try the xml function'
p147
sI119
S"    if hasattr(data, 'xml') and callable(data.xml):"
p148
sI120
S'        return data.xml()'
p149
sI121
S''
sI122
S'    # otherwise, make it a string'
p150
sI123
S'    if not isinstance(data, (str, unicode)):'
p151
sI124
S'        data = str(data)'
p152
ssg83
S'(data=<gluon.html.MENU object>, quote=True)'
p153
sg85
S'xmlescape'
p154
sa(dp155
g62
S'/home/kira/web2py/gluon/html.py'
p156
sg64
(dp157
S'self.serialize'
p158
S'<bound method MENU.serialize of <gluon.html.MENU object>>'
p159
sS').xml'
p160
S'undefined'
p161
sS'self'
p162
S'<gluon.html.MENU object>'
p163
sS'self.data'
p164
S'[(<lazyT \'Home\'>, False, \'/projectlibrary/default/index\', []), (<lazyT \'Register\'>, False, \'/projectlibrary/default/register\', []), (<lazyT \'Upload\'>, False, \'/projectlibrary/default/upload\', []), (<lazyT \'Browse\'>, False, \'/projectlibrary/default/browse\', []), (<gluon.html.SPAN object>, False, \'http://web2py.com\', [(<lazyT \'My Sites\'>, False, \'/admin/default/site\'), (<lazyT \'This App\'>, False, \'/admin/default/design/projectlibrary\', [(<lazyT \'Controller\'>, False, \'/admin/default/edit/projectlibrary/controllers/default.py\'), (<lazyT \'View\'>, False, \'/admin/default/edit/projectlibrary/views/default/index.html\'), (<lazyT \'Layout\'>, False, \'/admin/default/edit/projectlibrary/views/layout.html\'), (<lazyT \'Stylesheet\'>, False, \'/admin/default/edit/projectlibrary/static/css/web2py.css\'), (<lazyT \'DB Model\'>, False, \'/admin/default/edit/projectlibrary/models/db.py\'), (<lazyT \'Menu Model\'>, False, \'/admin/default/edit/projectlibrary/models/menu.py\'), (<lazyT \'Database\'>, False, \'/projectlibrary/appadmin/index\'), (<lazyT \'Errors\'>, False, \'/admin/default/errors/projectlibrary\'), (<lazyT \'About\'>, False, \'/admin/default/about/projectlibrary\')]), (\'web2py.com\', False, \'http://www.web2py.com\', [(<lazyT \'Download\'>, False, \'http://www.web2py.com/examples/default/download\'), (<lazyT \'Support\'>, False, \'http://www.web2py.com/examples/default/support\'), (<lazyT \'Demo\'>, False, \'http://web2py.com/demo_admin\'), (<lazyT \'Quick Examples\'>, False, \'http://web2py.com/examples/default/examples\'), (<lazyT \'FAQ\'>, False, \'http://web2py.com/AlterEgo\'), (<lazyT \'Videos\'>, False, \'http://www.web2py.com/examples/default/videos/\'), (<lazyT \'Free Applications\'>, False, \'http://web2py.com/appliances\'), (<lazyT \'Plugins\'>, False, \'http://web2py.com/plugins\'), (<lazyT \'Layouts\'>, False, \'http://web2py.com/layouts\'), (<lazyT \'Recipes\'>, False, \'http://web2pyslices.com/\'), (<lazyT \'Semantic\'>, False, \'http://web2py.com/semantic\')]), (<lazyT \'Documentation\'>, False, \'http://www.web2py.com/book\', [(<lazyT \'Preface\'>, False, \'http://www.web2py.com/book/default/chapter/00\'), (<lazyT \'Introduction\'>, False, \'http://www.web2py.com/book/default/chapter/01\'), (<lazyT \'Python\'>, False, \'http://www.web2py.com/book/default/chapter/02\'), (<lazyT \'Overview\'>, False, \'http://www.web2py.com/book/default/chapter/03\'), (<lazyT \'The Core\'>, False, \'http://www.web2py.com/book/default/chapter/04\'), (<lazyT \'The Views\'>, False, \'http://www.web2py.com/book/default/chapter/05\'), (<lazyT \'Database\'>, False, \'http://www.web2py.com/book/default/chapter/06\'), (<lazyT \'Forms and Validators\'>, False, \'http://www.web2py.com/book/default/chapter/07\'), (<lazyT \'Email and SMS\'>, False, \'http://www.web2py.com/book/default/chapter/08\'), (<lazyT \'Access Control\'>, False, \'http://www.web2py.com/book/default/chapter/09\'), (<lazyT \'Services\'>, False, \'http://www.web2py.com/book/default/chapter/10\'), (<lazyT \'Ajax Recipes\'>, False, \'http://www.web2py.com/book/default/chapter/11\'), (<lazyT \'Components and Plugins\'>, False, \'http://www.web2py.com/book/default/chapter/12\'), (<lazyT \'Deployment Recipes\'>, False, \'http://www.web2py.com/book/default/chapter/13\'), (<lazyT \'Other Recipes\'>, False, \'http://www.web2py.com/book/default/chapter/14\'), (<lazyT \'Buy this book\'>, False, \'http://stores.lulu.com/web2py\')]), (<lazyT \'Community\'>, False, None, [(<lazyT \'Groups\'>, False, \'http://www.web2py.com/examples/default/usergroups\'), (<lazyT \'Twitter\'>, False, \'http://twitter.com/web2py\'), (<lazyT \'Live Chat\'>, False, \'http://webchat.freenode.net/?channels=web2py\')]), "  (T(\'Plugins\'), False, None, [\\n                .../web2py.com/layouts\'),\\n                        ])"])]'
p165
ssg70
I2443
sg71
(dp166
I2438
S''
sI2439
S'    def xml(self):'
p167
sI2440
S"        if self['mobile']:"
p168
sI2441
S'            return self.serialize_mobile(self.data, 0).xml()'
p169
sI2442
S'        else:'
p170
sI2443
S'            return self.serialize(self.data, 0).xml()'
p171
sI2444
S''
sI2445
S''
sI2446
S'def embed64('
p172
sI2447
S'    filename=None,'
p173
ssg83
S'(self=<gluon.html.MENU object>)'
p174
sg85
S'xml'
p175
sa(dp176
g62
S'/home/kira/web2py/gluon/html.py'
p177
sg64
(dp178
S'level'
p179
S'0'
sS'self'
p180
S'<gluon.html.MENU object>'
p181
sS'li'
p182
S'<gluon.html.LI object>'
p183
sS'li.append'
p184
S'<bound method LI.append of <gluon.html.LI object>>'
p185
sS'item'
p186
S'(<gluon.html.SPAN object>, False, \'http://web2py.com\', [(<lazyT \'My Sites\'>, False, \'/admin/default/site\'), (<lazyT \'This App\'>, False, \'/admin/default/design/projectlibrary\', [(<lazyT \'Controller\'>, False, \'/admin/default/edit/projectlibrary/controllers/default.py\'), (<lazyT \'View\'>, False, \'/admin/default/edit/projectlibrary/views/default/index.html\'), (<lazyT \'Layout\'>, False, \'/admin/default/edit/projectlibrary/views/layout.html\'), (<lazyT \'Stylesheet\'>, False, \'/admin/default/edit/projectlibrary/static/css/web2py.css\'), (<lazyT \'DB Model\'>, False, \'/admin/default/edit/projectlibrary/models/db.py\'), (<lazyT \'Menu Model\'>, False, \'/admin/default/edit/projectlibrary/models/menu.py\'), (<lazyT \'Database\'>, False, \'/projectlibrary/appadmin/index\'), (<lazyT \'Errors\'>, False, \'/admin/default/errors/projectlibrary\'), (<lazyT \'About\'>, False, \'/admin/default/about/projectlibrary\')]), (\'web2py.com\', False, \'http://www.web2py.com\', [(<lazyT \'Download\'>, False, \'http://www.web2py.com/examples/default/download\'), (<lazyT \'Support\'>, False, \'http://www.web2py.com/examples/default/support\'), (<lazyT \'Demo\'>, False, \'http://web2py.com/demo_admin\'), (<lazyT \'Quick Examples\'>, False, \'http://web2py.com/examples/default/examples\'), (<lazyT \'FAQ\'>, False, \'http://web2py.com/AlterEgo\'), (<lazyT \'Videos\'>, False, \'http://www.web2py.com/examples/default/videos/\'), (<lazyT \'Free Applications\'>, False, \'http://web2py.com/appliances\'), (<lazyT \'Plugins\'>, False, \'http://web2py.com/plugins\'), (<lazyT \'Layouts\'>, False, \'http://web2py.com/layouts\'), (<lazyT \'Recipes\'>, False, \'http://web2pyslices.com/\'), (<lazyT \'Semantic\'>, False, \'http://web2py.com/semantic\')]), (<lazyT \'Documentation\'>, False, \'http://www.web2py.com/book\', [(<lazyT \'Preface\'>, False, \'http://www.web2py.com/book/default/chapter/00\'), (<lazyT \'Introduction\'>, False, \'http://www.web2py.com/book/default/chapter/01\'), (<lazyT \'Python\'>, False, \'http://www.web2py.com/book/default/chapter/02\'), (<lazyT \'Overview\'>, False, \'http://www.web2py.com/book/default/chapter/03\'), (<lazyT \'The Core\'>, False, \'http://www.web2py.com/book/default/chapter/04\'), (<lazyT \'The Views\'>, False, \'http://www.web2py.com/book/default/chapter/05\'), (<lazyT \'Database\'>, False, \'http://www.web2py.com/book/default/chapter/06\'), (<lazyT \'Forms and Validators\'>, False, \'http://www.web2py.com/book/default/chapter/07\'), (<lazyT \'Email and SMS\'>, False, \'http://www.web2py.com/book/default/chapter/08\'), (<lazyT \'Access Control\'>, False, \'http://www.web2py.com/book/default/chapter/09\'), (<lazyT \'Services\'>, False, \'http://www.web2py.com/book/default/chapter/10\'), (<lazyT \'Ajax Recipes\'>, False, \'http://www.web2py.com/book/default/chapter/11\'), (<lazyT \'Components and Plugins\'>, False, \'http://www.web2py.com/book/default/chapter/12\'), (<lazyT \'Deployment Recipes\'>, False, \'http://www.web2py.com/book/default/chapter/13\'), (<lazyT \'Other Recipes\'>, False, \'http://www.web2py.com/book/default/chapter/14\'), (<lazyT \'Buy this book\'>, False, \'http://stores.lulu.com/web2py\')]), (<lazyT \'Community\'>, False, None, [(<lazyT \'Groups\'>, False, \'http://www.web2py.com/examples/default/usergroups\'), (<lazyT \'Twitter\'>, False, \'http://twitter.com/web2py\'), (<lazyT \'Live Chat\'>, False, \'http://webchat.freenode.net/?channels=web2py\')]), "  (T(\'Plugins\'), False, None, [\\n                .../web2py.com/layouts\'),\\n                        ])"])'
p187
sS'self.serialize'
p188
S'<bound method MENU.serialize of <gluon.html.MENU object>>'
p189
ssg70
I2416
sg71
(dp190
I2411
S"                    li['_class'] = self['li_first']"
p191
sI2412
S'                elif level == 0 and item == data[-1]:'
p192
sI2413
S"                    li['_class'] = self['li_last']"
p193
sI2414
S'                if len(item) > 3 and item[3]:'
p194
sI2415
S"                    li['_class'] = self['li_class']"
p195
sI2416
S'                    li.append(self.serialize(item[3], level + 1))'
p196
sI2417
S"                if active or ('active_url' in self.attributes and self['active_url'] == link):"
p197
sI2418
S"                    if li['_class']:"
p198
sI2419
S"                        li['_class'] = li['_class'] + ' ' + self['li_active']"
p199
sI2420
S'                    else:'
p200
ssg83
S'(self=<gluon.html.MENU object>, data=[(<lazyT \'Home\'>, False, \'/projectlibrary/default/index\', []), (<lazyT \'Register\'>, False, \'/projectlibrary/default/register\', []), (<lazyT \'Upload\'>, False, \'/projectlibrary/default/upload\', []), (<lazyT \'Browse\'>, False, \'/projectlibrary/default/browse\', []), (<gluon.html.SPAN object>, False, \'http://web2py.com\', [(<lazyT \'My Sites\'>, False, \'/admin/default/site\'), (<lazyT \'This App\'>, False, \'/admin/default/design/projectlibrary\', [(<lazyT \'Controller\'>, False, \'/admin/default/edit/projectlibrary/controllers/default.py\'), (<lazyT \'View\'>, False, \'/admin/default/edit/projectlibrary/views/default/index.html\'), (<lazyT \'Layout\'>, False, \'/admin/default/edit/projectlibrary/views/layout.html\'), (<lazyT \'Stylesheet\'>, False, \'/admin/default/edit/projectlibrary/static/css/web2py.css\'), (<lazyT \'DB Model\'>, False, \'/admin/default/edit/projectlibrary/models/db.py\'), (<lazyT \'Menu Model\'>, False, \'/admin/default/edit/projectlibrary/models/menu.py\'), (<lazyT \'Database\'>, False, \'/projectlibrary/appadmin/index\'), (<lazyT \'Errors\'>, False, \'/admin/default/errors/projectlibrary\'), (<lazyT \'About\'>, False, \'/admin/default/about/projectlibrary\')]), (\'web2py.com\', False, \'http://www.web2py.com\', [(<lazyT \'Download\'>, False, \'http://www.web2py.com/examples/default/download\'), (<lazyT \'Support\'>, False, \'http://www.web2py.com/examples/default/support\'), (<lazyT \'Demo\'>, False, \'http://web2py.com/demo_admin\'), (<lazyT \'Quick Examples\'>, False, \'http://web2py.com/examples/default/examples\'), (<lazyT \'FAQ\'>, False, \'http://web2py.com/AlterEgo\'), (<lazyT \'Videos\'>, False, \'http://www.web2py.com/examples/default/videos/\'), (<lazyT \'Free Applications\'>, False, \'http://web2py.com/appliances\'), (<lazyT \'Plugins\'>, False, \'http://web2py.com/plugins\'), (<lazyT \'Layouts\'>, False, \'http://web2py.com/layouts\'), (<lazyT \'Recipes\'>, False, \'http://web2pyslices.com/\'), (<lazyT \'Semantic\'>, False, \'http://web2py.com/semantic\')]), (<lazyT \'Documentation\'>, False, \'http://www.web2py.com/book\', [(<lazyT \'Preface\'>, False, \'http://www.web2py.com/book/default/chapter/00\'), (<lazyT \'Introduction\'>, False, \'http://www.web2py.com/book/default/chapter/01\'), (<lazyT \'Python\'>, False, \'http://www.web2py.com/book/default/chapter/02\'), (<lazyT \'Overview\'>, False, \'http://www.web2py.com/book/default/chapter/03\'), (<lazyT \'The Core\'>, False, \'http://www.web2py.com/book/default/chapter/04\'), (<lazyT \'The Views\'>, False, \'http://www.web2py.com/book/default/chapter/05\'), (<lazyT \'Database\'>, False, \'http://www.web2py.com/book/default/chapter/06\'), (<lazyT \'Forms and Validators\'>, False, \'http://www.web2py.com/book/default/chapter/07\'), (<lazyT \'Email and SMS\'>, False, \'http://www.web2py.com/book/default/chapter/08\'), (<lazyT \'Access Control\'>, False, \'http://www.web2py.com/book/default/chapter/09\'), (<lazyT \'Services\'>, False, \'http://www.web2py.com/book/default/chapter/10\'), (<lazyT \'Ajax Recipes\'>, False, \'http://www.web2py.com/book/default/chapter/11\'), (<lazyT \'Components and Plugins\'>, False, \'http://www.web2py.com/book/default/chapter/12\'), (<lazyT \'Deployment Recipes\'>, False, \'http://www.web2py.com/book/default/chapter/13\'), (<lazyT \'Other Recipes\'>, False, \'http://www.web2py.com/book/default/chapter/14\'), (<lazyT \'Buy this book\'>, False, \'http://stores.lulu.com/web2py\')]), (<lazyT \'Community\'>, False, None, [(<lazyT \'Groups\'>, False, \'http://www.web2py.com/examples/default/usergroups\'), (<lazyT \'Twitter\'>, False, \'http://twitter.com/web2py\'), (<lazyT \'Live Chat\'>, False, \'http://webchat.freenode.net/?channels=web2py\')]), "  (T(\'Plugins\'), False, None, [\\n                .../web2py.com/layouts\'),\\n                        ])"])], level=0)'
p201
sg85
S'serialize'
p202
sa(dp203
g62
S'/home/kira/web2py/gluon/html.py'
p204
sg64
(dp205
S'level'
p206
S'1'
sS'self'
p207
S'<gluon.html.MENU object>'
p208
sS'li'
p209
S'<gluon.html.LI object>'
p210
sS'li.append'
p211
S'<bound method LI.append of <gluon.html.LI object>>'
p212
sS'item'
p213
S'"  (T(\'Plugins\'), False, None, [\\n                .../web2py.com/layouts\'),\\n                        ])"'
p214
sS'self.serialize'
p215
S'<bound method MENU.serialize of <gluon.html.MENU object>>'
p216
ssg70
I2416
sg71
(dp217
I2411
S"                    li['_class'] = self['li_first']"
p218
sI2412
S'                elif level == 0 and item == data[-1]:'
p219
sI2413
S"                    li['_class'] = self['li_last']"
p220
sI2414
S'                if len(item) > 3 and item[3]:'
p221
sI2415
S"                    li['_class'] = self['li_class']"
p222
sI2416
S'                    li.append(self.serialize(item[3], level + 1))'
p223
sI2417
S"                if active or ('active_url' in self.attributes and self['active_url'] == link):"
p224
sI2418
S"                    if li['_class']:"
p225
sI2419
S"                        li['_class'] = li['_class'] + ' ' + self['li_active']"
p226
sI2420
S'                    else:'
p227
ssg83
S'(self=<gluon.html.MENU object>, data=[(<lazyT \'My Sites\'>, False, \'/admin/default/site\'), (<lazyT \'This App\'>, False, \'/admin/default/design/projectlibrary\', [(<lazyT \'Controller\'>, False, \'/admin/default/edit/projectlibrary/controllers/default.py\'), (<lazyT \'View\'>, False, \'/admin/default/edit/projectlibrary/views/default/index.html\'), (<lazyT \'Layout\'>, False, \'/admin/default/edit/projectlibrary/views/layout.html\'), (<lazyT \'Stylesheet\'>, False, \'/admin/default/edit/projectlibrary/static/css/web2py.css\'), (<lazyT \'DB Model\'>, False, \'/admin/default/edit/projectlibrary/models/db.py\'), (<lazyT \'Menu Model\'>, False, \'/admin/default/edit/projectlibrary/models/menu.py\'), (<lazyT \'Database\'>, False, \'/projectlibrary/appadmin/index\'), (<lazyT \'Errors\'>, False, \'/admin/default/errors/projectlibrary\'), (<lazyT \'About\'>, False, \'/admin/default/about/projectlibrary\')]), (\'web2py.com\', False, \'http://www.web2py.com\', [(<lazyT \'Download\'>, False, \'http://www.web2py.com/examples/default/download\'), (<lazyT \'Support\'>, False, \'http://www.web2py.com/examples/default/support\'), (<lazyT \'Demo\'>, False, \'http://web2py.com/demo_admin\'), (<lazyT \'Quick Examples\'>, False, \'http://web2py.com/examples/default/examples\'), (<lazyT \'FAQ\'>, False, \'http://web2py.com/AlterEgo\'), (<lazyT \'Videos\'>, False, \'http://www.web2py.com/examples/default/videos/\'), (<lazyT \'Free Applications\'>, False, \'http://web2py.com/appliances\'), (<lazyT \'Plugins\'>, False, \'http://web2py.com/plugins\'), (<lazyT \'Layouts\'>, False, \'http://web2py.com/layouts\'), (<lazyT \'Recipes\'>, False, \'http://web2pyslices.com/\'), (<lazyT \'Semantic\'>, False, \'http://web2py.com/semantic\')]), (<lazyT \'Documentation\'>, False, \'http://www.web2py.com/book\', [(<lazyT \'Preface\'>, False, \'http://www.web2py.com/book/default/chapter/00\'), (<lazyT \'Introduction\'>, False, \'http://www.web2py.com/book/default/chapter/01\'), (<lazyT \'Python\'>, False, \'http://www.web2py.com/book/default/chapter/02\'), (<lazyT \'Overview\'>, False, \'http://www.web2py.com/book/default/chapter/03\'), (<lazyT \'The Core\'>, False, \'http://www.web2py.com/book/default/chapter/04\'), (<lazyT \'The Views\'>, False, \'http://www.web2py.com/book/default/chapter/05\'), (<lazyT \'Database\'>, False, \'http://www.web2py.com/book/default/chapter/06\'), (<lazyT \'Forms and Validators\'>, False, \'http://www.web2py.com/book/default/chapter/07\'), (<lazyT \'Email and SMS\'>, False, \'http://www.web2py.com/book/default/chapter/08\'), (<lazyT \'Access Control\'>, False, \'http://www.web2py.com/book/default/chapter/09\'), (<lazyT \'Services\'>, False, \'http://www.web2py.com/book/default/chapter/10\'), (<lazyT \'Ajax Recipes\'>, False, \'http://www.web2py.com/book/default/chapter/11\'), (<lazyT \'Components and Plugins\'>, False, \'http://www.web2py.com/book/default/chapter/12\'), (<lazyT \'Deployment Recipes\'>, False, \'http://www.web2py.com/book/default/chapter/13\'), (<lazyT \'Other Recipes\'>, False, \'http://www.web2py.com/book/default/chapter/14\'), (<lazyT \'Buy this book\'>, False, \'http://stores.lulu.com/web2py\')]), (<lazyT \'Community\'>, False, None, [(<lazyT \'Groups\'>, False, \'http://www.web2py.com/examples/default/usergroups\'), (<lazyT \'Twitter\'>, False, \'http://twitter.com/web2py\'), (<lazyT \'Live Chat\'>, False, \'http://webchat.freenode.net/?channels=web2py\')]), "  (T(\'Plugins\'), False, None, [\\n                .../web2py.com/layouts\'),\\n                        ])"], level=1)'
p228
sg85
g202
sa(dp229
g62
S'/home/kira/web2py/gluon/html.py'
p230
sg64
(dp231
S'active'
p232
g161
sS'item'
p233
S"'T'"
p234
sS'link'
p235
g161
sS'name'
p236
g161
ssg70
I2396
sg71
(dp237
I2400
S'                    li = LI(DIV(name))'
p238
sI2391
S"            ul = UL(_class=self['ul_class'])"
p239
sI2392
S'        for item in data:'
p240
sI2393
S'            if isinstance(item,LI):'
p241
sI2394
S'                ul.append(item)'
p242
sI2395
S'            else:'
p243
sI2396
S'                (name, active, link) = item[:3]'
p244
sI2397
S'                if isinstance(link, DIV):'
p245
sI2398
S'                    li = LI(link)'
p246
sI2399
S"                elif 'no_link_url' in self.attributes and self['no_link_url'] == link:"
p247
ssg83
S"(self=<gluon.html.MENU object>, data='T', level=2)"
p248
sg85
g202
sasS'pyver'
p249
S'Python 2.7.3: /usr/bin/python (prefix: /usr)'
p250
sS'session'
p251
g57
(S's\xf9\x01\x00\x00<div><table><tr><td style="font-weight:bold;vertical-align:top">auth</td><td valign="top">:</td><td><div>None</div></td></tr><tr><td style="font-weight:bold;vertical-align:top">flash</td><td valign="top">:</td><td><div></div></td></tr><tr><td style="font-weight:bold;vertical-align:top">last_orderby</td><td valign="top">:</td><td><div>None</div></td></tr><tr><td style="font-weight:bold;vertical-align:top">last_query</td><td valign="top">:</td><td><div>db.auth_user.id&gt;0</div></td></tr></table></div>'
tRp252
sS'etype'
p253
S"<type 'exceptions.ValueError'>"
p254
sS'date'
p255
S'Sat Mar 30 19:01:48 2013'
p256
sS'response'
p257
g57
(S's\x901\x00\x00<div><table><tr><td style="font-weight:bold;vertical-align:top">body</td><td valign="top">:</td><td><div>&lt;cStringIO.StringO object at 0xae7aaea0&gt;</div></td></tr><tr><td style="font-weight:bold;vertical-align:top">cookies</td><td valign="top">:</td><td><div><table><tr><td style="font-weight:bold;vertical-align:top">session_id_projectlibrary</td><td valign="top">:</td><td><div>127.0.0.1-cf98d779-4b44-4f72-b387-dfbc855ed56c<table><tr><td style="font-weight:bold;vertical-align:top">comment</td><td valign="top">:</td><td><div></div></td></tr><tr><td style="font-weight:bold;vertical-align:top">domain</td><td valign="top">:</td><td><div></div></td></tr><tr><td style="font-weight:bold;vertical-align:top">expires</td><td valign="top">:</td><td><div></div></td></tr><tr><td style="font-weight:bold;vertical-align:top">httponly</td><td valign="top">:</td><td><div></div></td></tr><tr><td style="font-weight:bold;vertical-align:top">max-age</td><td valign="top">:</td><td><div></div></td></tr><tr><td style="font-weight:bold;vertical-align:top">path</td><td valign="top">:</td><td><div>/</div></td></tr><tr><td style="font-weight:bold;vertical-align:top">secure</td><td valign="top">:</td><td><div></div></td></tr><tr><td style="font-weight:bold;vertical-align:top">version</td><td valign="top">:</td><td><div></div></td></tr></table></div></td></tr></table></div></td></tr><tr><td style="font-weight:bold;vertical-align:top">delimiters</td><td valign="top">:</td><td><div><table><tr><td><div>{{</div></td></tr><tr><td><div>}}</div></td></tr></table></div></td></tr><tr><td style="font-weight:bold;vertical-align:top">files</td><td valign="top">:</td><td><div><table><tr><td><div>/projectlibrary/static/js/jquery.js</div></td></tr><tr><td><div>/projectlibrary/static/css/calendar.css</div></td></tr><tr><td><div>/projectlibrary/static/js/calendar.js</div></td></tr><tr><td><div>/projectlibrary/static/js/web2py.js</div></td></tr><tr><td><div>/projectlibrary/static/plugin_layouts/layouts/OrangeandBlack/style.css</div></td></tr><tr><td><div>/projectlibrary/static/plugin_layouts/superfish.js</div></td></tr></table></div></td></tr><tr><td style="font-weight:bold;vertical-align:top">flash</td><td valign="top">:</td><td><div>Welcome to Project Library</div></td></tr><tr><td style="font-weight:bold;vertical-align:top">generic_patterns</td><td valign="top">:</td><td><div><table><tr><td><div>*</div></td></tr></table></div></td></tr><tr><td style="font-weight:bold;vertical-align:top">google_analytics_id</td><td valign="top">:</td><td><div>None</div></td></tr><tr><td style="font-weight:bold;vertical-align:top">headers</td><td valign="top">:</td><td><div><table><tr><td style="font-weight:bold;vertical-align:top">X-Powered-By</td><td valign="top">:</td><td><div>web2py</div></td></tr></table></div></td></tr><tr><td style="font-weight:bold;vertical-align:top">logo</td><td valign="top">:</td><td><div><a class="brand" href="http://www.web2py.com/"><b>web<span>2</span>py</b>&trade;&nbsp;</a></div></td></tr><tr><td style="font-weight:bold;vertical-align:top">menu</td><td valign="top">:</td><td><div><table><tr><td><div><table><tr><td><div>Home</div></td></tr><tr><td><div>False</div></td></tr><tr><td><div>/projectlibrary/default/index</div></td></tr><tr><td><div><table></table></div></td></tr></table></div></td></tr><tr><td><div><table><tr><td><div>Register</div></td></tr><tr><td><div>False</div></td></tr><tr><td><div>/projectlibrary/default/register</div></td></tr><tr><td><div><table></table></div></td></tr></table></div></td></tr><tr><td><div><table><tr><td><div>Upload</div></td></tr><tr><td><div>False</div></td></tr><tr><td><div>/projectlibrary/default/upload</div></td></tr><tr><td><div><table></table></div></td></tr></table></div></td></tr><tr><td><div><table><tr><td><div>Browse</div></td></tr><tr><td><div>False</div></td></tr><tr><td><div>/projectlibrary/default/browse</div></td></tr><tr><td><div><table></table></div></td></tr></table></div></td></tr><tr><td><div><table><tr><td><div><span class="highlighted">web2py</span></div></td></tr><tr><td><div>False</div></td></tr><tr><td><div>http://web2py.com</div></td></tr><tr><td><div><table><tr><td><div><table><tr><td><div>My Sites</div></td></tr><tr><td><div>False</div></td></tr><tr><td><div>/admin/default/site</div></td></tr></table></div></td></tr><tr><td><div><table><tr><td><div>This App</div></td></tr><tr><td><div>False</div></td></tr><tr><td><div>/admin/default/design/projectlibrary</div></td></tr><tr><td><div>[(&lt;lazyT &#x27;Controller&#x27;&gt;, False, &#x27;/admin/default/edit/projectlibrary/controllers/default.py&#x27;), (&lt;lazyT &#x27;View&#x27;&gt;, False, &#x27;/admin/default/edit/projectlibrary/views/default/index.html&#x27;), (&lt;lazyT &#x27;Layout&#x27;&gt;, False, &#x27;/admin/default/edit/projectlibrary/views/layout.html&#x27;), (&lt;lazyT &#x27;Stylesheet&#x27;&gt;, False, &#x27;/admin/default/edit/projectlibrary/static/css/web2py.css&#x27;), (&lt;lazyT &#x27;DB Model&#x27;&gt;, False, &#x27;/admin/default/edit/projectlibrary/models/db.py&#x27;), (&lt;lazyT &#x27;Menu Model&#x27;&gt;, False, &#x27;/admin/default/edit/projectlibrary/models/menu.py&#x27;), (&lt;lazyT &#x27;Database&#x27;&gt;, False, &#x27;/projectlibrary/appadmin/index&#x27;), (&lt;lazyT &#x27;Errors&#x27;&gt;, False, &#x27;/admin/default/errors/projectlibrary&#x27;), (&lt;lazyT &#x27;About&#x27;&gt;, False, &#x27;/admin/default/about/projectlibrary&#x27;)]</div></td></tr></table></div></td></tr><tr><td><div><table><tr><td><div>web2py.com</div></td></tr><tr><td><div>False</div></td></tr><tr><td><div>http://www.web2py.com</div></td></tr><tr><td><div>[(&lt;lazyT &#x27;Download&#x27;&gt;, False, &#x27;http://www.web2py.com/examples/default/download&#x27;), (&lt;lazyT &#x27;Support&#x27;&gt;, False, &#x27;http://www.web2py.com/examples/default/support&#x27;), (&lt;lazyT &#x27;Demo&#x27;&gt;, False, &#x27;http://web2py.com/demo_admin&#x27;), (&lt;lazyT &#x27;Quick Examples&#x27;&gt;, False, &#x27;http://web2py.com/examples/default/examples&#x27;), (&lt;lazyT &#x27;FAQ&#x27;&gt;, False, &#x27;http://web2py.com/AlterEgo&#x27;), (&lt;lazyT &#x27;Videos&#x27;&gt;, False, &#x27;http://www.web2py.com/examples/default/videos/&#x27;), (&lt;lazyT &#x27;Free Applications&#x27;&gt;, False, &#x27;http://web2py.com/appliances&#x27;), (&lt;lazyT &#x27;Plugins&#x27;&gt;, False, &#x27;http://web2py.com/plugins&#x27;), (&lt;lazyT &#x27;Layouts&#x27;&gt;, False, &#x27;http://web2py.com/layouts&#x27;), (&lt;lazyT &#x27;Recipes&#x27;&gt;, False, &#x27;http://web2pyslices.com/&#x27;), (&lt;lazyT &#x27;Semantic&#x27;&gt;, False, &#x27;http://web2py.com/semantic&#x27;)]</div></td></tr></table></div></td></tr><tr><td><div><table><tr><td><div>Documentation</div></td></tr><tr><td><div>False</div></td></tr><tr><td><div>http://www.web2py.com/book</div></td></tr><tr><td><div>[(&lt;lazyT &#x27;Preface&#x27;&gt;, False, &#x27;http://www.web2py.com/book/default/chapter/00&#x27;), (&lt;lazyT &#x27;Introduction&#x27;&gt;, False, &#x27;http://www.web2py.com/book/default/chapter/01&#x27;), (&lt;lazyT &#x27;Python&#x27;&gt;, False, &#x27;http://www.web2py.com/book/default/chapter/02&#x27;), (&lt;lazyT &#x27;Overview&#x27;&gt;, False, &#x27;http://www.web2py.com/book/default/chapter/03&#x27;), (&lt;lazyT &#x27;The Core&#x27;&gt;, False, &#x27;http://www.web2py.com/book/default/chapter/04&#x27;), (&lt;lazyT &#x27;The Views&#x27;&gt;, False, &#x27;http://www.web2py.com/book/default/chapter/05&#x27;), (&lt;lazyT &#x27;Database&#x27;&gt;, False, &#x27;http://www.web2py.com/book/default/chapter/06&#x27;), (&lt;lazyT &#x27;Forms and Validators&#x27;&gt;, False, &#x27;http://www.web2py.com/book/default/chapter/07&#x27;), (&lt;lazyT &#x27;Email and SMS&#x27;&gt;, False, &#x27;http://www.web2py.com/book/default/chapter/08&#x27;), (&lt;lazyT &#x27;Access Control&#x27;&gt;, False, &#x27;http://www.web2py.com/book/default/chapter/09&#x27;), (&lt;lazyT &#x27;Services&#x27;&gt;, False, &#x27;http://www.web2py.com/book/default/chapter/10&#x27;), (&lt;lazyT &#x27;Ajax Recipes&#x27;&gt;, False, &#x27;http://www.web2py.com/book/default/chapter/11&#x27;), (&lt;lazyT &#x27;Components and Plugins&#x27;&gt;, False, &#x27;http://www.web2py.com/book/default/chapter/12&#x27;), (&lt;lazyT &#x27;Deployment Recipes&#x27;&gt;, False, &#x27;http://www.web2py.com/book/default/chapter/13&#x27;), (&lt;lazyT &#x27;Other Recipes&#x27;&gt;, False, &#x27;http://www.web2py.com/book/default/chapter/14&#x27;), (&lt;lazyT &#x27;Buy this book&#x27;&gt;, False, &#x27;http://stores.lulu.com/web2py&#x27;)]</div></td></tr></table></div></td></tr><tr><td><div><table><tr><td><div>Community</div></td></tr><tr><td><div>False</div></td></tr><tr><td><div>None</div></td></tr><tr><td><div>[(&lt;lazyT &#x27;Groups&#x27;&gt;, False, &#x27;http://www.web2py.com/examples/default/usergroups&#x27;), (&lt;lazyT &#x27;Twitter&#x27;&gt;, False, &#x27;http://twitter.com/web2py&#x27;), (&lt;lazyT &#x27;Live Chat&#x27;&gt;, False, &#x27;http://webchat.freenode.net/?channels=web2py&#x27;)]</div></td></tr></table></div></td></tr><tr><td><div>  (T(&#x27;Plugins&#x27;), False, None, [\n                        (&#x27;plugin_wiki&#x27;, False,\n                         &#x27;http://web2py.com/examples/default/download&#x27;),\n                        (T(&#x27;Other Plugins&#x27;), False,\n                         &#x27;http://web2py.com/plugins&#x27;),\n                        (T(&#x27;Layout Plugins&#x27;),\n                         False, &#x27;http://web2py.com/layouts&#x27;),\n                        ])</div></td></tr></table></div></td></tr></table></div></td></tr></table></div></td></tr><tr><td style="font-weight:bold;vertical-align:top">meta</td><td valign="top">:</td><td><div><table><tr><td style="font-weight:bold;vertical-align:top">author</td><td valign="top">:</td><td><div>Your Name &lt;you@example.com&gt;</div></td></tr><tr><td style="font-weight:bold;vertical-align:top">description</td><td valign="top">:</td><td><div>a cool new app</div></td></tr><tr><td style="font-weight:bold;vertical-align:top">generator</td><td valign="top">:</td><td><div>Web2py Web Framework</div></td></tr><tr><td style="font-weight:bold;vertical-align:top">keywords</td><td valign="top">:</td><td><div>web2py, python, framework</div></td></tr></table></div></td></tr><tr><td style="font-weight:bold;vertical-align:top">models_to_run</td><td valign="top">:</td><td><div><table><tr><td><div>^\\w+\\.py$</div></td></tr><tr><td><div>^default/\\w+\\.py$</div></td></tr><tr><td><div>^default/index/\\w+\\.py$</div></td></tr></table></div></td></tr><tr><td style="font-weight:bold;vertical-align:top">postprocessing</td><td valign="top">:</td><td><div><table></table></div></td></tr><tr><td style="font-weight:bold;vertical-align:top">session_cookie_expires</td><td valign="top">:</td><td><div>None</div></td></tr><tr><td style="font-weight:bold;vertical-align:top">session_data_name</td><td valign="top">:</td><td><div>session_data_projectlibrary</div></td></tr><tr><td style="font-weight:bold;vertical-align:top">session_file</td><td valign="top">:</td><td><div>&lt;open file &#x27;/home/kira/web2py/applications/projectlibrary/sessions/127.0.0.1-cf98d779-4b44-4f72-b387-dfbc855ed56c&#x27;, mode &#x27;rb+&#x27; at 0xae78df98&gt;</div></td></tr><tr><td style="font-weight:bold;vertical-align:top">session_filename</td><td valign="top">:</td><td><div>/home/kira/web2py/applications/projectlibrary/sessions/127.0.0.1-cf98d779-4b44-4f72-b387-dfbc855ed56c</div></td></tr><tr><td style="font-weight:bold;vertical-align:top">session_id</td><td valign="top">:</td><td><div>127.0.0.1-cf98d779-4b44-4f72-b387-dfbc855ed56c</div></td></tr><tr><td style="font-weight:bold;vertical-align:top">session_id_name</td><td valign="top">:</td><td><div>session_id_projectlibrary</div></td></tr><tr><td style="font-weight:bold;vertical-align:top">session_locked</td><td valign="top">:</td><td><div>True</div></td></tr><tr><td style="font-weight:bold;vertical-align:top">session_new</td><td valign="top">:</td><td><div>False</div></td></tr><tr><td style="font-weight:bold;vertical-align:top">session_storage_type</td><td valign="top">:</td><td><div>file</div></td></tr><tr><td style="font-weight:bold;vertical-align:top">status</td><td valign="top">:</td><td><div>200</div></td></tr><tr><td style="font-weight:bold;vertical-align:top">subtitle</td><td valign="top">:</td><td><div>customize me!</div></td></tr><tr><td style="font-weight:bold;vertical-align:top">title</td><td valign="top">:</td><td><div>Projectlibrary</div></td></tr><tr><td style="font-weight:bold;vertical-align:top">view</td><td valign="top">:</td><td><div>default/index.html</div></td></tr></table></div>'
tRp258
sS'locals'
p259
(dp260
S'ul'
p261
S'<gluon.html.UL object>'
p262
sS'item'
p263
S"'T'"
p264
sS'self'
p265
S'<gluon.html.MENU object>'
p266
sS'data'
p267
S"'T'"
p268
sS'level'
p269
S'2'
sssS'traceback'
p270
S'Traceback (most recent call last):\n  File "/home/kira/web2py/gluon/restricted.py", line 212, in restricted\n    exec ccode in environment\n  File "/home/kira/web2py/applications/projectlibrary/views/default/index.html", line 31, in <module>\n  File "/home/kira/web2py/gluon/globals.py", line 202, in write\n    self.body.write(xmlescape(data))\n  File "/home/kira/web2py/gluon/html.py", line 120, in xmlescape\n    return data.xml()\n  File "/home/kira/web2py/gluon/html.py", line 2443, in xml\n    return self.serialize(self.data, 0).xml()\n  File "/home/kira/web2py/gluon/html.py", line 2416, in serialize\n    li.append(self.serialize(item[3], level + 1))\n  File "/home/kira/web2py/gluon/html.py", line 2416, in serialize\n    li.append(self.serialize(item[3], level + 1))\n  File "/home/kira/web2py/gluon/html.py", line 2396, in serialize\n    (name, active, link) = item[:3]\nValueError: need more than 1 value to unpack\n'
p271
s.