(dp1
S'output'
p2
S"<type 'exceptions.NameError'> name 'clear' is not defined"
p3
sS'layer'
p4
S'/home/kira/web2py/applications/projectlibrary/controllers/default.py'
p5
sS'code'
p6
S'# -*- coding: utf-8 -*-\n# this file is released under public domain and you can use without limitations\n\n#########################################################################\n## This is a samples controller\n## - index is the default action of any application\n## - user is required for authentication and authorization\n## - download is for downloading files uploaded in the db (does streaming)\n## - call exposes all registered services (none by default)\n#########################################################################\n\n\ndef index():\n    form = db().select(db.project.ALL, orderby=~db.project.num_downloads)\n    \n    form1 = db().select(db.project.ALL, orderby=~db.project.date_added)\n    return dict(form=form,form1=form1)\n    """\n    example action using the internationalization operator T and flash\n    rendered by views/default/index.html or views/generic.html\n\n    if you need a simple wiki simple replace the two lines below with:\n    return auth.wiki()\n    """\n    session.flash = T("Welcome to Project Library")\n    return dict(message=T(\'Search - Download - Upload\'))\n\n\ndef user():\n    """\n    exposes:\n    http://..../[app]/default/user/login\n    http://..../[app]/default/user/logout\n    http://..../[app]/default/user/register\n    http://..../[app]/default/user/profile\n    http://..../[app]/default/user/retrieve_password\n    http://..../[app]/default/user/change_password\n    use @auth.requires_login()\n        @auth.requires_membership(\'group name\')\n        @auth.requires_permission(\'read\',\'table name\',record_id)\n    to decorate functions that need access control\n    """\n    return dict(form=auth())\n\n\ndef download():\n    """\n    allows downloading of uploaded files\n    http://..../[app]/default/download/[filename]\n    """\n    return response.download(request, db)\n\n\ndef call():\n    """\n    exposes services. for example:\n    http://..../[app]/default/call/jsonrpc\n    decorate with @services.jsonrpc the functions to expose\n    supports xml, json, xmlrpc, jsonrpc, amfrpc, rss, csv\n    """\n    return service()\n\n\n@auth.requires_signature()\ndef data():\n    """\n    http://..../[app]/default/data/tables\n    http://..../[app]/default/data/create/[table]\n    http://..../[app]/default/data/read/[table]/[id]\n    http://..../[app]/default/data/update/[table]/[id]\n    http://..../[app]/default/data/delete/[table]/[id]\n    http://..../[app]/default/data/select/[table]\n    http://..../[app]/default/data/search/[table]\n    but URLs must be signed, i.e. linked with\n      A(\'table\',_href=URL(\'data/tables\',user_signature=True))\n    or with the signed load operator\n      LOAD(\'default\',\'data.load\',args=\'tables\',ajax=True,user_signature=True)\n    """\n    return dict(form=crud())\n\ndef clearnoti():\n\tform=db(db.flak.user_id==auth.user.id).select()\n\tfor some in form:\n\t\tsome.all_flag=False\n\t\tsome.comments_flag=False\n\t\tsome.rating_flag=False\n\t\tsome.download_flag=False\n\t\tsome.update_record()\n\tredirect(URL(\'noti\'))\n\t\n\n\ndef search_func():\n\tform = db().select(db.project.ALL, orderby=db.project.project_name)\n\tform1=db().select(db.auth_user.ALL)\n\tform2=db().select(db.files.ALL)\n\tt= request.vars.s\n\treturn dict(t=t,form=form,form1=form1,form2=form2)\n\ndef register():\n\tform = crud.create(db.auth_user)\n\treturn dict(form=form)\n\n@auth.requires_login()\ndef viewsub():\n\t\tuser=db(db.subscribe.cur_user==auth.user.id).select()\n\t\treturn dict(user=user)\n@auth.requires_login()\ndef delsub():\n\tdb((db.subscribe.cur_user==auth.user.id) & (db.subscribe.sub_user==request.args(0,cast=int))).delete()\n\tredirect(URL(\'viewsub\'))\n\n\n\n@auth.requires_login()\ndef sub():\n\tuser=db(db.auth_user.id==request.args(0,cast=int)).select().first()\n\tif auth.user.email!=user.email:\n\t\tsad=db((db.subscribe.cur_user==auth.user.id) & (db.subscribe.sub_user==user.id)).select()\n\t\tif len(sad)==0:\n\t\t\ts="You are now subscribed to  "+str(user.email)\n\t\t\tsession.flash=s\n\t\t\tdb.subscribe.insert(cur_user=auth.user.id,sub_user=user.id,is_sub=1)\n\t\telse:\n\t\t\ts="You are already subscribed to  "+str(user.email)\n\t\t\tsession.flash=s\n\telse:\n\t\ts="You cannot subscribe to yourself"\n\t\tsession.flash=s\n\t  \t\n\tredirect(URL(\'allprofile\',args=user.id))\n\treturn dict()\n\n@auth.requires_login()\ndef delkol():\n\tdb((db.kolect.cur_user==auth.user.id) & (db.kolect.project_id==request.args(0,cast=int))).delete()\n\tredirect(URL(\'viewkol\'))\n\n@auth.requires_login()\ndef viewkol():\n\t\tsad=db(db.kolect.cur_user==auth.user.id).select()\n\t\treturn dict(sad=sad)\n\t\t\t\n\n@auth.requires_login()\ndef addtokol():\n\tproject=db.project(request.args(0,cast=int)) or redirect(URL(\'index\'))\n\n\tsad=db((db.kolect.cur_user==auth.user.id) & (db.kolect.project_id==project.id)).select()\n\tif len(sad)==0:\n\t\ts=str(project.project_name) + \' is now added to your Collection\' \n\t\tsession.flash=s\n\t\tdb.kolect.insert(cur_user=auth.user.id,project_id=project.id,is_sub=1)\n\telse:\n\t\ts=str(project.project_name) + \' is already in your Collection\' \n\t\tsession.flash=s\n\tredirect(URL(\'project_page\',args=project.id))\n\treturn dict(project=project)\n\n\ndef noti():\n\tseen=db(db.flak.user_id==auth.user.id).select()\n\treturn dict(seen=seen)\n\ndef profile():\n\tredirect(URL(\'allprofile\',args=auth.user.id))\n\ndef editprojects():\n\tform = db(db.auth_user.id==auth.user.id).select()\n\trow=db(db.allowed_users.other_email==auth.user.email).select()\n\tproject=db(db.project.projectadmin_email==auth.user.email).select()\n\treturn dict(row=row,form=form,project=project)\n\n\ndef editprofile():\n\tform = db(db.auth_user.id==auth.user.id).select()\n\trow=db(db.allowed_users.other_email==auth.user.email).select()\n\tdb.auth_user.email.writable=False\n\treturn dict(form1=auth.profile(),row=row,form=form)\n\ndef allprofile():\n\tform = db(db.auth_user.id==request.args(0,cast=int)).select()\n\trow1=db(db.allowed_users.other_email==form[0].email).select()\n\n\tif auth.user:\n\t\trow=db(db.allowed_users.other_email==auth.user.email).select()\n\t\treturn dict(form=form,row=row,row1=row1)\n\telse:\n\t\treturn dict(form=form,row1=row1)\n\ndef byuploads():\n\tform = db().select(db.auth_user.ALL, orderby=~db.auth_user.upload_count)\n\treturn dict(form = form)\n\ndef most_recent():\n\tform = db().select(db.project.ALL, orderby=~db.project.date_added)\n\treturn dict(form=form)\n\t\ndef bycomments():\n\tform = db().select(db.project.ALL, orderby=~db.project.num_comments)\n\treturn dict(form=form)\n\ndef bydownloads():\n\tform = db().select(db.project.ALL, orderby=~db.project.num_downloads)\n\treturn dict(form=form)\n\ndef byrating():\n\tform = db().select(db.project.ALL, orderby=~db.project.avg_rating)\n\treturn dict(form=form)\n\ndef az():\n\tform = db().select(db.project.ALL, orderby=db.project.project_name)\n\treturn dict(form=form)\ndef za():\n\tform1 = db().select(db.project.ALL, orderby=~db.project.project_name)\n\treturn dict(form1=form1)\ndef browse():\n\tform = db().select(db.project.ALL, orderby=db.project.project_name)\n\treturn dict(form=form)\n\n@auth.requires_login()\ndef uploadpage():\n\treturn dict()\n\ndef viewfiles():\n\t\n\tproject=db.project(request.args(0,cast=int)) or redirect(URL(\'index\'))\n\tmain=db(db.files.project_id==project.id).select()\n\tver1=db((db.files.project_version==1) & (db.files.project_id==project.id)).select()\n\tver2=db((db.files.project_version==2) & (db.files.project_id==project.id)).select()\n\tver3=db((db.files.project_version==3) & (db.files.project_id==project.id)).select()\n\n\treturn dict(ver1=ver1,ver2=ver2,ver3=ver3,main=main,project=project)\n\ndef delfile3():\n\tfiles=db((db.files.file_name==request.args(0,cast=str)) & (db.files.project_version==1)).select().last()\n\tdb((db.files.file_name==request.args(0,cast=str)) & (db.files.project_version==3)).delete()\n\tsession.flash="File Deleted"\n\tredirect(URL(\'viewfiles\',args=files.project_id))\ndef delfile2():\n\tfiles=db((db.files.file_name==request.args(0,cast=str)) & (db.files.project_version==1)).select().last()\n\tdb((db.files.file_name==request.args(0,cast=str)) & (db.files.project_version==2)).delete()\n\tsession.flash="File Deleted"\n\tredirect(URL(\'viewfiles\',args=files.project_id))\ndef delfile1():\n\tfiles=db((db.files.file_name==request.args(0,cast=str)) & (db.files.project_version==1)).select().last()\n\tdb((db.files.file_name==request.args(0,cast=str)) & (db.files.project_version==1)).delete()\n\tsession.flash="File Deleted"\n\tredirect(URL(\'viewfiles\',args=files.project_id))\n\n\ndef addfiles():\n\t\n\tform=SQLFORM(db.files)\n\tproject=db.project(request.args(0,cast=int)) or redirect(URL(\'index\'))\n\tif form.process().accepted:\n\t\tsession.flash=\'Files Added\'\n\t\tmain2=db(db.files.file_name==request.vars.file_name).select().last()\n\t\tmain2.project_id=project.id\n\t\tmain=db((db.files.file_name==request.vars.file_name) & (db.files.project_id==project.id)).select()\n\t\tif len(main)==3:\n\t\t\tv1=db((db.files.file_name==request.vars.file_name) & (db.files.project_id==project.id) &(db.files.project_version==1)).select()\n\t\t\tv2=db((db.files.file_name==request.vars.file_name) & (db.files.project_id==project.id) &(db.files.project_version==2)).select()\n\t\t\tv3=db((db.files.file_name==request.vars.file_name) & (db.files.project_id==project.id) &(db.files.project_version==3)).select()\n\t\t\tv1[0].project_file=v2[0].project_file\n\t\t\tv1[0].file_description=v2[0].file_description\n\t\t\tv2[0].file_description=v3[0].file_description\n\t\t\tv3[0].file_description=request.vars.file_description\n\t\t\tv2[0].project_file=v3[0].project_file\n\t\t\tv3[0].project_file=request.vars.project_file\n\t\t\tv1[0].update_record()\n\t\t\tv2[0].update_record()\n\t\t\tv3[0].update_record()\n\t\telse:\n\t\t\tmain2.project_version=len(main) + 1\n\t\t\tmain2.update_record()\n\t\trow1=db(db.auth_user.email==auth.user.email).select()\n\t\trow1[0].upload_count = row1[0].upload_count + 1\n\t\trow1[0].update_record()\n\t\tdb(db.files.project_version==0).delete()\n\t\tredirect(URL(\'viewfiles\',args=project.id))\n\treturn dict(project=project,form=form)\n\ndef oldproject():\n\trow=db(db.allowed_users.other_email==auth.user.email).select()\n\t\t\n\treturn dict(row=row)\n\n\t\ndef newproject():\n\tform = SQLFORM(db.project)\n\n\tif form.process().accepted:\n\t\tsome=db(db.project.project_name==request.vars.project_name).select()\n\t\trow=db(db.project.project_name==request.vars.project_name).validate_and_update(projectadmin_email=auth.user.email)\n\t\trow1=db(db.auth_user.email==auth.user.email).select()\n\t\trow1[0].upload_count = row1[0].upload_count + 1\n\t\trow1[0].update_record()\n\t\tdb.flak.insert(user_id=auth.user.id,project_id=db().select(db.project.id).last())\n\t\tredirect(URL(\'project_page\',args=some[0].id))\n\treturn dict(form=form)\n\ndef category():\n\tform = db().select(db.project.ALL, orderby=db.project.project_name)\n\treturn dict(form=form)\n\ndef listofprojects():\n\tform =db(db.project.category==request.args(0,cast=str)).select()\n\treturn dict(form=form)\n\ndef most_uploaded():\n\tform = db().select(db.auth_user.ALL)\n\treturn dict(form=form)\n\n\ndef most_rated():\n\tform = db().select(db.project.ALL)\n\treturn dict(form=form)\n\ndef most_commented():\n\tform = db().select(db.project.ALL)\n\treturn dict(form=form)\n\ndef userprojects():\n\tprojects=db(db.project.projectadmin_email==auth.user.email).select()\n\treturn dict(projects=projects)\ndef download_func3():\n\t\n\tmain=db((db.files.project_id==request.args(0,cast=int)) & (db.files.project_version==3)).select()\n\t\n\tproject = db.project(request.args(0,cast=int)) or redirect(URL(\'index\'))\n\tproject.num_downloads=project.num_downloads + 1\n\tproject.update_record()\n\tcan=db(db.flak.project_id==project.id).select()\n\tif len(can)!=0:\n\t\n\t\tcan[0].download_flag=True\n\t\tcan[0].all_flag=True\n\t\tcan[0].update_record()\n\n\tredirect(URL(\'download\',args=main[0].project_file))\ndef download_func2():\n\t\n\tmain=db((db.files.project_id==request.args(0,cast=int)) & (db.files.project_version==2)).select()\n\t\n\tproject = db.project(request.args(0,cast=int)) or redirect(URL(\'index\'))\n\tproject.num_downloads=project.num_downloads + 1\n\tproject.update_record()\n\tcan=db(db.flak.project_id==project.id).select()\n\tif len(can)!=0:\n\t\tcan[0].download_flag=True\n\t\tcan[0].all_flag=True\n\t\tcan[0].update_record()\n\n\tredirect(URL(\'download\',args=main[0].project_file))\ndef download_func1():\n\t\n\tmain=db((db.files.project_id==request.args(0,cast=int)) & (db.files.project_version==1)).select()\n\t\n\tproject = db.project(request.args(0,cast=int)) or redirect(URL(\'index\'))\n\tproject.num_downloads=project.num_downloads + 1\n\tproject.update_record()\n\tcan=db(db.flak.project_id==project.id).select()\n\tif len(can)!=0:\n\t\tcan[0].download_flag=True\n\t\tcan[0].all_flag=True\n\t\tcan[0].update_record()\n\n\tredirect(URL(\'download\',args=main[0].project_file))\n\n\ndef mostdownload():\n\tform=db().select(db.project.ALL)\n\treturn dict(form=form)\n"""\ndef clear():\n\tdb.project.truncate()\n\tdb.auth_user.truncate()\n\tdb.comments.truncate()\n\tdb.flak.truncate()\n\tdb.subscribe.truncate()\n\tdb.allowed_users.truncate()\n\tdb.files.truncate()\n\tdb.kolect.truncate()\n\n\treturn dict()\n"""\n\n@auth.requires_login()\ndef delproject():\n\t\n\tproject = db.project(request.args(0,cast=int)) or redirect(URL(\'index\'))\n\n\tdb(db.allowed_users.project_name==project.project_name).delete()\n\tdb(request.args(0,cast=int)==db.project.id).delete()\n\tsession.flash = \'Project deleted\'\n\tredirect(URL(\'editprojects\'))\n\n\n@auth.requires_login()\ndef editproject():\n\tproject = db.project(request.args(0,cast=int))\n\t\n\tform = SQLFORM.factory(\n\t\t\tField(\'description\',type=\'text\',default=project.description),\n\t\t\tField(\'projectadmin_email\',writable=False,readable=False,default=auth.user.email),\n\t\t\tField(\'project_pic\',type=\'upload\',uploadfolder=\'uploads\'),\n\t\t\tField(\'type_of_project\',requires=IS_IN_SET([\'Course\',\'Thesis\',\'Research Paper\',\'MSIT\',\'Other\']),default=project.type_of_project),\n\t\t\tField(\'category\',requires=IS_IN_SET([\'Audio & Video\',\'Business & Enterprise\',\'Communications\',\'Development\',\'Home & Education\',\'Games\',\'Graphics\',\'Science & Engineering\',\'Websites\',\'Others\']),default=project.category),\n\t\t\tField(\'project_admin_year\',requires=IS_IN_SET([\'BTECH\',\'MS\',\'MTECH\',\'PHD\']),default=project.project_admin_year)\n\t\t\n\t\t\t)\n\tif form.process().accepted:\n\t\tsession.flash=\'Project Details Updated\'\n\t\tdb(db.project.id==request.args(0,cast=int)).update(project_pic=form.vars.project_pic,description=form.vars.description,type_of_project=form.vars.type_of_project,category=form.vars.category,project_admin_year=form.vars.project_admin_year)\n\t\tredirect(URL(\'editproject\',args=project.id))\n\treturn dict(form=form,project=project)\n\ndef project_page():\n\tproject = db.project(request.args(0,cast=int)) or redirect(URL(\'index\'))\n\tdb.comments.project_id.default = project.id\n\tform = SQLFORM(db.comments)\n\tcomments = db(db.comments.project_id==project.id).select()\n\treturn dict(project=project, comments=comments, form=form)\n\n@auth.requires_login()\ndef commentandrate():\n\tproject = db.project(request.args(0,cast=int)) or redirect(URL(\'index\'))\n\tdb.comments.project_id.default = project.id\n\tform = SQLFORM(db.comments)\n\tform1= SQLFORM.factory(\n\t\tField(\'rating\',type=\'integer\',requires=IS_IN_SET([1,2,3,4,5])))\n\t\n\tif form.process().accepted:\n\t\trow=db(db.comments.comment_c==request.vars.comment_c).select().last()\n\t\trow.commenter_c=auth.user.email\n\t\trow.update_record()\n\t\t\n\t\tcan=db(db.flak.project_id==project.id).select()\n\t\tif len(can)!=0:\n\t\t\tcan[0].comments_flag=True\n\t\t\tcan[0].all_flag=True\n\t\t\tcan[0].update_record()\n\t\tresponse.flash = \'your comment is posted\'\n\t\n\tif form1.process().accepted:\n\t\tresponse.flash = \'your rating has been added\'\n\t\tproject.num_rating = project.num_rating + 1\n\t\tproject.total_rating = int(project.total_rating) + int(request.vars.rating)\n\t\tcan=db(db.flak.project_id==project.id).select()\n\t\tif len(can)!=0:\n\t\t\tcan[0].rating_flag=True\n\t\t\tcan[0].all_flag=True\n\t\t\tcan[0].update_record()\n\t\tproject.update_record()\n\t\n\tcomments = db(db.comments.project_id==project.id).select()\n\t\n\treturn dict(project=project, comments=comments, form=form,form1=form1)\n\ndef collo_error():\n\treturn dict()\n"""\ndef delete_collo():\n\tprint request.args(1)\n\treturn  dict()\n"""\ndef confirm_delcollo():\n\t\n\tuser = db.allowed_users(request.args(0,cast=int)) or redirect(URL(\'index\'))\n\tproject=db(db.allowed_users.project_name==user.project_name).select()\n\tdb(request.args(0,cast=int)==db.allowed_users.id).delete()\n\tredirect(URL(\'project_page\',args=project[0].id))\n\n\n\ndef delcollo():\n\n\tproject = db.project(request.args(0,cast=int))\n\trow=db(db.allowed_users.project_name==project.project_name).select()\n\n\tif auth.user:\n\t\tif auth.user.email==project.projectadmin_email:\n\t\t\treturn dict(row=row,project=project)\n\telse:\n\t\tredirect(URL(\'collo_error\',args=project.id))\n\n\n@auth.requires_login()\ndef addcollo():\n\t\n\tproject = db.project(request.args(0,cast=int)) or redirect(URL(\'index\'))\n\t\n#\trow=db(project.project_name==db.allowed_users.project_name).select()\n\n\tform1 = SQLFORM.factory(\n\t\tField(\'add_collaborator\',type=\'string\',requires=IS_EMAIL())\n\t\t)\n \n\trow1=db(db.allowed_users.project_name==project.project_name).select()\n\t\n\tif form1.process().accepted:\n\t\tdb.allowed_users.insert(other_email=request.vars.add_collaborator)\n\t\trow=db(db.allowed_users.other_email==request.vars.add_collaborator).select().last()\n\t\trow.project_name=project.project_name\n\t\trow.projectadmin_email=auth.user.email\n\t\trow.update_record()\n\t\tredirect(URL(\'project_page\',args=project.id))\n\t\t\n\n\tif auth.user.email==project.projectadmin_email:\n\t\t\treturn dict(form1=form1,project=project,row1=row1)\n\telse:\n\t\t\tredirect(URL(\'collo_error\',args=project.id))\n\t\n\n\n\n\n\t\n"""def login():\n\tform=SQLFORM.factory(\n\t\t\tField(\'user\',type=\'string\',requires=IS_NOT_EMPTY()),\n\t\t\tField(\'password\',type=\'password\'),\n\t\t\tField(\'dateofbirth\',type=\'date\')\n\t)\n\tif form.process().accepted:\n\t\trow=db(db.register.Username==request.vars.user).select()\n\t\tif request.vars.password==row[0][\'Password\']:\n\t\t\tredirect(URL(\'upload\'))\n\t\telse:\n\t\t\tresponse.flash=\'Invalid username or password\'\n\telse:\n\t \tresponse.flash=\'Error\'\n\n\treturn dict(form=form)\n"""\n\nresponse._vars=response._caller(clear)\n'
p7
sS'snapshot'
p8
(dp9
S'exception'
p10
(dp11
S'__hash__'
p12
S"<method-wrapper '__hash__' of exceptions.NameError object>"
p13
sS'__setattr__'
p14
S"<method-wrapper '__setattr__' of exceptions.NameError object>"
p15
sS'__reduce_ex__'
p16
S'<built-in method __reduce_ex__ of exceptions.NameError object>'
p17
sS'__getslice__'
p18
S"<method-wrapper '__getslice__' of exceptions.NameError object>"
p19
sS'__getitem__'
p20
S"<method-wrapper '__getitem__' of exceptions.NameError object>"
p21
sS'__setstate__'
p22
S'<built-in method __setstate__ of exceptions.NameError object>'
p23
sS'__reduce__'
p24
S'<built-in method __reduce__ of exceptions.NameError object>'
p25
sS'__str__'
p26
S"<method-wrapper '__str__' of exceptions.NameError object>"
p27
sS'__format__'
p28
S'<built-in method __format__ of exceptions.NameError object>'
p29
sS'__getattribute__'
p30
S"<method-wrapper '__getattribute__' of exceptions.NameError object>"
p31
sS'__class__'
p32
S"<type 'exceptions.NameError'>"
p33
sS'__unicode__'
p34
S'<built-in method __unicode__ of exceptions.NameError object>'
p35
sS'__delattr__'
p36
S"<method-wrapper '__delattr__' of exceptions.NameError object>"
p37
sS'__subclasshook__'
p38
S'<built-in method __subclasshook__ of type object>'
p39
sS'__repr__'
p40
S"<method-wrapper '__repr__' of exceptions.NameError object>"
p41
sS'args'
p42
S'("name \'clear\' is not defined",)'
p43
sS'__dict__'
p44
S'{}'
p45
sS'__sizeof__'
p46
S'<built-in method __sizeof__ of exceptions.NameError object>'
p47
sS'__doc__'
p48
S"'Name not found globally.'"
p49
sS'__init__'
p50
S"<method-wrapper '__init__' of exceptions.NameError object>"
p51
sS'__new__'
p52
S'<built-in method __new__ of type object>'
p53
ssS'evalue'
p54
S"name 'clear' is not defined"
p55
sS'request'
p56
cgluon.html
XML_unpickle
p57
(S's\xb1U\x00\x00<div><table><tr><td style="font-weight:bold;vertical-align:top">ajax</td><td valign="top">:</td><td><div>False</div></td></tr><tr><td style="font-weight:bold;vertical-align:top">application</td><td valign="top">:</td><td><div>projectlibrary</div></td></tr><tr><td style="font-weight:bold;vertical-align:top">args</td><td valign="top">:</td><td><div><table></table></div></td></tr><tr><td style="font-weight:bold;vertical-align:top">body</td><td valign="top">:</td><td><div>&lt;cStringIO.StringO object at 0x90775c0&gt;</div></td></tr><tr><td style="font-weight:bold;vertical-align:top">cid</td><td valign="top">:</td><td><div>None</div></td></tr><tr><td style="font-weight:bold;vertical-align:top">client</td><td valign="top">:</td><td><div>127.0.0.1</div></td></tr><tr><td style="font-weight:bold;vertical-align:top">controller</td><td valign="top">:</td><td><div>default</div></td></tr><tr><td style="font-weight:bold;vertical-align:top">cookies</td><td valign="top">:</td><td><div><table><tr><td style="font-weight:bold;vertical-align:top">session_id_admin</td><td valign="top">:</td><td><div>127.0.0.1-c7b03516-8616-433a-ab7c-a00132379fa1<table><tr><td style="font-weight:bold;vertical-align:top">comment</td><td valign="top">:</td><td><div></div></td></tr><tr><td style="font-weight:bold;vertical-align:top">domain</td><td valign="top">:</td><td><div></div></td></tr><tr><td style="font-weight:bold;vertical-align:top">expires</td><td valign="top">:</td><td><div></div></td></tr><tr><td style="font-weight:bold;vertical-align:top">httponly</td><td valign="top">:</td><td><div></div></td></tr><tr><td style="font-weight:bold;vertical-align:top">max-age</td><td valign="top">:</td><td><div></div></td></tr><tr><td style="font-weight:bold;vertical-align:top">path</td><td valign="top">:</td><td><div></div></td></tr><tr><td style="font-weight:bold;vertical-align:top">secure</td><td valign="top">:</td><td><div></div></td></tr><tr><td style="font-weight:bold;vertical-align:top">version</td><td valign="top">:</td><td><div></div></td></tr></table></div></td></tr><tr><td style="font-weight:bold;vertical-align:top">session_id_projectlibrary</td><td valign="top">:</td><td><div>127.0.0.1-0ce5b183-5fcb-4b08-b264-315e064db59f<table><tr><td style="font-weight:bold;vertical-align:top">comment</td><td valign="top">:</td><td><div></div></td></tr><tr><td style="font-weight:bold;vertical-align:top">domain</td><td valign="top">:</td><td><div></div></td></tr><tr><td style="font-weight:bold;vertical-align:top">expires</td><td valign="top">:</td><td><div></div></td></tr><tr><td style="font-weight:bold;vertical-align:top">httponly</td><td valign="top">:</td><td><div></div></td></tr><tr><td style="font-weight:bold;vertical-align:top">max-age</td><td valign="top">:</td><td><div></div></td></tr><tr><td style="font-weight:bold;vertical-align:top">path</td><td valign="top">:</td><td><div></div></td></tr><tr><td style="font-weight:bold;vertical-align:top">secure</td><td valign="top">:</td><td><div></div></td></tr><tr><td style="font-weight:bold;vertical-align:top">version</td><td valign="top">:</td><td><div></div></td></tr></table></div></td></tr><tr><td style="font-weight:bold;vertical-align:top">session_id_welcome</td><td valign="top">:</td><td><div>127.0.0.1-6225ba1f-9189-4862-b8b8-5aed3447816d<table><tr><td style="font-weight:bold;vertical-align:top">comment</td><td valign="top">:</td><td><div></div></td></tr><tr><td style="font-weight:bold;vertical-align:top">domain</td><td valign="top">:</td><td><div></div></td></tr><tr><td style="font-weight:bold;vertical-align:top">expires</td><td valign="top">:</td><td><div></div></td></tr><tr><td style="font-weight:bold;vertical-align:top">httponly</td><td valign="top">:</td><td><div></div></td></tr><tr><td style="font-weight:bold;vertical-align:top">max-age</td><td valign="top">:</td><td><div></div></td></tr><tr><td style="font-weight:bold;vertical-align:top">path</td><td valign="top">:</td><td><div></div></td></tr><tr><td style="font-weight:bold;vertical-align:top">secure</td><td valign="top">:</td><td><div></div></td></tr><tr><td style="font-weight:bold;vertical-align:top">version</td><td valign="top">:</td><td><div></div></td></tr></table></div></td></tr></table></div></td></tr><tr><td style="font-weight:bold;vertical-align:top">env</td><td valign="top">:</td><td><div><table><tr><td style="font-weight:bold;vertical-align:top">app_folders</td><td valign="top">:</td><td><div>set([&#x27;/home/kira/web2py/applications/admin/&#x27;, &#x27;/home/kira/web2py/applications/welcome/&#x27;, &#x27;/home/kira/web2py/applications/projectlibrary/&#x27;])</div></td></tr><tr><td style="font-weight:bold;vertical-align:top">applications_parent</td><td valign="top">:</td><td><div>/home/kira/web2py</div></td></tr><tr><td style="font-weight:bold;vertical-align:top">cmd_args</td><td valign="top">:</td><td><div><table></table></div></td></tr><tr><td style="font-weight:bold;vertical-align:top">cmd_options</td><td valign="top">:</td><td><div>&lt;Values at 0x8de6e6c: {&#x27;verbose&#x27;: False, &#x27;ip&#x27;: &#x27;127.0.0.1&#x27;, &#x27;with_scheduler&#x27;: False, &#x27;ips&#x27;: [], &#x27;shutdown_timeout&#x27;: 5, &#x27;taskbar&#x27;: False, &#x27;port&#x27;: 8000, &#x27;maxthreads&#x27;: None, &#x27;softcron&#x27;: False, &#x27;server_name&#x27;: &#x27;kira-Ideapad-Z570&#x27;, &#x27;bpython&#x27;: False, &#x27;nogui&#x27;: False, &#x27;pid_filename&#x27;: &#x27;httpserver.pid&#x27;, &#x27;extcron&#x27;: False, &#x27;runcron&#x27;: False, &#x27;run_system_tests&#x27;: False, &#x27;test&#x27;: None, &#x27;folder&#x27;: &#x27;/home/kira/web2py&#x27;, &#x27;config&#x27;: &#x27;&#x27;, &#x27;import_models&#x27;: False, &#x27;winservice&#x27;: &#x27;&#x27;, &#x27;shell&#x27;: None, &#x27;run&#x27;: &#x27;&#x27;, &#x27;log_filename&#x27;: &#x27;httpserver.log&#x27;, &#x27;debuglevel&#x27;: 30, &#x27;args&#x27;: [&#x27;&#x27;], &#x27;socket_timeout&#x27;: 5, &#x27;ssl_ca_certificate&#x27;: None, &#x27;scheduler&#x27;: None, &#x27;profiler_filename&#x27;: None, &#x27;ssl_private_key&#x27;: &#x27;&#x27;, &#x27;scheduler_groups&#x27;: None, &#x27;password&#x27;: &#x27;asd&#x27;, &#x27;request_queue_size&#x27;: 5, &#x27;ssl_certificate&#x27;: &#x27;&#x27;, &#x27;cronjob&#x27;: False, &#x27;numthreads&#x27;: None, &#x27;quiet&#x27;: False, &#x27;interfaces&#x27;: None, &#x27;minthreads&#x27;: None, &#x27;timeout&#x27;: 10, &#x27;plain&#x27;: False, &#x27;nobanner&#x27;: False}&gt;</div></td></tr><tr><td style="font-weight:bold;vertical-align:top">db_sessions</td><td valign="top">:</td><td><div>set([])</div></td></tr><tr><td style="font-weight:bold;vertical-align:top">debugging</td><td valign="top">:</td><td><div>False</div></td></tr><tr><td style="font-weight:bold;vertical-align:top">gluon_parent</td><td valign="top">:</td><td><div>/home/kira/web2py</div></td></tr><tr><td style="font-weight:bold;vertical-align:top">http_accept</td><td valign="top">:</td><td><div>text/html,application/xhtml+xml,application/xml;q=0.9,*/*;q=0.8</div></td></tr><tr><td style="font-weight:bold;vertical-align:top">http_accept_encoding</td><td valign="top">:</td><td><div>gzip, deflate</div></td></tr><tr><td style="font-weight:bold;vertical-align:top">http_accept_language</td><td valign="top">:</td><td><div>en-us,en;q=0.5</div></td></tr><tr><td style="font-weight:bold;vertical-align:top">http_cache_control</td><td valign="top">:</td><td><div>max-age=0</div></td></tr><tr><td style="font-weight:bold;vertical-align:top">http_connection</td><td valign="top">:</td><td><div>keep-alive</div></td></tr><tr><td style="font-weight:bold;vertical-align:top">http_cookie</td><td valign="top">:</td><td><div>session_id_welcome=127.0.0.1-6225ba1f-9189-4862-b8b8-5aed3447816d; session_id_admin=127.0.0.1-c7b03516-8616-433a-ab7c-a00132379fa1; session_id_projectlibrary=127.0.0.1-0ce5b183-5fcb-4b08-b264-315e064db59f</div></td></tr><tr><td style="font-weight:bold;vertical-align:top">http_host</td><td valign="top">:</td><td><div>127.0.0.1:8000</div></td></tr><tr><td style="font-weight:bold;vertical-align:top">http_referer</td><td valign="top">:</td><td><div>http://127.0.0.1:8000/projectlibrary/default/clear</div></td></tr><tr><td style="font-weight:bold;vertical-align:top">http_user_agent</td><td valign="top">:</td><td><div>Mozilla/5.0 (X11; Ubuntu; Linux i686; rv:11.0) Gecko/20100101 Firefox/11.0</div></td></tr><tr><td style="font-weight:bold;vertical-align:top">is_jython</td><td valign="top">:</td><td><div>False</div></td></tr><tr><td style="font-weight:bold;vertical-align:top">is_pypy</td><td valign="top">:</td><td><div>False</div></td></tr><tr><td style="font-weight:bold;vertical-align:top">local_hosts</td><td valign="top">:</td><td><div><table><tr><td><div>kira-Ideapad-Z570</div></td></tr><tr><td><div>::1</div></td></tr><tr><td><div>127.0.1.1</div></td></tr><tr><td><div>::ffff:127.0.0.1</div></td></tr><tr><td><div>127.0.0.1</div></td></tr></table></div></td></tr><tr><td style="font-weight:bold;vertical-align:top">path_info</td><td valign="top">:</td><td><div>/projectlibrary/default/clear</div></td></tr><tr><td style="font-weight:bold;vertical-align:top">query_string</td><td valign="top">:</td><td><div></div></td></tr><tr><td style="font-weight:bold;vertical-align:top">remote_addr</td><td valign="top">:</td><td><div>127.0.0.1</div></td></tr><tr><td style="font-weight:bold;vertical-align:top">remote_port</td><td valign="top">:</td><td><div>42852</div></td></tr><tr><td style="font-weight:bold;vertical-align:top">request_method</td><td valign="top">:</td><td><div>GET</div></td></tr><tr><td style="font-weight:bold;vertical-align:top">request_uri</td><td valign="top">:</td><td><div>/projectlibrary/default/clear</div></td></tr><tr><td style="font-weight:bold;vertical-align:top">script_name</td><td valign="top">:</td><td><div></div></td></tr><tr><td style="font-weight:bold;vertical-align:top">server_name</td><td valign="top">:</td><td><div>kira-Ideapad-Z570</div></td></tr><tr><td style="font-weight:bold;vertical-align:top">server_port</td><td valign="top">:</td><td><div>8000</div></td></tr><tr><td style="font-weight:bold;vertical-align:top">server_protocol</td><td valign="top">:</td><td><div>HTTP/1.1</div></td></tr><tr><td style="font-weight:bold;vertical-align:top">server_software</td><td valign="top">:</td><td><div>Rocket 1.2.6</div></td></tr><tr><td style="font-weight:bold;vertical-align:top">web2py_path</td><td valign="top">:</td><td><div>/home/kira/web2py</div></td></tr><tr><td style="font-weight:bold;vertical-align:top">web2py_version</td><td valign="top">:</td><td><div><table><tr><td><div>2</div></td></tr><tr><td><div>4</div></td></tr><tr><td><div>2</div></td></tr><tr><td><div>stable</div></td></tr><tr><td><div>datetime.datetime(2013, 3, 4, 3, 26, 21)</div></td></tr></table></div></td></tr><tr><td style="font-weight:bold;vertical-align:top">wsgi_errors</td><td valign="top">:</td><td><div>&lt;open file &#x27;&lt;stderr&gt;&#x27;, mode &#x27;w&#x27; at 0xb72ce0d0&gt;</div></td></tr><tr><td style="font-weight:bold;vertical-align:top">wsgi_file_wrapper</td><td valign="top">:</td><td><div>&lt;class wsgiref.util.FileWrapper at 0x8d73b9c&gt;</div></td></tr><tr><td style="font-weight:bold;vertical-align:top">wsgi_input</td><td valign="top">:</td><td><div>&lt;socket._fileobject object at 0xaf219e6c&gt;</div></td></tr><tr><td style="font-weight:bold;vertical-align:top">wsgi_multiprocess</td><td valign="top">:</td><td><div>False</div></td></tr><tr><td style="font-weight:bold;vertical-align:top">wsgi_multithread</td><td valign="top">:</td><td><div>True</div></td></tr><tr><td style="font-weight:bold;vertical-align:top">wsgi_run_once</td><td valign="top">:</td><td><div>False</div></td></tr><tr><td style="font-weight:bold;vertical-align:top">wsgi_url_scheme</td><td valign="top">:</td><td><div>http</div></td></tr><tr><td style="font-weight:bold;vertical-align:top">wsgi_version</td><td valign="top">:</td><td><div><table><tr><td><div>1</div></td></tr><tr><td><div>0</div></td></tr></table></div></td></tr></table></div></td></tr><tr><td style="font-weight:bold;vertical-align:top">extension</td><td valign="top">:</td><td><div>html</div></td></tr><tr><td style="font-weight:bold;vertical-align:top">folder</td><td valign="top">:</td><td><div>/home/kira/web2py/applications/projectlibrary/</div></td></tr><tr><td style="font-weight:bold;vertical-align:top">function</td><td valign="top">:</td><td><div>clear</div></td></tr><tr><td style="font-weight:bold;vertical-align:top">get_vars</td><td valign="top">:</td><td><div><table></table></div></td></tr><tr><td style="font-weight:bold;vertical-align:top">global_settings</td><td valign="top">:</td><td><div><table><tr><td style="font-weight:bold;vertical-align:top">app_folders</td><td valign="top">:</td><td><div>set([&#x27;/home/kira/web2py/applications/admin/&#x27;, &#x27;/home/kira/web2py/applications/welcome/&#x27;, &#x27;/home/kira/web2py/applications/projectlibrary/&#x27;])</div></td></tr><tr><td style="font-weight:bold;vertical-align:top">applications_parent</td><td valign="top">:</td><td><div>/home/kira/web2py</div></td></tr><tr><td style="font-weight:bold;vertical-align:top">cmd_args</td><td valign="top">:</td><td><div><table></table></div></td></tr><tr><td style="font-weight:bold;vertical-align:top">cmd_options</td><td valign="top">:</td><td><div>&lt;Values at 0x8de6e6c: {&#x27;verbose&#x27;: False, &#x27;ip&#x27;: &#x27;127.0.0.1&#x27;, &#x27;with_scheduler&#x27;: False, &#x27;ips&#x27;: [], &#x27;shutdown_timeout&#x27;: 5, &#x27;taskbar&#x27;: False, &#x27;port&#x27;: 8000, &#x27;maxthreads&#x27;: None, &#x27;softcron&#x27;: False, &#x27;server_name&#x27;: &#x27;kira-Ideapad-Z570&#x27;, &#x27;bpython&#x27;: False, &#x27;nogui&#x27;: False, &#x27;pid_filename&#x27;: &#x27;httpserver.pid&#x27;, &#x27;extcron&#x27;: False, &#x27;runcron&#x27;: False, &#x27;run_system_tests&#x27;: False, &#x27;test&#x27;: None, &#x27;folder&#x27;: &#x27;/home/kira/web2py&#x27;, &#x27;config&#x27;: &#x27;&#x27;, &#x27;import_models&#x27;: False, &#x27;winservice&#x27;: &#x27;&#x27;, &#x27;shell&#x27;: None, &#x27;run&#x27;: &#x27;&#x27;, &#x27;log_filename&#x27;: &#x27;httpserver.log&#x27;, &#x27;debuglevel&#x27;: 30, &#x27;args&#x27;: [&#x27;&#x27;], &#x27;socket_timeout&#x27;: 5, &#x27;ssl_ca_certificate&#x27;: None, &#x27;scheduler&#x27;: None, &#x27;profiler_filename&#x27;: None, &#x27;ssl_private_key&#x27;: &#x27;&#x27;, &#x27;scheduler_groups&#x27;: None, &#x27;password&#x27;: &#x27;asd&#x27;, &#x27;request_queue_size&#x27;: 5, &#x27;ssl_certificate&#x27;: &#x27;&#x27;, &#x27;cronjob&#x27;: False, &#x27;numthreads&#x27;: None, &#x27;quiet&#x27;: False, &#x27;interfaces&#x27;: None, &#x27;minthreads&#x27;: None, &#x27;timeout&#x27;: 10, &#x27;plain&#x27;: False, &#x27;nobanner&#x27;: False}&gt;</div></td></tr><tr><td style="font-weight:bold;vertical-align:top">db_sessions</td><td valign="top">:</td><td><div>set([])</div></td></tr><tr><td style="font-weight:bold;vertical-align:top">debugging</td><td valign="top">:</td><td><div>False</div></td></tr><tr><td style="font-weight:bold;vertical-align:top">gluon_parent</td><td valign="top">:</td><td><div>/home/kira/web2py</div></td></tr><tr><td style="font-weight:bold;vertical-align:top">is_jython</td><td valign="top">:</td><td><div>False</div></td></tr><tr><td style="font-weight:bold;vertical-align:top">is_pypy</td><td valign="top">:</td><td><div>False</div></td></tr><tr><td style="font-weight:bold;vertical-align:top">local_hosts</td><td valign="top">:</td><td><div><table><tr><td><div>kira-Ideapad-Z570</div></td></tr><tr><td><div>::1</div></td></tr><tr><td><div>127.0.1.1</div></td></tr><tr><td><div>::ffff:127.0.0.1</div></td></tr><tr><td><div>127.0.0.1</div></td></tr></table></div></td></tr><tr><td style="font-weight:bold;vertical-align:top">web2py_version</td><td valign="top">:</td><td><div><table><tr><td><div>2</div></td></tr><tr><td><div>4</div></td></tr><tr><td><div>2</div></td></tr><tr><td><div>stable</div></td></tr><tr><td><div>datetime.datetime(2013, 3, 4, 3, 26, 21)</div></td></tr></table></div></td></tr></table></div></td></tr><tr><td style="font-weight:bold;vertical-align:top">is_https</td><td valign="top">:</td><td><div>False</div></td></tr><tr><td style="font-weight:bold;vertical-align:top">is_local</td><td valign="top">:</td><td><div>True</div></td></tr><tr><td style="font-weight:bold;vertical-align:top">is_restful</td><td valign="top">:</td><td><div>False</div></td></tr><tr><td style="font-weight:bold;vertical-align:top">now</td><td valign="top">:</td><td><div>datetime.datetime(2013, 4, 17, 18, 37, 50, 972393)</div></td></tr><tr><td style="font-weight:bold;vertical-align:top">post_vars</td><td valign="top">:</td><td><div><table></table></div></td></tr><tr><td style="font-weight:bold;vertical-align:top">raw_args</td><td valign="top">:</td><td><div></div></td></tr><tr><td style="font-weight:bold;vertical-align:top">raw_extension</td><td valign="top">:</td><td><div>None</div></td></tr><tr><td style="font-weight:bold;vertical-align:top">url</td><td valign="top">:</td><td><div>/projectlibrary/default/clear</div></td></tr><tr><td style="font-weight:bold;vertical-align:top">utcnow</td><td valign="top">:</td><td><div>datetime.datetime(2013, 4, 17, 13, 7, 50, 972449)</div></td></tr><tr><td style="font-weight:bold;vertical-align:top">uuid</td><td valign="top">:</td><td><div>projectlibrary/127.0.0.1.2013-04-17.18-37-50.ca9ccb19-43e2-4b0e-a2a1-3b460178c483</div></td></tr><tr><td style="font-weight:bold;vertical-align:top">vars</td><td valign="top">:</td><td><div><table></table></div></td></tr><tr><td style="font-weight:bold;vertical-align:top">wsgi</td><td valign="top">:</td><td><div><table><tr><td style="font-weight:bold;vertical-align:top">environ</td><td valign="top">:</td><td><div><table><tr><td style="font-weight:bold;vertical-align:top">HTTP_ACCEPT</td><td valign="top">:</td><td><div>text/html,application/xhtml+xml,application/xml;q=0.9,*/*;q=0.8</div></td></tr><tr><td style="font-weight:bold;vertical-align:top">HTTP_ACCEPT_ENCODING</td><td valign="top">:</td><td><div>gzip, deflate</div></td></tr><tr><td style="font-weight:bold;vertical-align:top">HTTP_ACCEPT_LANGUAGE</td><td valign="top">:</td><td><div>en-us,en;q=0.5</div></td></tr><tr><td style="font-weight:bold;vertical-align:top">HTTP_CACHE_CONTROL</td><td valign="top">:</td><td><div>max-age=0</div></td></tr><tr><td style="font-weight:bold;vertical-align:top">HTTP_CONNECTION</td><td valign="top">:</td><td><div>keep-alive</div></td></tr><tr><td style="font-weight:bold;vertical-align:top">HTTP_COOKIE</td><td valign="top">:</td><td><div>session_id_welcome=127.0.0.1-6225ba1f-9189-4862-b8b8-5aed3447816d; session_id_admin=127.0.0.1-c7b03516-8616-433a-ab7c-a00132379fa1; session_id_projectlibrary=127.0.0.1-0ce5b183-5fcb-4b08-b264-315e064db59f</div></td></tr><tr><td style="font-weight:bold;vertical-align:top">HTTP_HOST</td><td valign="top">:</td><td><div>127.0.0.1:8000</div></td></tr><tr><td style="font-weight:bold;vertical-align:top">HTTP_REFERER</td><td valign="top">:</td><td><div>http://127.0.0.1:8000/projectlibrary/default/clear</div></td></tr><tr><td style="font-weight:bold;vertical-align:top">HTTP_USER_AGENT</td><td valign="top">:</td><td><div>Mozilla/5.0 (X11; Ubuntu; Linux i686; rv:11.0) Gecko/20100101 Firefox/11.0</div></td></tr><tr><td style="font-weight:bold;vertical-align:top">PATH_INFO</td><td valign="top">:</td><td><div>/projectlibrary/default/clear</div></td></tr><tr><td style="font-weight:bold;vertical-align:top">QUERY_STRING</td><td valign="top">:</td><td><div></div></td></tr><tr><td style="font-weight:bold;vertical-align:top">REMOTE_ADDR</td><td valign="top">:</td><td><div>127.0.0.1</div></td></tr><tr><td style="font-weight:bold;vertical-align:top">REMOTE_PORT</td><td valign="top">:</td><td><div>42852</div></td></tr><tr><td style="font-weight:bold;vertical-align:top">REQUEST_METHOD</td><td valign="top">:</td><td><div>GET</div></td></tr><tr><td style="font-weight:bold;vertical-align:top">REQUEST_URI</td><td valign="top">:</td><td><div>/projectlibrary/default/clear</div></td></tr><tr><td style="font-weight:bold;vertical-align:top">SCRIPT_NAME</td><td valign="top">:</td><td><div></div></td></tr><tr><td style="font-weight:bold;vertical-align:top">SERVER_NAME</td><td valign="top">:</td><td><div>kira-Ideapad-Z570</div></td></tr><tr><td style="font-weight:bold;vertical-align:top">SERVER_PORT</td><td valign="top">:</td><td><div>8000</div></td></tr><tr><td style="font-weight:bold;vertical-align:top">SERVER_PROTOCOL</td><td valign="top">:</td><td><div>HTTP/1.1</div></td></tr><tr><td style="font-weight:bold;vertical-align:top">SERVER_SOFTWARE</td><td valign="top">:</td><td><div>Rocket 1.2.6</div></td></tr><tr><td style="font-weight:bold;vertical-align:top">wsgi.errors</td><td valign="top">:</td><td><div>&lt;open file &#x27;&lt;stderr&gt;&#x27;, mode &#x27;w&#x27; at 0xb72ce0d0&gt;</div></td></tr><tr><td style="font-weight:bold;vertical-align:top">wsgi.file_wrapper</td><td valign="top">:</td><td><div>&lt;class wsgiref.util.FileWrapper at 0x8d73b9c&gt;</div></td></tr><tr><td style="font-weight:bold;vertical-align:top">wsgi.input</td><td valign="top">:</td><td><div>&lt;cStringIO.StringO object at 0x90775c0&gt;</div></td></tr><tr><td style="font-weight:bold;vertical-align:top">wsgi.multiprocess</td><td valign="top">:</td><td><div>False</div></td></tr><tr><td style="font-weight:bold;vertical-align:top">wsgi.multithread</td><td valign="top">:</td><td><div>True</div></td></tr><tr><td style="font-weight:bold;vertical-align:top">wsgi.run_once</td><td valign="top">:</td><td><div>False</div></td></tr><tr><td style="font-weight:bold;vertical-align:top">wsgi.url_scheme</td><td valign="top">:</td><td><div>http</div></td></tr><tr><td style="font-weight:bold;vertical-align:top">wsgi.version</td><td valign="top">:</td><td><div>1</div></td></tr></table></div></td></tr></table></div></td></tr></table></div>'
tRp58
sS'frames'
p59
(lp60
(dp61
S'file'
p62
S'/home/kira/web2py/gluon/restricted.py'
p63
sS'dump'
p64
(dp65
S'environment'
p66
S"{'A': <class 'gluon.html.A'>, 'Auth': <class 'gluon.tools.Auth'>, 'B': <class 'gluon.html.B'>, 'BEAUTIFY': <class 'gluon.html.BEAUTIFY'>, 'BODY': <class 'gluon.html.BODY'>, 'BR': <class 'gluon.html.BR'>, 'BUTTON': <class 'gluon.html.BUTTON'>, 'CAT': <class 'gluon.html.CAT'>, 'CENTER': <class 'gluon.html.CENTER'>, 'CLEANUP': <class 'gluon.validators.CLEANUP'>, ...}"
p67
sS'ccode'
p68
S'<code object <module> at 0x9066890, file "/home/.../projectlibrary/controllers/default.py", line 13>'
p69
ssS'lnum'
p70
I212
sS'lines'
p71
(dp72
I207
S'    try:'
p73
sI208
S'        if isinstance(code, types.CodeType):'
p74
sI209
S'            ccode = code'
p75
sI210
S'        else:'
p76
sI211
S'            ccode = compile2(code, layer)'
p77
sI212
S'        exec ccode in environment'
p78
sI213
S'    except HTTP:'
p79
sI214
S'        raise'
p80
sI215
S'    except RestrictedError:'
p81
sI216
S'        # do not encapsulate (obfuscate) the original RestrictedError'
p82
ssS'call'
p83
S'(code=\'# -*- coding: utf-8 -*-\\n# this file is released ...orm)\\n"""\\n\\nresponse._vars=response._caller(clear)\\n\', environment={\'A\': <class \'gluon.html.A\'>, \'Auth\': <class \'gluon.tools.Auth\'>, \'B\': <class \'gluon.html.B\'>, \'BEAUTIFY\': <class \'gluon.html.BEAUTIFY\'>, \'BODY\': <class \'gluon.html.BODY\'>, \'BR\': <class \'gluon.html.BR\'>, \'BUTTON\': <class \'gluon.html.BUTTON\'>, \'CAT\': <class \'gluon.html.CAT\'>, \'CENTER\': <class \'gluon.html.CENTER\'>, \'CLEANUP\': <class \'gluon.validators.CLEANUP\'>, ...}, layer=\'/home/kira/web2py/applications/projectlibrary/controllers/default.py\')'
p84
sS'func'
p85
S'restricted'
p86
sa(dp87
g62
S'/home/kira/web2py/applications/projectlibrary/controllers/default.py'
p88
sg64
(dp89
sg70
I539
sg71
(dp90
I528
S'\t\trow=db(db.register.Username==request.vars.user).select()'
p91
sI529
S"\t\tif request.vars.password==row[0]['Password']:"
p92
sI530
S"\t\t\tredirect(URL('upload'))"
p93
sI531
S'\t\telse:'
p94
sI532
S"\t\t\tresponse.flash='Invalid username or password'"
p95
sI533
S'\telse:'
p96
sI534
S"\t \tresponse.flash='Error'"
p97
sI535
S''
sI536
S'\treturn dict(form=form)'
p98
sI537
S'"""'
p99
ssg83
S'()'
p100
sg85
S'<module>'
p101
sasS'pyver'
p102
S'Python 2.7.3: /usr/bin/python (prefix: /usr)'
p103
sS'session'
p104
g57
(S's\x1e\x01\x00\x00<div><table><tr><td style="font-weight:bold;vertical-align:top">last_orderby</td><td valign="top">:</td><td><div>None</div></td></tr><tr><td style="font-weight:bold;vertical-align:top">last_query</td><td valign="top">:</td><td><div>db.allowed_users.id&gt;0</div></td></tr></table></div>'
tRp105
sS'etype'
p106
S"<type 'exceptions.NameError'>"
p107
sS'date'
p108
S'Wed Apr 17 18:37:51 2013'
p109
sS'response'
p110
g57
(S'sp!\x00\x00<div><table><tr><td style="font-weight:bold;vertical-align:top">body</td><td valign="top">:</td><td><div>&lt;cStringIO.StringO object at 0x905e500&gt;</div></td></tr><tr><td style="font-weight:bold;vertical-align:top">cookies</td><td valign="top">:</td><td><div><table><tr><td style="font-weight:bold;vertical-align:top">session_id_projectlibrary</td><td valign="top">:</td><td><div>127.0.0.1-0ce5b183-5fcb-4b08-b264-315e064db59f<table><tr><td style="font-weight:bold;vertical-align:top">comment</td><td valign="top">:</td><td><div></div></td></tr><tr><td style="font-weight:bold;vertical-align:top">domain</td><td valign="top">:</td><td><div></div></td></tr><tr><td style="font-weight:bold;vertical-align:top">expires</td><td valign="top">:</td><td><div></div></td></tr><tr><td style="font-weight:bold;vertical-align:top">httponly</td><td valign="top">:</td><td><div></div></td></tr><tr><td style="font-weight:bold;vertical-align:top">max-age</td><td valign="top">:</td><td><div></div></td></tr><tr><td style="font-weight:bold;vertical-align:top">path</td><td valign="top">:</td><td><div>/</div></td></tr><tr><td style="font-weight:bold;vertical-align:top">secure</td><td valign="top">:</td><td><div></div></td></tr><tr><td style="font-weight:bold;vertical-align:top">version</td><td valign="top">:</td><td><div></div></td></tr></table></div></td></tr></table></div></td></tr><tr><td style="font-weight:bold;vertical-align:top">delimiters</td><td valign="top">:</td><td><div><table><tr><td><div>{{</div></td></tr><tr><td><div>}}</div></td></tr></table></div></td></tr><tr><td style="font-weight:bold;vertical-align:top">files</td><td valign="top">:</td><td><div><table></table></div></td></tr><tr><td style="font-weight:bold;vertical-align:top">flash</td><td valign="top">:</td><td><div></div></td></tr><tr><td style="font-weight:bold;vertical-align:top">generic_patterns</td><td valign="top">:</td><td><div><table><tr><td><div>*</div></td></tr></table></div></td></tr><tr><td style="font-weight:bold;vertical-align:top">google_analytics_id</td><td valign="top">:</td><td><div>None</div></td></tr><tr><td style="font-weight:bold;vertical-align:top">headers</td><td valign="top">:</td><td><div><table><tr><td style="font-weight:bold;vertical-align:top">X-Powered-By</td><td valign="top">:</td><td><div>web2py</div></td></tr></table></div></td></tr><tr><td style="font-weight:bold;vertical-align:top">logo</td><td valign="top">:</td><td><div><a class="brand" href="http://www.web2py.com/"><b>web<span>2</span>py</b>&trade;&nbsp;</a></div></td></tr><tr><td style="font-weight:bold;vertical-align:top">menu</td><td valign="top">:</td><td><div><table><tr><td><div><table><tr><td><div>Home</div></td></tr><tr><td><div>False</div></td></tr><tr><td><div>/projectlibrary/default/index</div></td></tr><tr><td><div><table></table></div></td></tr></table></div></td></tr><tr><td><div><table><tr><td><div>Upload</div></td></tr><tr><td><div>False</div></td></tr><tr><td><div>/projectlibrary/default/uploadpage</div></td></tr><tr><td><div><table></table></div></td></tr></table></div></td></tr><tr><td><div><table><tr><td><div>Register</div></td></tr><tr><td><div>False</div></td></tr><tr><td><div>/projectlibrary/default/register</div></td></tr><tr><td><div><table></table></div></td></tr></table></div></td></tr><tr><td><div><table><tr><td><div>Browse</div></td></tr><tr><td><div>False</div></td></tr><tr><td><div>/projectlibrary/default/browse</div></td></tr><tr><td><div><table><tr><td><div><table><tr><td><div>A-Z</div></td></tr><tr><td><div>False</div></td></tr><tr><td><div>/projectlibrary/default/az</div></td></tr></table></div></td></tr><tr><td><div><table><tr><td><div>Z-A</div></td></tr><tr><td><div>False</div></td></tr><tr><td><div>/projectlibrary/default/za</div></td></tr></table></div></td></tr><tr><td><div><table><tr><td><div>By Comments</div></td></tr><tr><td><div>False</div></td></tr><tr><td><div>/projectlibrary/default/bycomments</div></td></tr><tr><td><div>[(&lt;lazyT &#x27;Most commented&#x27;&gt;, False, &#x27;/projectlibrary/default/most_commented&#x27;)]</div></td></tr></table></div></td></tr><tr><td><div><table><tr><td><div>By Rating</div></td></tr><tr><td><div>False</div></td></tr><tr><td><div>/projectlibrary/default/byrating</div></td></tr></table></div></td></tr><tr><td><div><table><tr><td><div>By Category</div></td></tr><tr><td><div>False</div></td></tr><tr><td><div>/projectlibrary/default/category</div></td></tr></table></div></td></tr><tr><td><div><table><tr><td><div>By Downloads</div></td></tr><tr><td><div>False</div></td></tr><tr><td><div>/projectlibrary/default/bydownloads</div></td></tr><tr><td><div>[(&lt;lazyT &#x27;Most Downloaded&#x27;&gt;, False, &#x27;/projectlibrary/default/mostdownload&#x27;)]</div></td></tr></table></div></td></tr><tr><td><div><table><tr><td><div>By Uploads</div></td></tr><tr><td><div>False</div></td></tr><tr><td><div>/projectlibrary/default/byuploads</div></td></tr><tr><td><div>[(&lt;lazyT &#x27;Most Uploads&#x27;&gt;, False, &#x27;/projectlibrary/default/most_uploaded&#x27;)]</div></td></tr></table></div></td></tr><tr><td><div><table><tr><td><div>Most Recent</div></td></tr><tr><td><div>False</div></td></tr><tr><td><div>/projectlibrary/default/most_recent</div></td></tr></table></div></td></tr></table></div></td></tr></table></div></td></tr><tr><td><div><table><tr><td><div>Users</div></td></tr><tr><td><div>False</div></td></tr><tr><td><div>/projectlibrary/default/byuploads</div></td></tr></table></div></td></tr></table></div></td></tr><tr><td style="font-weight:bold;vertical-align:top">meta</td><td valign="top">:</td><td><div><table><tr><td style="font-weight:bold;vertical-align:top">author</td><td valign="top">:</td><td><div>Your Name &lt;you@example.com&gt;</div></td></tr><tr><td style="font-weight:bold;vertical-align:top">description</td><td valign="top">:</td><td><div>a cool new app</div></td></tr><tr><td style="font-weight:bold;vertical-align:top">generator</td><td valign="top">:</td><td><div>Web2py Web Framework</div></td></tr><tr><td style="font-weight:bold;vertical-align:top">keywords</td><td valign="top">:</td><td><div>web2py, python, framework</div></td></tr></table></div></td></tr><tr><td style="font-weight:bold;vertical-align:top">models_to_run</td><td valign="top">:</td><td><div><table><tr><td><div>^\\w+\\.py$</div></td></tr><tr><td><div>^default/\\w+\\.py$</div></td></tr><tr><td><div>^default/clear/\\w+\\.py$</div></td></tr></table></div></td></tr><tr><td style="font-weight:bold;vertical-align:top">postprocessing</td><td valign="top">:</td><td><div><table></table></div></td></tr><tr><td style="font-weight:bold;vertical-align:top">session_cookie_expires</td><td valign="top">:</td><td><div>None</div></td></tr><tr><td style="font-weight:bold;vertical-align:top">session_data_name</td><td valign="top">:</td><td><div>session_data_projectlibrary</div></td></tr><tr><td style="font-weight:bold;vertical-align:top">session_file</td><td valign="top">:</td><td><div>&lt;open file &#x27;/home/kira/web2py/applications/projectlibrary/sessions/127.0.0.1-0ce5b183-5fcb-4b08-b264-315e064db59f&#x27;, mode &#x27;rb+&#x27; at 0xaf1b3a18&gt;</div></td></tr><tr><td style="font-weight:bold;vertical-align:top">session_filename</td><td valign="top">:</td><td><div>/home/kira/web2py/applications/projectlibrary/sessions/127.0.0.1-0ce5b183-5fcb-4b08-b264-315e064db59f</div></td></tr><tr><td style="font-weight:bold;vertical-align:top">session_id</td><td valign="top">:</td><td><div>127.0.0.1-0ce5b183-5fcb-4b08-b264-315e064db59f</div></td></tr><tr><td style="font-weight:bold;vertical-align:top">session_id_name</td><td valign="top">:</td><td><div>session_id_projectlibrary</div></td></tr><tr><td style="font-weight:bold;vertical-align:top">session_locked</td><td valign="top">:</td><td><div>True</div></td></tr><tr><td style="font-weight:bold;vertical-align:top">session_new</td><td valign="top">:</td><td><div>False</div></td></tr><tr><td style="font-weight:bold;vertical-align:top">session_storage_type</td><td valign="top">:</td><td><div>file</div></td></tr><tr><td style="font-weight:bold;vertical-align:top">status</td><td valign="top">:</td><td><div>200</div></td></tr><tr><td style="font-weight:bold;vertical-align:top">subtitle</td><td valign="top">:</td><td><div>customize me!</div></td></tr><tr><td style="font-weight:bold;vertical-align:top">title</td><td valign="top">:</td><td><div>Projectlibrary</div></td></tr><tr><td style="font-weight:bold;vertical-align:top">view</td><td valign="top">:</td><td><div>default/clear.html</div></td></tr></table></div>'
tRp111
sS'locals'
p112
(dp113
S'Service'
p114
S"<class 'gluon.tools.Service'>"
p115
sS'OBJECT'
p116
S"<class 'gluon.html.OBJECT'>"
p117
sS'datetime'
p118
S"<module 'datetime' from '/usr/lib/python2.7/lib-dynload/datetime.so'>"
p119
sS'delproject'
p120
S'<function delproject>'
p121
sg104
S"<Storage {'last_orderby': None, 'last_query': 'd...ssion_hash': '6403eae9a7e2b4b0f32bf99d1a02bbc4'}>"
p122
sS'LINK'
p123
S"<class 'gluon.html.LINK'>"
p124
sS'mostdownload'
p125
S'<function mostdownload>'
p126
sS'BR'
p127
S"<class 'gluon.html.BR'>"
p128
sS'local_import'
p129
S'<function <lambda>>'
p130
sS'OPTGROUP'
p131
S"<class 'gluon.html.OPTGROUP'>"
p132
sS'LI'
p133
S"<class 'gluon.html.LI'>"
p134
sS'most_commented'
p135
S'<function most_commented>'
p136
sS'byuploads'
p137
S'<function byuploads>'
p138
sS'byrating'
p139
S'<function byrating>'
p140
sS'IS_INT_IN_RANGE'
p141
S"<class 'gluon.validators.IS_INT_IN_RANGE'>"
p142
sS'IS_LOWER'
p143
S"<class 'gluon.validators.IS_LOWER'>"
p144
sS'IS_STRONG'
p145
S"<class 'gluon.validators.IS_STRONG'>"
p146
sS'editproject'
p147
S'<function editproject>'
p148
sS'cache'
p149
S'<gluon.cache.Cache object>'
p150
sS'viewfiles'
p151
S'<function viewfiles>'
p152
sS'IS_IN_DB'
p153
S"<class 'gluon.validators.IS_IN_DB'>"
p154
sS'TAG'
p155
S'<gluon.html.__TAG__ object>'
p156
sS'SQLField'
p157
S"<class 'gluon.dal.Field'>"
p158
sS'mail'
p159
S'<gluon.tools.Mail object>'
p160
sS'viewsub'
p161
S'<function viewsub>'
p162
sS'userprojects'
p163
S'<function userprojects>'
p164
sS'BODY'
p165
S"<class 'gluon.html.BODY'>"
p166
sS'IS_DATE_IN_RANGE'
p167
S"<class 'gluon.validators.IS_DATE_IN_RANGE'>"
p168
sS'TH'
p169
S"<class 'gluon.html.TH'>"
p170
sS'URL'
p171
S'<function URL>'
p172
sS'__file__'
p173
S"'/home/kira/web2py/applications/projectlibrary/controllers/default.py'"
p174
sS'db'
p175
S'<DAL uri="sqlite://storage.sqlite">'
p176
sS'auth'
p177
S'<gluon.tools.Auth object>'
p178
sS'P'
S"<class 'gluon.html.P'>"
p179
sS'T'
S'<gluon.languages.translator object>'
p180
sS'SPAN'
p181
S"<class 'gluon.html.SPAN'>"
p182
sS'XHTML'
p183
S"<class 'gluon.html.XHTML'>"
p184
sS'SQLDB'
p185
S"<class 'gluon.dal.DAL'>"
p186
sS'ON'
p187
S'True'
p188
sS'OL'
p189
S"<class 'gluon.html.OL'>"
p190
sS'addtokol'
p191
S'<function addtokol>'
p192
sS'TEXTAREA'
p193
S"<class 'gluon.html.TEXTAREA'>"
p194
sS'MENU'
p195
S"<class 'gluon.html.MENU'>"
p196
sS'noti'
p197
S'<function noti>'
p198
sS'listofprojects'
p199
S'<function listofprojects>'
p200
sS'delfile3'
p201
S'<function delfile3>'
p202
sS'delfile2'
p203
S'<function delfile2>'
p204
sS'delfile1'
p205
S'<function delfile1>'
p206
sS'collo_error'
p207
S'<function collo_error>'
p208
sS'CODE'
p209
S"<class 'gluon.html.CODE'>"
p210
sS'HTTP'
p211
S"<class 'gluon.http.HTTP'>"
p212
sS'HR'
p213
S"<class 'gluon.html.HR'>"
p214
sS'IS_DATETIME'
p215
S"<class 'gluon.validators.IS_DATETIME'>"
p216
sS'most_rated'
p217
S'<function most_rated>'
p218
sS'za'
p219
S'<function za>'
p220
sS'LABEL'
p221
S"<class 'gluon.html.LABEL'>"
p222
sS'CLEANUP'
p223
S"<class 'gluon.validators.CLEANUP'>"
p224
sS'A'
S"<class 'gluon.html.A'>"
p225
sS'addfiles'
p226
S'<function addfiles>'
p227
sS'plugins'
p228
S'<gluon.tools.PluginManager object>'
p229
sS'download'
p230
S'<function download>'
p231
sS'SELECT'
p232
S"<class 'gluon.html.SELECT'>"
p233
sS'category'
p234
S'<function category>'
p235
sS'index'
p236
S'<function index>'
p237
sS'use_janrain'
p238
S'<function use_janrain>'
p239
sS'sub'
p240
S'<function sub>'
p241
sS'prettydate'
p242
S'<function prettydate>'
p243
sS'redirect'
p244
S'<function redirect>'
p245
sS'custom_auth_table'
p246
S'<Table auth_user (id,first_name,last_name,email,...ssword_key,registration_id,upload_count,country)>'
p247
sS'project_page'
p248
S'<function project_page>'
p249
sS'Crud'
p250
S"<class 'gluon.tools.Crud'>"
p251
sS'Auth'
p252
S"<class 'gluon.tools.Auth'>"
p253
sS'DEVELOPMENT_MENU'
p254
g188
sS'IS_EQUAL_TO'
p255
S"<class 'gluon.validators.IS_EQUAL_TO'>"
p256
sS'HTML'
p257
S"<class 'gluon.html.HTML'>"
p258
sS'SQLFORM'
p259
S"<class 'gluon.sqlhtml.SQLFORM'>"
p260
sS'addcollo'
p261
S'<function addcollo>'
p262
sS'uploadpage'
p263
S'<function uploadpage>'
p264
sS'LOAD'
p265
S'<function LOAD>'
p266
sS'delsub'
p267
S'<function delsub>'
p268
sS'FIELDSET'
p269
S"<class 'gluon.html.FIELDSET'>"
p270
sS'__builtins__'
p271
S"{'ArithmeticError': <type 'exceptions.ArithmeticError'>, 'AssertionError': <type 'exceptions.AssertionError'>, 'AttributeError': <type 'exceptions.AttributeError'>, 'BaseException': <type 'exceptions.BaseException'>, 'BufferError': <type 'exceptions.BufferError'>, 'BytesWarning': <type 'exceptions.BytesWarning'>, 'DeprecationWarning': <type 'exceptions.DeprecationWarning'>, 'EOFError': <type 'exceptions.EOFError'>, 'Ellipsis': Ellipsis, 'EnvironmentError': <type 'exceptions.EnvironmentError'>, ...}"
p272
sS'oldproject'
p273
S'<function oldproject>'
p274
sS'HEAD'
p275
S"<class 'gluon.html.HEAD'>"
p276
sS'embed64'
p277
S'<function embed64>'
p278
sS'IS_LIST_OF'
p279
S"<class 'gluon.validators.IS_LIST_OF'>"
p280
sS'INPUT'
p281
S"<class 'gluon.html.INPUT'>"
p282
sS'EMBED'
p283
S"<class 'gluon.html.EMBED'>"
p284
sS'commentandrate'
p285
S'<function commentandrate>'
p286
sS'bycomments'
p287
S'<function bycomments>'
p288
sS'IS_IMAGE'
p289
S"<class 'gluon.validators.IS_IMAGE'>"
p290
sS'H2'
p291
S"<class 'gluon.html.H2'>"
p292
sS'H3'
p293
S"<class 'gluon.html.H3'>"
p294
sS'BUTTON'
p295
S"<class 'gluon.html.BUTTON'>"
p296
sS'H1'
p297
S"<class 'gluon.html.H1'>"
p298
sS'H6'
p299
S"<class 'gluon.html.H6'>"
p300
sS'H4'
p301
S"<class 'gluon.html.H4'>"
p302
sS'H5'
p303
S"<class 'gluon.html.H5'>"
p304
sS'UL'
p305
S"<class 'gluon.html.UL'>"
p306
sS'IS_UPPER'
p307
S"<class 'gluon.validators.IS_UPPER'>"
p308
sS'xmlescape'
p309
S'<function xmlescape>'
p310
sS'IS_TIME'
p311
S"<class 'gluon.validators.IS_TIME'>"
p312
sS'OPTION'
p313
S"<class 'gluon.html.OPTION'>"
p314
sS'TITLE'
p315
S"<class 'gluon.html.TITLE'>"
p316
sS'CRYPT'
p317
S"<class 'gluon.validators.CRYPT'>"
p318
sS'IS_EMPTY_OR'
p319
S"<class 'gluon.validators.IS_EMPTY_OR'>"
p320
sS'MARKMIN'
p321
S"<class 'gluon.html.MARKMIN'>"
p322
sS'__name__'
p323
S"'__restricted__'"
p324
sS'STRONG'
p325
S"<class 'gluon.html.STRONG'>"
p326
sS'EM'
p327
S"<class 'gluon.html.EM'>"
p328
sS'COL'
p329
S"<class 'gluon.html.COL'>"
p330
sS'download_func1'
p331
S'<function download_func1>'
p332
sS'download_func3'
p333
S'<function download_func3>'
p334
sS'download_func2'
p335
S'<function download_func2>'
p336
sS'delkol'
p337
S'<function delkol>'
p338
sS'service'
p339
S'<gluon.tools.Service object>'
p340
sS'SCRIPT'
p341
S"<class 'gluon.html.SCRIPT'>"
p342
sS'browse'
p343
S'<function browse>'
p344
sS'viewkol'
p345
S'<function viewkol>'
p346
sS'confirm_delcollo'
p347
S'<function confirm_delcollo>'
p348
sg83
S'<function call>'
p349
sS'TABLE'
p350
S"<class 'gluon.html.TABLE'>"
p351
sS'IS_IPV4'
p352
S"<class 'gluon.validators.IS_IPV4'>"
p353
sS'IS_LENGTH'
p354
S"<class 'gluon.validators.IS_LENGTH'>"
p355
sS'XML'
p356
S"<class 'gluon.html.XML'>"
p357
sS'B'
S"<class 'gluon.html.B'>"
p358
sS'IMG'
p359
S"<class 'gluon.html.IMG'>"
p360
sS'SQLTABLE'
p361
S"<class 'gluon.sqlhtml.SQLTABLE'>"
p362
sS'IS_MATCH'
p363
S"<class 'gluon.validators.IS_MATCH'>"
p364
sS'IS_ALPHANUMERIC'
p365
S"<class 'gluon.validators.IS_ALPHANUMERIC'>"
p366
sS'delcollo'
p367
S'<function delcollo>'
p368
sS'clearnoti'
p369
S'<function clearnoti>'
p370
sS'editprojects'
p371
S'<function editprojects>'
p372
sS'CENTER'
p373
S"<class 'gluon.html.CENTER'>"
p374
sS'IS_JSON'
p375
S"<class 'gluon.validators.IS_JSON'>"
p376
sS'IS_SLUG'
p377
S"<class 'gluon.validators.IS_SLUG'>"
p378
sS'BEAUTIFY'
p379
S"<class 'gluon.html.BEAUTIFY'>"
p380
sS'META'
p381
S"<class 'gluon.html.META'>"
p382
sS'editprofile'
p383
S'<function editprofile>'
p384
sS'IS_DATE'
p385
S"<class 'gluon.validators.IS_DATE'>"
p386
sS'IS_EMAIL'
p387
S"<class 'gluon.validators.IS_EMAIL'>"
p388
sS'IS_NOT_EMPTY'
p389
S"<class 'gluon.validators.IS_NOT_EMPTY'>"
p390
sS'IS_FLOAT_IN_RANGE'
p391
S"<class 'gluon.validators.IS_FLOAT_IN_RANGE'>"
p392
sS'TBODY'
p393
S"<class 'gluon.html.TBODY'>"
p394
sS'CAT'
p395
S"<class 'gluon.html.CAT'>"
p396
sS'Field'
p397
S"<class 'gluon.dal.Field'>"
p398
sS'DIV'
p399
S"<class 'gluon.html.DIV'>"
p400
sS'az'
p401
S'<function az>'
p402
sS'LEGEND'
p403
S"<class 'gluon.html.LEGEND'>"
p404
sS'most_uploaded'
p405
S'<function most_uploaded>'
p406
sS'COLGROUP'
p407
S"<class 'gluon.html.COLGROUP'>"
p408
sS'DAL'
p409
S"<class 'gluon.dal.DAL'>"
p410
sS'bydownloads'
p411
S'<function bydownloads>'
p412
sS'TT'
p413
S"<class 'gluon.html.TT'>"
p414
sS'TR'
p415
S"<class 'gluon.html.TR'>"
p416
sS'allprofile'
p417
S'<function allprofile>'
p418
sS'__package__'
p419
S'None'
p420
sS'most_recent'
p421
S'<function most_recent>'
p422
sS'IFRAME'
p423
S"<class 'gluon.html.IFRAME'>"
p424
sS'TD'
p425
S"<class 'gluon.html.TD'>"
p426
sS'PluginManager'
p427
S"<class 'gluon.tools.PluginManager'>"
p428
sS'IS_URL'
p429
S"<class 'gluon.validators.IS_URL'>"
p430
sS'search_func'
p431
S'<function search_func>'
p432
sS'profile'
p433
S'<function profile>'
p434
sS'STYLE'
p435
S"<class 'gluon.html.STYLE'>"
p436
sS'IS_DATETIME_IN_RANGE'
p437
S"<class 'gluon.validators.IS_DATETIME_IN_RANGE'>"
p438
sS'FORM'
p439
S"<class 'gluon.html.FORM'>"
p440
sS'I'
S"<class 'gluon.html.I'>"
p441
sS'crud'
p442
S'<gluon.tools.Crud object>'
p443
sS'IS_NOT_IN_DB'
p444
S"<class 'gluon.validators.IS_NOT_IN_DB'>"
p445
sS'user'
p446
S'<function user>'
p447
sS'PRE'
p448
S"<class 'gluon.html.PRE'>"
p449
sS'data'
p450
S'<function data>'
p451
sg110
S"<Storage {'body': <cStringIO.StringO object at 0...da> at 0x90720d4>, 'view': 'default/clear.html'}>"
p452
sS'THEAD'
p453
S"<class 'gluon.html.THEAD'>"
p454
sS'IS_NULL_OR'
p455
S"<class 'gluon.validators.IS_EMPTY_OR'>"
p456
sS'register'
p457
S'<function register>'
p458
sg56
S"<Storage {'function': 'clear', 'body': <cStringI...ons/projectlibrary/', 'post_vars': <Storage {}>}>"
p459
sS'IS_EXPR'
p460
S"<class 'gluon.validators.IS_EXPR'>"
p461
sS'newproject'
p462
S'<function newproject>'
p463
sS'IS_IN_SET'
p464
S"<class 'gluon.validators.IS_IN_SET'>"
p465
sS'IS_UPLOAD_FILENAME'
p466
S"<class 'gluon.validators.IS_UPLOAD_FILENAME'>"
p467
sS'IS_DECIMAL_IN_RANGE'
p468
S"<class 'gluon.validators.IS_DECIMAL_IN_RANGE'>"
p469
sS'TFOOT'
p470
S"<class 'gluon.html.TFOOT'>"
p471
sssS'traceback'
p472
S'Traceback (most recent call last):\n  File "/home/kira/web2py/gluon/restricted.py", line 212, in restricted\n    exec ccode in environment\n  File "/home/kira/web2py/applications/projectlibrary/controllers/default.py", line 539, in <module>\nNameError: name \'clear\' is not defined\n'
p473
s.